 SpeedTreeRT_d

 Timestamp is 66b5201d (Thu Aug  8 16:44:29 2024)

 Preferred load address is 10000000

 Start         Length     Name                   Class
 0001:00000000 0000af30H .text$di                CODE
 0001:0000af30 000b05f0H .text$mn                CODE
 0001:000bb520 00008410H .text$x                 CODE
 0001:000c3930 000014d8H .text$yd                CODE
 0002:00000000 00000104H .CRT$XCA                DATA
 0002:00000104 00000164H .CRT$XCU                DATA
 0002:00000268 00000104H .CRT$XCZ                DATA
 0002:0000036c 00000104H .CRT$XIA                DATA
 0002:00000470 00000104H .CRT$XIZ                DATA
 0002:00000574 00000004H .CRT$XLA                DATA
 0002:00000578 00000004H .CRT$XLZ                DATA
 0002:0000057c 00000104H .CRT$XPA                DATA
 0002:00000680 00000104H .CRT$XPZ                DATA
 0002:00000784 00000104H .CRT$XTA                DATA
 0002:00000888 00000118H .CRT$XTZ                DATA
 0002:000009a0 001d2220H .rdata                  DATA
 0002:001d2bc0 00000180H .rdata$CastGuardVftablesA DATA
 0002:001d2d40 0000014cH .rdata$CastGuardVftablesC DATA
 0002:001d2e8c 0000011cH .rdata$T                DATA
 0002:001d2fa8 0000068cH .rdata$r                DATA
 0002:001d3634 0000086cH .rdata$sxdata           DATA
 0002:001d3ea0 00000190H .rdata$zzzdbg           DATA
 0002:001d4030 00000104H .rtc$IAA                DATA
 0002:001d4134 00000184H .rtc$IMZ                DATA
 0002:001d42b8 00000104H .rtc$IZZ                DATA
 0002:001d43bc 00000104H .rtc$TAA                DATA
 0002:001d44c0 00000184H .rtc$TMZ                DATA
 0002:001d4644 00000104H .rtc$TZZ                DATA
 0002:001d4748 00007218H .xdata$x                DATA
 0002:001db960 00002759H .edata                  DATA
 0003:00000000 000005a4H .data                   DATA
 0003:000005a4 000001e8H .data$r                 DATA
 0003:0000078c 00000214H .data$rs                DATA
 0003:000009a0 00000928H .bss                    DATA
 0004:00000000 000002e8H .idata$5                DATA
 0004:000002e8 00000050H .idata$2                DATA
 0004:00000338 00000014H .idata$3                DATA
 0004:0000034c 000002e8H .idata$4                DATA
 0004:00000634 00000dd9H .idata$6                DATA
 0005:00000000 00000104H .tls                    DATA
 0005:00000104 00000104H .tls$                   DATA
 0005:00000208 00000101H .tls$ZZZ                DATA
 0006:00000000 0000010eH .00cfg                  DATA
 0007:00000000 00000170H .rsrc$01                DATA
 0007:00000170 000002ccH .rsrc$02                DATA

  Address         Publics by Value              Rva+Base       Lib:Object

 0000:00000000       ___AbsoluteZero            00000000     <absolute>
 0000:00000000       ___arm64x_extra_rfe_table  00000000     <absolute>
 0000:00000000       ___arm64x_extra_rfe_table_size 00000000     <absolute>
 0000:00000000       ___arm64x_native_entrypoint 00000000     <absolute>
 0000:00000000       ___arm64x_redirection_metadata 00000000     <absolute>
 0000:00000000       ___arm64x_redirection_metadata_count 00000000     <absolute>
 0000:00000000       ___dynamic_value_reloc_table 00000000     <absolute>
 0000:00000000       ___enclave_config          00000000     <absolute>
 0000:00000000       ___guard_check_icall_a64n_fptr 00000000     <absolute>
 0000:00000000       ___guard_eh_cont_count     00000000     <absolute>
 0000:00000000       ___guard_eh_cont_table     00000000     <absolute>
 0000:00000000       ___guard_fids_count        00000000     <absolute>
 0000:00000000       ___guard_fids_table        00000000     <absolute>
 0000:00000000       ___guard_iat_count         00000000     <absolute>
 0000:00000000       ___guard_iat_table         00000000     <absolute>
 0000:00000000       ___guard_longjmp_count     00000000     <absolute>
 0000:00000000       ___guard_longjmp_table     00000000     <absolute>
 0000:00000000       ___hybrid_auxiliary_delayload_iat 00000000     <absolute>
 0000:00000000       ___hybrid_auxiliary_delayload_iat_copy 00000000     <absolute>
 0000:00000000       ___hybrid_auxiliary_iat    00000000     <absolute>
 0000:00000000       ___hybrid_auxiliary_iat_copy 00000000     <absolute>
 0000:00000000       ___hybrid_code_map         00000000     <absolute>
 0000:00000000       ___hybrid_code_map_count   00000000     <absolute>
 0000:00000000       ___hybrid_image_info_bitfield 00000000     <absolute>
 0000:00000000       ___volatile_metadata       00000000     <absolute>
 0000:00000000       ___x64_code_ranges_to_entry_points 00000000     <absolute>
 0000:00000000       ___x64_code_ranges_to_entry_points_count 00000000     <absolute>
 0000:0000002c       __tls_array                0000002c     <absolute>
 0000:00000100       ___guard_flags             00000100     <absolute>
 0000:0000018c       ___safe_se_handler_count   0000018c     <absolute>
 0000:00000000       ___ImageBase               10000000     <linker-defined>
 0001:0000af30       ??$?0$$V@?$_Compressed_pair@V?$allocator@D@std@@V?$_String_val@U?$_Simple_types@D@std@@@2@$00@std@@QAE@U_Zero_then_variadic_args_t@1@@Z 1000bf30 f i BillboardLeaf.obj
 0001:0000af90       ??$?0AAV?$allocator@D@std@@$$V@?$_Compressed_pair@V?$allocator@D@std@@V?$_String_val@U?$_Simple_types@D@std@@@2@$00@std@@QAE@U_One_then_variadic_args_t@1@AAV?$allocator@D@1@@Z 1000bf90 f i BillboardLeaf.obj
 0001:0000b000       ??$?0D@?$allocator@U_Container_proxy@std@@@std@@QAE@ABV?$allocator@D@1@@Z 1000c000 f i BillboardLeaf.obj
 0001:0000b030       ??$?0V?$allocator@D@std@@$$V@?$_Compressed_pair@V?$allocator@D@std@@V?$_String_val@U?$_Simple_types@D@std@@@2@$00@std@@QAE@U_One_then_variadic_args_t@1@$$QAV?$allocator@D@1@@Z 1000c030 f i BillboardLeaf.obj
 0001:0000b0a0       ??$?HDU?$char_traits@D@std@@V?$allocator@D@1@@std@@YA?AV?$basic_string@DU?$char_traits@D@std@@V?$allocator@D@2@@0@$$QAV10@0@Z 1000c0a0 f i BillboardLeaf.obj
 0001:0000b1d0       ??$?HDU?$char_traits@D@std@@V?$allocator@D@1@@std@@YA?AV?$basic_string@DU?$char_traits@D@std@@V?$allocator@D@2@@0@$$QAV10@QBD@Z 1000c1d0 f i BillboardLeaf.obj
 0001:0000b260       ??$?HDU?$char_traits@D@std@@V?$allocator@D@1@@std@@YA?AV?$basic_string@DU?$char_traits@D@std@@V?$allocator@D@2@@0@ABV10@QBD@Z 1000c260 f i BillboardLeaf.obj
 0001:0000b360       ??$_Alloc_proxy@V?$allocator@U_Container_proxy@std@@@std@@@_Container_base12@std@@QAEX$$QAV?$allocator@U_Container_proxy@std@@@1@@Z 1000c360 f i BillboardLeaf.obj
 0001:0000b400       ??$_Allocate@$07U_Default_allocate_traits@std@@@std@@YAPAXI@Z 1000c400 f i BillboardLeaf.obj
 0001:0000b470       ??$_Allocate_at_least_helper@V?$allocator@D@std@@@std@@YAPADAAV?$allocator@D@0@AAI@Z 1000c470 f i BillboardLeaf.obj
 0001:0000b4c0       ??$_Allocate_at_least_helper@V?$allocator@E@std@@@std@@YAPAEAAV?$allocator@E@0@AAI@Z 1000c4c0 f i BillboardLeaf.obj
 0001:0000b510       ??$_Allocate_for_capacity@$0A@@?$basic_string@DU?$char_traits@D@std@@V?$allocator@D@2@@std@@CAPADAAV?$allocator@D@1@AAI@Z 1000c510 f i BillboardLeaf.obj
 0001:0000b590       ??$_Allocate_manually_vector_aligned@U_Default_allocate_traits@std@@@std@@YAPAXI@Z 1000c590 f i BillboardLeaf.obj
 0001:0000b6c0       ??$_Allocators_equal@V?$allocator@D@std@@@std@@YA_NABV?$allocator@D@0@0@Z 1000c6c0 f i BillboardLeaf.obj
 0001:0000b6e0       ??$_Construct@$00PBD@?$basic_string@DU?$char_traits@D@std@@V?$allocator@D@2@@std@@AAEXQBDI@Z 1000c6e0 f i BillboardLeaf.obj
 0001:0000b9b0       ??$_Construct_in_place@EABE@std@@YAXAAEABE@Z 1000c9b0 f i BillboardLeaf.obj
 0001:0000ba30       ??$_Construct_in_place@PADAAPAD@std@@YAXAAPAD0@Z 1000ca30 f i BillboardLeaf.obj
 0001:0000bab0       ??$_Construct_in_place@PADABQAD@std@@YAXAAPADABQAD@Z 1000cab0 f i BillboardLeaf.obj
 0001:0000bb30       ??$_Construct_in_place@U_Container_proxy@std@@PAU_Container_base12@2@@std@@YAXAAU_Container_proxy@0@$$QAPAU_Container_base12@0@@Z 1000cb30 f i BillboardLeaf.obj
 0001:0000bbb0       ??$_Convert_size@II@std@@YAII@Z 1000cbb0 f i BillboardLeaf.obj
 0001:0000bbd0       ??$_Copy_memmove@PAEPAE@std@@YAPAEPAE00@Z 1000cbd0 f i BillboardLeaf.obj
 0001:0000bc90       ??$_Deallocate@$07@std@@YAXPAXI@Z 1000cc90 f i BillboardLeaf.obj
 0001:0000bd40       ??$_Deallocate_plain@V?$allocator@U_Container_proxy@std@@@std@@@std@@YAXAAV?$allocator@U_Container_proxy@std@@@0@QAU_Container_proxy@0@@Z 1000cd40 f i BillboardLeaf.obj
 0001:0000bdd0       ??$_Delete_plain_internal@V?$allocator@U_Container_proxy@std@@@std@@@std@@YAXAAV?$allocator@U_Container_proxy@std@@@0@QAU_Container_proxy@0@@Z 1000cdd0 f i BillboardLeaf.obj
 0001:0000be20       ??$_Destroy_in_place@PAD@std@@YAXAAPAD@Z 1000ce20 f i BillboardLeaf.obj
 0001:0000be40       ??$_Destroy_range@V?$allocator@E@std@@@std@@YAXPAEQAEAAV?$allocator@E@0@@Z 1000ce40 f i BillboardLeaf.obj
 0001:0000be60       ??$_Emplace_back@E@?$_Uninitialized_backout_al@V?$allocator@E@std@@@std@@QAEX$$QAE@Z 1000ce60 f i BillboardLeaf.obj
 0001:0000bef0       ??$_Emplace_back_with_unused_capacity@ABE@?$vector@EV?$allocator@E@std@@@std@@AAEAAEABE@Z 1000cef0 f i BillboardLeaf.obj
 0001:0000bfa0       ??$_Emplace_one_at_back@ABE@?$vector@EV?$allocator@E@std@@@std@@AAEAAEABE@Z 1000cfa0 f i BillboardLeaf.obj
 0001:0000c050       ??$_Emplace_reallocate@ABE@?$vector@EV?$allocator@E@std@@@std@@AAEPAEQAEABE@Z 1000d050 f i BillboardLeaf.obj
 0001:0000c350       ??$_Get_size_of_n@$00@std@@YAII@Z 1000d350 f i BillboardLeaf.obj
 0001:0000c370       ??$_Get_size_of_n@$07@std@@YAII@Z 1000d370 f i BillboardLeaf.obj
 0001:0000c3e0       ??$_Get_unwrapped@ABQAE@std@@YA?A_TABQAE@Z 1000d3e0 f i BillboardLeaf.obj
 0001:0000c400       ??$_Reallocate_grow_by@V<lambda_ab246b20b9526e2ef7792587e4298a77>@@PBDI@?$basic_string@DU?$char_traits@D@std@@V?$allocator@D@2@@std@@AAEAAV01@IV<lambda_ab246b20b9526e2ef7792587e4298a77>@@PBDI@Z 1000d400 f i BillboardLeaf.obj
 0001:0000c600       ??$_To_address@PAE@std@@YA?A_PABQAE@Z 1000d600 f i BillboardLeaf.obj
 0001:0000c620       ??$_Unfancy@D@std@@YAPADPAD@Z 1000d620 f i BillboardLeaf.obj
 0001:0000c640       ??$_Unfancy@E@std@@YAPAEPAE@Z 1000d640 f i BillboardLeaf.obj
 0001:0000c660       ??$_Unfancy@U_Container_proxy@std@@@std@@YAPAU_Container_proxy@0@PAU10@@Z 1000d660 f i BillboardLeaf.obj
 0001:0000c680       ??$_Uninitialized_move@PAEV?$allocator@E@std@@@std@@YAPAEQAE0PAEAAV?$allocator@E@0@@Z 1000d680 f i BillboardLeaf.obj
 0001:0000c810       ??$addressof@E@std@@YAPAEAAE@Z 1000d810 f i BillboardLeaf.obj
 0001:0000c830       ??$addressof@PAD@std@@YAPAPADAAPAD@Z 1000d830 f i BillboardLeaf.obj
 0001:0000c850       ??$addressof@U_Container_base12@std@@@std@@YAPAU_Container_base12@0@AAU10@@Z 1000d850 f i BillboardLeaf.obj
 0001:0000c870       ??$addressof@U_Container_proxy@std@@@std@@YAPAU_Container_proxy@0@AAU10@@Z 1000d870 f i BillboardLeaf.obj
 0001:0000c890       ??$addressof@V?$_String_val@U?$_Simple_types@D@std@@@std@@@std@@YAPAV?$_String_val@U?$_Simple_types@D@std@@@0@AAV10@@Z 1000d890 f i BillboardLeaf.obj
 0001:0000c8b0       ??$addressof@V?$basic_string@DU?$char_traits@D@std@@V?$allocator@D@2@@std@@@std@@YAPAV?$basic_string@DU?$char_traits@D@std@@V?$allocator@D@2@@0@AAV10@@Z 1000d8b0 f i BillboardLeaf.obj
 0001:0000c8d0       ??$construct@EABE@?$_Default_allocator_traits@V?$allocator@E@std@@@std@@SAXAAV?$allocator@E@1@QAEABE@Z 1000d8d0 f i BillboardLeaf.obj
 0001:0000c940       ??$construct@EE@?$_Default_allocator_traits@V?$allocator@E@std@@@std@@SAXAAV?$allocator@E@1@QAE$$QAE@Z 1000d940 f i BillboardLeaf.obj
 0001:0000c9b0       ??$exchange@PAU_Iterator_base12@std@@$$T@std@@YAPAU_Iterator_base12@0@AAPAU10@$$QA$$T@Z 1000d9b0 f i BillboardLeaf.obj
 0001:0000c9f0       ??$forward@AAPAD@std@@YAAAPADAAPAD@Z 1000d9f0 f i BillboardLeaf.obj
 0001:0000ca10       ??$forward@AAV?$allocator@D@std@@@std@@YAAAV?$allocator@D@0@AAV10@@Z 1000da10 f i BillboardLeaf.obj
 0001:0000ca30       ??$forward@ABE@std@@YAABEABE@Z 1000da30 f i BillboardLeaf.obj
 0001:0000ca50       ??$forward@ABQAD@std@@YAABQADABQAD@Z 1000da50 f i BillboardLeaf.obj
 0001:0000ca70       ??$forward@E@std@@YA$$QAEAAE@Z 1000da70 f i BillboardLeaf.obj
 0001:0000ca90       ??$forward@PAU_Container_base12@std@@@std@@YA$$QAPAU_Container_base12@0@AAPAU10@@Z 1000da90 f i BillboardLeaf.obj
 0001:0000cab0       ??$forward@V?$allocator@D@std@@@std@@YA$$QAV?$allocator@D@0@AAV10@@Z 1000dab0 f i BillboardLeaf.obj
 0001:0000cad0       ??$max@I@std@@YAABIABI0@Z  1000dad0 f i BillboardLeaf.obj
 0001:0000cb30       ??$min@I@std@@YAABIABI0@Z  1000db30 f i BillboardLeaf.obj
 0001:0000cb90       ??$move@AAE@std@@YA$$QAEAAE@Z 1000db90 f i BillboardLeaf.obj
 0001:0000cbb0       ??$move@AAV?$allocator@D@std@@@std@@YA$$QAV?$allocator@D@0@AAV10@@Z 1000dbb0 f i BillboardLeaf.obj
 0001:0000cbd0       ??$move@AAV?$basic_string@DU?$char_traits@D@std@@V?$allocator@D@2@@std@@@std@@YA$$QAV?$basic_string@DU?$char_traits@D@std@@V?$allocator@D@2@@0@AAV10@@Z 1000dbd0 f i BillboardLeaf.obj
 0001:0000cbf0       ??0?$_Container_proxy_ptr12@V?$allocator@U_Container_proxy@std@@@std@@@std@@QAE@AAV?$allocator@U_Container_proxy@std@@@1@AAU_Container_base12@1@@Z 1000dbf0 f i BillboardLeaf.obj
 0001:0000ccb0       ??0?$_String_val@U?$_Simple_types@D@std@@@std@@QAE@XZ 1000dcb0 f i BillboardLeaf.obj
 0001:0000cd30       ??0?$_Uninitialized_backout_al@V?$allocator@E@std@@@std@@QAE@PAEAAV?$allocator@E@1@@Z 1000dd30 f i BillboardLeaf.obj
 0001:0000cd80       ??0?$allocator@D@std@@QAE@XZ 1000dd80 f i BillboardLeaf.obj
 0001:0000cda0       ??0?$basic_string@DU?$char_traits@D@std@@V?$allocator@D@2@@std@@QAE@$$QAV01@@Z 1000dda0 f i BillboardLeaf.obj
 0001:0000ce90       ??0?$basic_string@DU?$char_traits@D@std@@V?$allocator@D@2@@std@@QAE@QBD@Z 1000de90 f i BillboardLeaf.obj
 0001:0000cf60       ??0?$basic_string@DU?$char_traits@D@std@@V?$allocator@D@2@@std@@QAE@U_String_constructor_concat_tag@1@AAV01@1@Z 1000df60 f i BillboardLeaf.obj
 0001:0000d460       ??0?$basic_string@DU?$char_traits@D@std@@V?$allocator@D@2@@std@@QAE@U_String_constructor_concat_tag@1@ABV01@QBDI2I@Z 1000e460 f i BillboardLeaf.obj
 0001:0000d710       ??0CBillboardLeaf@@AAE@XZ  1000e710 f   BillboardLeaf.obj
 0001:0000d820       ??0CBillboardLeaf@@QAE@ABVCVec3@@FHMH@Z 1000e820 f   BillboardLeaf.obj
 0001:0000d960       ??0CVec3@@QAE@MMM@Z        1000e960 f i BillboardLeaf.obj
 0001:0000d9d0       ??0CVec3@@QAE@XZ           1000e9d0 f i BillboardLeaf.obj
 0001:0000da40       ??0IdvFileError@@QAE@ABV0@@Z 1000ea40 f i BillboardLeaf.obj
 0001:0000dab0       ??0IdvFileError@@QAE@ABV?$basic_string@DU?$char_traits@D@std@@V?$allocator@D@2@@std@@_N@Z 1000eab0 f i BillboardLeaf.obj
 0001:0000ddb0       ??0_Basic_container_proxy_ptr12@std@@IAE@XZ 1000edb0 f i BillboardLeaf.obj
 0001:0000dde0       ??0_Bxty@?$_String_val@U?$_Simple_types@D@std@@@std@@QAE@XZ 1000ede0 f i BillboardLeaf.obj
 0001:0000de20       ??0_Container_base12@std@@QAE@XZ 1000ee20 f i BillboardLeaf.obj
 0001:0000de50       ??0_Container_proxy@std@@QAE@PAU_Container_base12@1@@Z 1000ee50 f i BillboardLeaf.obj
 0001:0000de90       ??0bad_alloc@std@@AAE@QBD@Z 1000ee90 f i BillboardLeaf.obj
 0001:0000df00       ??0bad_alloc@std@@QAE@ABV01@@Z 1000ef00 f i BillboardLeaf.obj
 0001:0000df70       ??0bad_array_new_length@std@@QAE@ABV01@@Z 1000ef70 f i BillboardLeaf.obj
 0001:0000dfe0       ??0bad_array_new_length@std@@QAE@XZ 1000efe0 f i BillboardLeaf.obj
 0001:0000e050       ??0exception@std@@QAE@ABV01@@Z 1000f050 f i BillboardLeaf.obj
 0001:0000e0d0       ??0exception@std@@QAE@QBD@Z 1000f0d0 f i BillboardLeaf.obj
 0001:0000e1a0       ??0exception@std@@QAE@QBDH@Z 1000f1a0 f i BillboardLeaf.obj
 0001:0000e1f0       ??0runtime_error@std@@QAE@ABV01@@Z 1000f1f0 f i BillboardLeaf.obj
 0001:0000e260       ??0runtime_error@std@@QAE@ABV?$basic_string@DU?$char_traits@D@std@@V?$allocator@D@2@@1@@Z 1000f260 f i BillboardLeaf.obj
 0001:0000e2d0       ??1?$_Compressed_pair@V?$allocator@D@std@@V?$_String_val@U?$_Simple_types@D@std@@@2@$00@std@@QAE@XZ 1000f2d0 f i BillboardLeaf.obj
 0001:0000e320       ??1?$_Container_proxy_ptr12@V?$allocator@U_Container_proxy@std@@@std@@@std@@QAE@XZ 1000f320 f i BillboardLeaf.obj
 0001:0000e390       ??1?$_String_val@U?$_Simple_types@D@std@@@std@@QAE@XZ 1000f390 f i BillboardLeaf.obj
 0001:0000e3e0       ??1?$_Uninitialized_backout_al@V?$allocator@E@std@@@std@@QAE@XZ 1000f3e0 f i BillboardLeaf.obj
 0001:0000e450       ??1?$basic_string@DU?$char_traits@D@std@@V?$allocator@D@2@@std@@QAE@XZ 1000f450 f i BillboardLeaf.obj
 0001:0000e530       ??1CBillboardLeaf@@UAE@XZ  1000f530 f i BillboardLeaf.obj
 0001:0000e580       ??1IdvFileError@@UAE@XZ    1000f580 f i BillboardLeaf.obj
 0001:0000e5d0       ??1_Bxty@?$_String_val@U?$_Simple_types@D@std@@@std@@QAE@XZ 1000f5d0 f i BillboardLeaf.obj
 0001:0000e5f0       ??1bad_alloc@std@@UAE@XZ   1000f5f0 f i BillboardLeaf.obj
 0001:0000e640       ??1bad_array_new_length@std@@UAE@XZ 1000f640 f i BillboardLeaf.obj
 0001:0000e690       ??1exception@std@@UAE@XZ   1000f690 f i BillboardLeaf.obj
 0001:0000e6f0       ??1runtime_error@std@@UAE@XZ 1000f6f0 f i BillboardLeaf.obj
 0001:0000e740       ??2@YAPAXIPAX@Z            1000f740 f i BillboardLeaf.obj
 0001:0000e760       ??4CBillboardLeaf@@QAEABV0@ABV0@@Z 1000f760 f   BillboardLeaf.obj
 0001:0000e890       ??4CSpeedTreeRT@@QAEAAV0@ABV0@@Z 1000f890 f i BillboardLeaf.obj
 0001:0000e8d0       ??4SBillboard@SGeometry@CSpeedTreeRT@@QAEAAU012@ABU012@@Z 1000f8d0 f i BillboardLeaf.obj
 0001:0000e920       ??4SGeometry@CSpeedTreeRT@@QAEAAU01@ABU01@@Z 1000f920 f i BillboardLeaf.obj
 0001:0000e960       ??4SIndexed@SGeometry@CSpeedTreeRT@@QAEAAU012@ABU012@@Z 1000f960 f i BillboardLeaf.obj
 0001:0000e9a0       ??4SLeaf@SGeometry@CSpeedTreeRT@@QAEAAU012@ABU012@@Z 1000f9a0 f i BillboardLeaf.obj
 0001:0000e9e0       ??4STextures@CSpeedTreeRT@@QAEAAU01@ABU01@@Z 1000f9e0 f i BillboardLeaf.obj
 0001:0000ea20       ??A?$vector@EV?$allocator@E@std@@@std@@QAEAAEI@Z 1000fa20 f i BillboardLeaf.obj
 0001:0000eb10       ??ACVec3@@QAEAAMH@Z        1000fb10 f i BillboardLeaf.obj
 0001:0000eb40       ??DCVec3@@QBE?AV0@M@Z      1000fb40 f i BillboardLeaf.obj
 0001:0000ec00       ??GCVec3@@QBE?AV0@ABV0@@Z  1000fc00 f i BillboardLeaf.obj
 0001:0000ece0       ??R<lambda_ab246b20b9526e2ef7792587e4298a77>@@QBE@QADQBDI1I@Z 1000fce0 f i BillboardLeaf.obj
 0001:0000ed90       ??TCVec3@@QBEMABV0@@Z      1000fd90 f i BillboardLeaf.obj
 0001:0000ee40       ??XCVec3@@QAEAAV0@M@Z      1000fe40 f i BillboardLeaf.obj
 0001:0000eef0       ??_ECBillboardLeaf@@UAEPAXI@Z 1000fef0 f i BillboardLeaf.obj
 0001:0000eef0       ??_GCBillboardLeaf@@UAEPAXI@Z 1000fef0 f i BillboardLeaf.obj
 0001:0000ef60       ??_EIdvFileError@@UAEPAXI@Z 1000ff60 f i BillboardLeaf.obj
 0001:0000ef60       ??_GIdvFileError@@UAEPAXI@Z 1000ff60 f i BillboardLeaf.obj
 0001:0000efd0       ??_Ebad_alloc@std@@UAEPAXI@Z 1000ffd0 f i BillboardLeaf.obj
 0001:0000efd0       ??_Gbad_alloc@std@@UAEPAXI@Z 1000ffd0 f i BillboardLeaf.obj
 0001:0000f040       ??_Ebad_array_new_length@std@@UAEPAXI@Z 10010040 f i BillboardLeaf.obj
 0001:0000f040       ??_Gbad_array_new_length@std@@UAEPAXI@Z 10010040 f i BillboardLeaf.obj
 0001:0000f0b0       ??_Eexception@std@@UAEPAXI@Z 100100b0 f i BillboardLeaf.obj
 0001:0000f0b0       ??_Gexception@std@@UAEPAXI@Z 100100b0 f i BillboardLeaf.obj
 0001:0000f120       ??_Eruntime_error@std@@UAEPAXI@Z 10010120 f i BillboardLeaf.obj
 0001:0000f120       ??_Gruntime_error@std@@UAEPAXI@Z 10010120 f i BillboardLeaf.obj
 0001:0000f190       ?AdjustStaticLighting@CBillboardLeaf@@QAEXABVCVec3@@0M@Z 10010190 f   BillboardLeaf.obj
 0001:0000f340       ?AngleBetween@CVec3@@QBEMABV1@@Z 10010340 f i BillboardLeaf.obj
 0001:0000f400       ?Clone@CBillboardLeaf@@QBEPAV1@XZ 10010400 f   BillboardLeaf.obj
 0001:0000f500       ?GetColor@CBillboardLeaf@@QBE?AVCVec3@@XZ 10010500 f   BillboardLeaf.obj
 0001:0000f670       ?GetPosition@CIdvCamera@@QBEABVCVec3@@XZ 10010670 f i BillboardLeaf.obj
 0001:0000f6a0       ?Normalize@CVec3@@QAEXXZ   100106a0 f i BillboardLeaf.obj
 0001:0000f830       ?Parse@CBillboardLeaf@@SAPAV1@AAVCTreeFileAccess@@@Z 10010830 f   BillboardLeaf.obj
 0001:0000fb40       ?ParseByte@CTreeFileAccess@@QAEEXZ 10010b40 f i BillboardLeaf.obj
 0001:0000fbc0       ?ParseToken@CTreeFileAccess@@QAE?AW4EFileToken@@XZ 10010bc0 f i BillboardLeaf.obj
 0001:0000fc10       ?Save@CBillboardLeaf@@QBEXAAVCTreeFileAccess@@@Z 10010c10 f   BillboardLeaf.obj
 0001:0000fdf0       ?SaveByte@CTreeFileAccess@@QAEXE@Z 10010df0 f i BillboardLeaf.obj
 0001:0000fe50       ?SaveToken@CTreeFileAccess@@QAEXW4EFileToken@@@Z 10010e50 f i BillboardLeaf.obj
 0001:0000feb0       ?SetColor@CBillboardLeaf@@QAEXABVCVec3@@_N@Z 10010eb0 f   BillboardLeaf.obj
 0001:000100b0       ?SetPosition@CIdvCamera@@QAEXABVCVec3@@@Z 100110b0 f i BillboardLeaf.obj
 0001:000100f0       ?VecInterpolate@@YAMMMM@Z  100110f0 f i BillboardLeaf.obj
 0001:00010140       ?_Activate_SSO_buffer@?$_String_val@U?$_Simple_types@D@std@@@std@@QAEXXZ 10011140 f i BillboardLeaf.obj
 0001:00010160       ?_Adjust_manually_vector_aligned@std@@YAXAAPAXAAI@Z 10011160 f i BillboardLeaf.obj
 0001:00010320       ?_Allocate@_Default_allocate_traits@std@@SAPAXI@Z 10011320 f i BillboardLeaf.obj
 0001:00010370       ?_Calculate_growth@?$basic_string@DU?$char_traits@D@std@@V?$allocator@D@2@@std@@ABEII@Z 10011370 f i BillboardLeaf.obj
 0001:000103e0       ?_Calculate_growth@?$basic_string@DU?$char_traits@D@std@@V?$allocator@D@2@@std@@CAIIII@Z 100113e0 f i BillboardLeaf.obj
 0001:000104c0       ?_Calculate_growth@?$vector@EV?$allocator@E@std@@@std@@ABEII@Z 100114c0 f i BillboardLeaf.obj
 0001:00010560       ?_Change_array@?$vector@EV?$allocator@E@std@@@std@@AAEXQAEII@Z 10011560 f i BillboardLeaf.obj
 0001:00010660       ?_Deallocate_for_capacity@?$basic_string@DU?$char_traits@D@std@@V?$allocator@D@2@@std@@CAXAAV?$allocator@D@2@QADI@Z 10011660 f i BillboardLeaf.obj
 0001:000106f0       ?_Get_first@?$_Compressed_pair@V?$allocator@D@std@@V?$_String_val@U?$_Simple_types@D@std@@@2@$00@std@@QAEAAV?$allocator@D@2@XZ 100116f0 f i BillboardLeaf.obj
 0001:00010710       ?_Get_first@?$_Compressed_pair@V?$allocator@D@std@@V?$_String_val@U?$_Simple_types@D@std@@@2@$00@std@@QBEABV?$allocator@D@2@XZ 10011710 f i BillboardLeaf.obj
 0001:00010730       ?_Get_first@?$_Compressed_pair@V?$allocator@E@std@@V?$_Vector_val@U?$_Simple_types@E@std@@@2@$00@std@@QAEAAV?$allocator@E@2@XZ 10011730 f i BillboardLeaf.obj
 0001:00010750       ?_Get_first@?$_Compressed_pair@V?$allocator@E@std@@V?$_Vector_val@U?$_Simple_types@E@std@@@2@$00@std@@QBEABV?$allocator@E@2@XZ 10011750 f i BillboardLeaf.obj
 0001:00010770       ?_Getal@?$basic_string@DU?$char_traits@D@std@@V?$allocator@D@2@@std@@AAEAAV?$allocator@D@2@XZ 10011770 f i BillboardLeaf.obj
 0001:000107c0       ?_Getal@?$basic_string@DU?$char_traits@D@std@@V?$allocator@D@2@@std@@ABEABV?$allocator@D@2@XZ 100117c0 f i BillboardLeaf.obj
 0001:00010810       ?_Getal@?$vector@EV?$allocator@E@std@@@std@@AAEAAV?$allocator@E@2@XZ 10011810 f i BillboardLeaf.obj
 0001:00010860       ?_Getal@?$vector@EV?$allocator@E@std@@@std@@ABEABV?$allocator@E@2@XZ 10011860 f i BillboardLeaf.obj
 0001:000108b0       ?_Large_mode_engaged@?$_String_val@U?$_Simple_types@D@std@@@std@@QBE_NXZ 100118b0 f i BillboardLeaf.obj
 0001:00010900       ?_Myptr@?$_String_val@U?$_Simple_types@D@std@@@std@@QAEPADXZ 10011900 f i BillboardLeaf.obj
 0001:00010980       ?_Myptr@?$_String_val@U?$_Simple_types@D@std@@@std@@QBEPBDXZ 10011980 f i BillboardLeaf.obj
 0001:00010a00       ?_Orphan_all@_Container_base12@std@@QAEXXZ 10011a00 f i BillboardLeaf.obj
 0001:00010a50       ?_Orphan_all_locked_v3@_Container_base12@std@@AAEXXZ 10011a50 f i BillboardLeaf.obj
 0001:00010b10       ?_Orphan_all_unlocked_v3@_Container_base12@std@@AAEXXZ 10011b10 f i BillboardLeaf.obj
 0001:00010bb0       ?_Orphan_range@?$vector@EV?$allocator@E@std@@@std@@ABEXPAE0@Z 10011bb0 f i BillboardLeaf.obj
 0001:00010c10       ?_Orphan_range_locked@?$vector@EV?$allocator@E@std@@@std@@ABEXPAE0@Z 10011c10 f i BillboardLeaf.obj
 0001:00010d20       ?_Orphan_range_unlocked@?$vector@EV?$allocator@E@std@@@std@@ABEXPAE0@Z 10011d20 f i BillboardLeaf.obj
 0001:00010db0       ?_Release@?$_Uninitialized_backout_al@V?$allocator@E@std@@@std@@QAEPAEXZ 10011db0 f i BillboardLeaf.obj
 0001:00010de0       ?_Release@_Basic_container_proxy_ptr12@std@@QAEXXZ 10011de0 f i BillboardLeaf.obj
 0001:00010e10       ?_Swap_proxy_and_iterators@?$basic_string@DU?$char_traits@D@std@@V?$allocator@D@2@@std@@AAEXAAV12@@Z 10011e10 f i BillboardLeaf.obj
 0001:00010e70       ?_Swap_proxy_and_iterators@_Container_base12@std@@QAEXAAU12@@Z 10011e70 f i BillboardLeaf.obj
 0001:00010ed0       ?_Swap_proxy_and_iterators_locked@_Container_base12@std@@AAEXAAU12@@Z 10011ed0 f i BillboardLeaf.obj
 0001:00010f90       ?_Swap_proxy_and_iterators_unlocked@_Container_base12@std@@AAEXAAU12@@Z 10011f90 f i BillboardLeaf.obj
 0001:00011000       ?_Switch_to_buf@_Bxty@?$_String_val@U?$_Simple_types@D@std@@@std@@QAEXXZ 10012000 f i BillboardLeaf.obj
 0001:00011050       ?_Take_contents@?$basic_string@DU?$char_traits@D@std@@V?$allocator@D@2@@std@@AAEXAAV12@@Z 10012050 f i BillboardLeaf.obj
 0001:00011270       ?_Throw_bad_array_new_length@std@@YAXXZ 10012270 f i BillboardLeaf.obj
 0001:000112d0       ?_Tidy_deallocate@?$basic_string@DU?$char_traits@D@std@@V?$allocator@D@2@@std@@AAEXXZ 100122d0 f i BillboardLeaf.obj
 0001:000113c0       ?_Xlen_string@std@@YAXXZ   100123c0 f i BillboardLeaf.obj
 0001:00011410       ?_Xlength@?$vector@EV?$allocator@E@std@@@std@@CAXXZ 10012410 f i BillboardLeaf.obj
 0001:00011460       ?__empty_global_delete@@YAXPAX@Z 10012460 f i BillboardLeaf.obj
 0001:00011480       ?__empty_global_delete@@YAXPAXI@Z 10012480 f i BillboardLeaf.obj
 0001:000114a0       ?allocate@?$allocator@D@std@@QAEPADI@Z 100124a0 f i BillboardLeaf.obj
 0001:00011500       ?allocate@?$allocator@E@std@@QAEPAEI@Z 10012500 f i BillboardLeaf.obj
 0001:00011560       ?allocate@?$allocator@U_Container_proxy@std@@@std@@QAEPAU_Container_proxy@2@I@Z 10012560 f i BillboardLeaf.obj
 0001:000115c0       ?append@?$basic_string@DU?$char_traits@D@std@@V?$allocator@D@2@@std@@QAEAAV12@QBD@Z 100125c0 f i BillboardLeaf.obj
 0001:00011630       ?append@?$basic_string@DU?$char_traits@D@std@@V?$allocator@D@2@@std@@QAEAAV12@QBDI@Z 10012630 f i BillboardLeaf.obj
 0001:00011730       ?assign@?$_Narrow_char_traits@DH@std@@SAXAADABD@Z 10012730 f i BillboardLeaf.obj
 0001:00011760       ?c_str@?$basic_string@DU?$char_traits@D@std@@V?$allocator@D@2@@std@@QBEPBDXZ 10012760 f i BillboardLeaf.obj
 0001:000117b0       ?capacity@?$vector@EV?$allocator@E@std@@@std@@QBEIXZ 100127b0 f i BillboardLeaf.obj
 0001:000117f0       ?copy@?$_Char_traits@DH@std@@SAPADQADQBDI@Z 100127f0 f i BillboardLeaf.obj
 0001:00011850       ?deallocate@?$_Default_allocator_traits@V?$allocator@U_Container_proxy@std@@@std@@@std@@SAXAAV?$allocator@U_Container_proxy@std@@@2@QAU_Container_proxy@2@I@Z 10012850 f i BillboardLeaf.obj
 0001:000118a0       ?deallocate@?$allocator@D@std@@QAEXQADI@Z 100128a0 f i BillboardLeaf.obj
 0001:00011990       ?deallocate@?$allocator@E@std@@QAEXQAEI@Z 10012990 f i BillboardLeaf.obj
 0001:00011a80       ?length@?$_Narrow_char_traits@DH@std@@SAIQBD@Z 10012a80 f i BillboardLeaf.obj
 0001:00011ad0       ?max@?$numeric_limits@H@std@@SAHXZ 10012ad0 f i BillboardLeaf.obj
 0001:00011af0       ?max_size@?$_Default_allocator_traits@V?$allocator@D@std@@@std@@SAIABV?$allocator@D@2@@Z 10012af0 f i BillboardLeaf.obj
 0001:00011b10       ?max_size@?$_Default_allocator_traits@V?$allocator@E@std@@@std@@SAIABV?$allocator@E@2@@Z 10012b10 f i BillboardLeaf.obj
 0001:00011b30       ?max_size@?$basic_string@DU?$char_traits@D@std@@V?$allocator@D@2@@std@@QBEIXZ 10012b30 f i BillboardLeaf.obj
 0001:00011c30       ?max_size@?$vector@EV?$allocator@E@std@@@std@@QBEIXZ 10012c30 f i BillboardLeaf.obj
 0001:00011cc0       ?move@?$_Char_traits@DH@std@@SAPADQADQBDI@Z 10012cc0 f i BillboardLeaf.obj
 0001:00011d20       ?push_back@?$vector@EV?$allocator@E@std@@@std@@QAEXABE@Z 10012d20 f i BillboardLeaf.obj
 0001:00011d80       ?select_on_container_copy_construction@?$_Default_allocator_traits@V?$allocator@D@std@@@std@@SA?AV?$allocator@D@2@ABV32@@Z 10012d80 f i BillboardLeaf.obj
 0001:00011da0       ?size@?$basic_string@DU?$char_traits@D@std@@V?$allocator@D@2@@std@@QBEIXZ 10012da0 f i BillboardLeaf.obj
 0001:00011dd0       ?what@exception@std@@UBEPBDXZ 10012dd0 f i BillboardLeaf.obj
 0001:00011e20       _acosf                     10012e20 f i BillboardLeaf.obj
 0001:00011e90       _cosf                      10012e90 f i BillboardLeaf.obj
 0001:00011f00       _sqrtf                     10012f00 f i BillboardLeaf.obj
 0001:00011f70       ??$?0$$V@?$_Compressed_pair@V?$allocator@H@std@@V?$_Vector_val@U?$_Simple_types@H@std@@@2@$00@std@@QAE@U_Zero_then_variadic_args_t@1@@Z 10012f70 f i Branch.obj
 0001:00011fd0       ??$?0$$V@?$_Compressed_pair@V?$allocator@PAVCBillboardLeaf@@@std@@V?$_Vector_val@U?$_Simple_types@PAVCBillboardLeaf@@@std@@@2@$00@std@@QAE@U_Zero_then_variadic_args_t@1@@Z 10012fd0 f i Branch.obj
 0001:00012030       ??$?0$$V@?$_Compressed_pair@V?$allocator@PBUSIdvBranchInfo@@@std@@V?$_Vector_val@U?$_Simple_types@PBUSIdvBranchInfo@@@std@@@2@$00@std@@QAE@U_Zero_then_variadic_args_t@1@@Z 10013030 f i Branch.obj
 0001:00012090       ??$?0$$V@?$_Compressed_pair@V?$allocator@USIdvBranch@@@std@@V?$_Vector_val@U?$_Simple_types@USIdvBranch@@@std@@@2@$00@std@@QAE@U_Zero_then_variadic_args_t@1@@Z 10013090 f i Branch.obj
 0001:000120f0       ??$?0$$V@?$_Compressed_pair@V?$allocator@USIdvBranchFlare@@@std@@V?$_Vector_val@U?$_Simple_types@USIdvBranchFlare@@@std@@@2@$00@std@@QAE@U_Zero_then_variadic_args_t@1@@Z 100130f0 f i Branch.obj
 0001:00012150       ??$?0AAPAPAVCIdvBranch@@AAPAPAV0@$0A@@?$pair@PAPAVCIdvBranch@@PAPAV1@@std@@QAE@AAPAPAVCIdvBranch@@0@Z 10013150 f i Branch.obj
 0001:000121d0       ??$?0H@?$allocator@U_Container_proxy@std@@@std@@QAE@ABV?$allocator@H@1@@Z 100131d0 f i Branch.obj
 0001:00012200       ??$?0PAVCBillboardLeaf@@@?$allocator@U_Container_proxy@std@@@std@@QAE@ABV?$allocator@PAVCBillboardLeaf@@@1@@Z 10013200 f i Branch.obj
 0001:00012230       ??$?0PBUSIdvBranchInfo@@@?$allocator@U_Container_proxy@std@@@std@@QAE@ABV?$allocator@PBUSIdvBranchInfo@@@1@@Z 10013230 f i Branch.obj
 0001:00012260       ??$?0USIdvBranch@@@?$allocator@U_Container_proxy@std@@@std@@QAE@ABV?$allocator@USIdvBranch@@@1@@Z 10013260 f i Branch.obj
 0001:00012290       ??$?0USIdvBranchFlare@@@?$allocator@U_Container_proxy@std@@@std@@QAE@ABV?$allocator@USIdvBranchFlare@@@1@@Z 10013290 f i Branch.obj
 0001:000122c0       ??$?6U?$char_traits@D@std@@@std@@YAAAV?$basic_ostream@DU?$char_traits@D@std@@@0@AAV10@PBD@Z 100132c0 f i Branch.obj
 0001:000127f0       ??$_Adl_verify_range@V?$_Vector_iterator@V?$_Vector_val@U?$_Simple_types@PAVCIdvBranch@@@std@@@std@@@std@@V12@@std@@YAXABV?$_Vector_iterator@V?$_Vector_val@U?$_Simple_types@PAVCIdvBranch@@@std@@@std@@@0@0@Z 100137f0 f i Branch.obj
 0001:00012840       ??$_Allocate_at_least_helper@V?$allocator@H@std@@@std@@YAPAHAAV?$allocator@H@0@AAI@Z 10013840 f i Branch.obj
 0001:00012890       ??$_Allocate_at_least_helper@V?$allocator@PAVCBillboardLeaf@@@std@@@std@@YAPAPAVCBillboardLeaf@@AAV?$allocator@PAVCBillboardLeaf@@@0@AAI@Z 10013890 f i Branch.obj
 0001:000128e0       ??$_Allocate_at_least_helper@V?$allocator@PAVCIdvBranch@@@std@@@std@@YAPAPAVCIdvBranch@@AAV?$allocator@PAVCIdvBranch@@@0@AAI@Z 100138e0 f i Branch.obj
 0001:00012930       ??$_Allocate_at_least_helper@V?$allocator@USIdvBranch@@@std@@@std@@YAPAUSIdvBranch@@AAV?$allocator@USIdvBranch@@@0@AAI@Z 10013930 f i Branch.obj
 0001:00012980       ??$_Allocate_at_least_helper@V?$allocator@USIdvBranchFlare@@@std@@@std@@YAPAUSIdvBranchFlare@@AAV?$allocator@USIdvBranchFlare@@@0@AAI@Z 10013980 f i Branch.obj
 0001:000129d0       ??$_Construct_in_place@HH@std@@YAXAAH$$QAH@Z 100139d0 f i Branch.obj
 0001:00012a50       ??$_Construct_in_place@PAVCBillboardLeaf@@ABQAV1@@std@@YAXAAPAVCBillboardLeaf@@ABQAV1@@Z 10013a50 f i Branch.obj
 0001:00012ad0       ??$_Construct_in_place@PAVCIdvBranch@@PAV1@@std@@YAXAAPAVCIdvBranch@@$$QAPAV1@@Z 10013ad0 f i Branch.obj
 0001:00012b50       ??$_Construct_in_place@USIdvBranch@@ABU1@@std@@YAXAAUSIdvBranch@@ABU1@@Z 10013b50 f i Branch.obj
 0001:00012be0       ??$_Construct_in_place@USIdvBranchFlare@@ABU1@@std@@YAXAAUSIdvBranchFlare@@ABU1@@Z 10013be0 f i Branch.obj
 0001:00012c80       ??$_Copy_backward_memmove@PAPAVCIdvBranch@@PAPAV1@@std@@YAPAPAVCIdvBranch@@PAPAV1@00@Z 10013c80 f i Branch.obj
 0001:00012d40       ??$_Copy_memmove@PAHPAH@std@@YAPAHPAH00@Z 10013d40 f i Branch.obj
 0001:00012e00       ??$_Copy_memmove@PAPAVCBillboardLeaf@@PAPAV1@@std@@YAPAPAVCBillboardLeaf@@PAPAV1@00@Z 10013e00 f i Branch.obj
 0001:00012ec0       ??$_Copy_memmove@PAPAVCIdvBranch@@PAPAV1@@std@@YAPAPAVCIdvBranch@@PAPAV1@00@Z 10013ec0 f i Branch.obj
 0001:00012f80       ??$_Copy_memmove@PAUSIdvBranch@@PAU1@@std@@YAPAUSIdvBranch@@PAU1@00@Z 10013f80 f i Branch.obj
 0001:00013040       ??$_Copy_memmove@PAUSIdvBranchFlare@@PAU1@@std@@YAPAUSIdvBranchFlare@@PAU1@00@Z 10014040 f i Branch.obj
 0001:00013100       ??$_Debug_lt_pred@AAVCBranchVolumeSorter@@AAPAVCIdvBranch@@AAPAV2@$0A@@std@@YA_NAAVCBranchVolumeSorter@@AAPAVCIdvBranch@@1@Z 10014100 f i Branch.obj
 0001:00013210       ??$_Destroy_range@V?$allocator@H@std@@@std@@YAXPAHQAHAAV?$allocator@H@0@@Z 10014210 f i Branch.obj
 0001:00013230       ??$_Destroy_range@V?$allocator@PAVCBillboardLeaf@@@std@@@std@@YAXPAPAVCBillboardLeaf@@QAPAV1@AAV?$allocator@PAVCBillboardLeaf@@@0@@Z 10014230 f i Branch.obj
 0001:00013250       ??$_Destroy_range@V?$allocator@PAVCIdvBranch@@@std@@@std@@YAXPAPAVCIdvBranch@@QAPAV1@AAV?$allocator@PAVCIdvBranch@@@0@@Z 10014250 f i Branch.obj
 0001:00013270       ??$_Destroy_range@V?$allocator@PBUSIdvBranchInfo@@@std@@@std@@YAXPAPBUSIdvBranchInfo@@QAPBU1@AAV?$allocator@PBUSIdvBranchInfo@@@0@@Z 10014270 f i Branch.obj
 0001:00013290       ??$_Destroy_range@V?$allocator@USIdvBranch@@@std@@@std@@YAXPAUSIdvBranch@@QAU1@AAV?$allocator@USIdvBranch@@@0@@Z 10014290 f i Branch.obj
 0001:000132b0       ??$_Destroy_range@V?$allocator@USIdvBranchFlare@@@std@@@std@@YAXPAUSIdvBranchFlare@@QAU1@AAV?$allocator@USIdvBranchFlare@@@0@@Z 100142b0 f i Branch.obj
 0001:000132d0       ??$_Emplace_back@H@?$_Uninitialized_backout_al@V?$allocator@H@std@@@std@@QAEX$$QAH@Z 100142d0 f i Branch.obj
 0001:00013360       ??$_Emplace_back@PAVCBillboardLeaf@@@?$_Uninitialized_backout_al@V?$allocator@PAVCBillboardLeaf@@@std@@@std@@QAEX$$QAPAVCBillboardLeaf@@@Z 10014360 f i Branch.obj
 0001:000133f0       ??$_Emplace_back@PAVCIdvBranch@@@?$_Uninitialized_backout_al@V?$allocator@PAVCIdvBranch@@@std@@@std@@QAEX$$QAPAVCIdvBranch@@@Z 100143f0 f i Branch.obj
 0001:00013480       ??$_Emplace_back@USIdvBranch@@@?$_Uninitialized_backout_al@V?$allocator@USIdvBranch@@@std@@@std@@QAEX$$QAUSIdvBranch@@@Z 10014480 f i Branch.obj
 0001:00013510       ??$_Emplace_back@USIdvBranchFlare@@@?$_Uninitialized_backout_al@V?$allocator@USIdvBranchFlare@@@std@@@std@@QAEX$$QAUSIdvBranchFlare@@@Z 10014510 f i Branch.obj
 0001:000135a0       ??$_Emplace_back_with_unused_capacity@ABQAVCBillboardLeaf@@@?$vector@PAVCBillboardLeaf@@V?$allocator@PAVCBillboardLeaf@@@std@@@std@@AAEAAPAVCBillboardLeaf@@ABQAV2@@Z 100145a0 f i Branch.obj
 0001:00013650       ??$_Emplace_back_with_unused_capacity@ABUSIdvBranch@@@?$vector@USIdvBranch@@V?$allocator@USIdvBranch@@@std@@@std@@AAEAAUSIdvBranch@@ABU2@@Z 10014650 f i Branch.obj
 0001:00013700       ??$_Emplace_back_with_unused_capacity@ABUSIdvBranchFlare@@@?$vector@USIdvBranchFlare@@V?$allocator@USIdvBranchFlare@@@std@@@std@@AAEAAUSIdvBranchFlare@@ABU2@@Z 10014700 f i Branch.obj
 0001:000137b0       ??$_Emplace_back_with_unused_capacity@H@?$vector@HV?$allocator@H@std@@@std@@AAEAAH$$QAH@Z 100147b0 f i Branch.obj
 0001:00013860       ??$_Emplace_back_with_unused_capacity@PAVCIdvBranch@@@?$vector@PAVCIdvBranch@@V?$allocator@PAVCIdvBranch@@@std@@@std@@AAEAAPAVCIdvBranch@@$$QAPAV2@@Z 10014860 f i Branch.obj
 0001:00013910       ??$_Emplace_one_at_back@ABQAVCBillboardLeaf@@@?$vector@PAVCBillboardLeaf@@V?$allocator@PAVCBillboardLeaf@@@std@@@std@@AAEAAPAVCBillboardLeaf@@ABQAV2@@Z 10014910 f i Branch.obj
 0001:000139c0       ??$_Emplace_one_at_back@ABUSIdvBranch@@@?$vector@USIdvBranch@@V?$allocator@USIdvBranch@@@std@@@std@@AAEAAUSIdvBranch@@ABU2@@Z 100149c0 f i Branch.obj
 0001:00013a70       ??$_Emplace_one_at_back@ABUSIdvBranchFlare@@@?$vector@USIdvBranchFlare@@V?$allocator@USIdvBranchFlare@@@std@@@std@@AAEAAUSIdvBranchFlare@@ABU2@@Z 10014a70 f i Branch.obj
 0001:00013b20       ??$_Emplace_one_at_back@H@?$vector@HV?$allocator@H@std@@@std@@AAEAAH$$QAH@Z 10014b20 f i Branch.obj
 0001:00013bd0       ??$_Emplace_one_at_back@PAVCIdvBranch@@@?$vector@PAVCIdvBranch@@V?$allocator@PAVCIdvBranch@@@std@@@std@@AAEAAPAVCIdvBranch@@$$QAPAV2@@Z 10014bd0 f i Branch.obj
 0001:00013c80       ??$_Emplace_reallocate@ABQAVCBillboardLeaf@@@?$vector@PAVCBillboardLeaf@@V?$allocator@PAVCBillboardLeaf@@@std@@@std@@AAEPAPAVCBillboardLeaf@@QAPAV2@ABQAV2@@Z 10014c80 f i Branch.obj
 0001:00013fa0       ??$_Emplace_reallocate@ABUSIdvBranch@@@?$vector@USIdvBranch@@V?$allocator@USIdvBranch@@@std@@@std@@AAEPAUSIdvBranch@@QAU2@ABU2@@Z 10014fa0 f i Branch.obj
 0001:000142c0       ??$_Emplace_reallocate@ABUSIdvBranchFlare@@@?$vector@USIdvBranchFlare@@V?$allocator@USIdvBranchFlare@@@std@@@std@@AAEPAUSIdvBranchFlare@@QAU2@ABU2@@Z 100152c0 f i Branch.obj
 0001:000145e0       ??$_Emplace_reallocate@H@?$vector@HV?$allocator@H@std@@@std@@AAEPAHQAH$$QAH@Z 100155e0 f i Branch.obj
 0001:00014900       ??$_Emplace_reallocate@PAVCIdvBranch@@@?$vector@PAVCIdvBranch@@V?$allocator@PAVCIdvBranch@@@std@@@std@@AAEPAPAVCIdvBranch@@QAPAV2@$$QAPAV2@@Z 10015900 f i Branch.obj
 0001:00014c20       ??$_Get_size_of_n@$03@std@@YAII@Z 10015c20 f i Branch.obj
 0001:00014c90       ??$_Get_size_of_n@$0BI@@std@@YAII@Z 10015c90 f i Branch.obj
 0001:00014cf0       ??$_Get_size_of_n@$0M@@std@@YAII@Z 10015cf0 f i Branch.obj
 0001:00014d50       ??$_Get_unwrapped@ABQAH@std@@YA?A_TABQAH@Z 10015d50 f i Branch.obj
 0001:00014d70       ??$_Get_unwrapped@ABQAPAVCBillboardLeaf@@@std@@YA?A_TABQAPAVCBillboardLeaf@@@Z 10015d70 f i Branch.obj
 0001:00014d90       ??$_Get_unwrapped@ABQAPAVCIdvBranch@@@std@@YA?A_TABQAPAVCIdvBranch@@@Z 10015d90 f i Branch.obj
 0001:00014db0       ??$_Get_unwrapped@ABQAUSIdvBranch@@@std@@YA?A_TABQAUSIdvBranch@@@Z 10015db0 f i Branch.obj
 0001:00014dd0       ??$_Get_unwrapped@ABQAUSIdvBranchFlare@@@std@@YA?A_TABQAUSIdvBranchFlare@@@Z 10015dd0 f i Branch.obj
 0001:00014df0       ??$_Get_unwrapped@ABV?$_Vector_iterator@V?$_Vector_val@U?$_Simple_types@PAVCIdvBranch@@@std@@@std@@@std@@@std@@YA?A_TABV?$_Vector_iterator@V?$_Vector_val@U?$_Simple_types@PAVCIdvBranch@@@std@@@std@@@0@@Z 10015df0 f i Branch.obj
 0001:00014e30       ??$_Guess_median_unchecked@PAPAVCIdvBranch@@VCBranchVolumeSorter@@@std@@YAXPAPAVCIdvBranch@@00VCBranchVolumeSorter@@@Z 10015e30 f i Branch.obj
 0001:00014f90       ??$_Insertion_sort_unchecked@PAPAVCIdvBranch@@VCBranchVolumeSorter@@@std@@YAPAPAVCIdvBranch@@QAPAV1@0VCBranchVolumeSorter@@@Z 10015f90 f i Branch.obj
 0001:00015130       ??$_Make_heap_unchecked@PAPAVCIdvBranch@@VCBranchVolumeSorter@@@std@@YAXPAPAVCIdvBranch@@0VCBranchVolumeSorter@@@Z 10016130 f i Branch.obj
 0001:00015220       ??$_Med3_unchecked@PAPAVCIdvBranch@@VCBranchVolumeSorter@@@std@@YAXPAPAVCIdvBranch@@00VCBranchVolumeSorter@@@Z 10016220 f i Branch.obj
 0001:00015300       ??$_Move_backward_unchecked@PAPAVCIdvBranch@@PAPAV1@@std@@YAPAPAVCIdvBranch@@PAPAV1@00@Z 10016300 f i Branch.obj
 0001:00015390       ??$_Next_iter@PAPAVCIdvBranch@@@std@@YAPAPAVCIdvBranch@@PAPAV1@@Z 10016390 f i Branch.obj
 0001:000153c0       ??$_Partition_by_median_guess_unchecked@PAPAVCIdvBranch@@VCBranchVolumeSorter@@@std@@YA?AU?$pair@PAPAVCIdvBranch@@PAPAV1@@0@PAPAVCIdvBranch@@0VCBranchVolumeSorter@@@Z 100163c0 f i Branch.obj
 0001:00015800       ??$_Pass_fn@VCBranchVolumeSorter@@@std@@YA?A_PAAVCBranchVolumeSorter@@@Z 10016800 f i Branch.obj
 0001:00015830       ??$_Pop_heap_hole_by_index@PAPAVCIdvBranch@@PAV1@VCBranchVolumeSorter@@@std@@YAXPAPAVCIdvBranch@@HH$$QAPAV1@VCBranchVolumeSorter@@@Z 10016830 f i Branch.obj
 0001:00015990       ??$_Pop_heap_hole_unchecked@PAPAVCIdvBranch@@PAV1@VCBranchVolumeSorter@@@std@@YAXPAPAVCIdvBranch@@00$$QAPAV1@VCBranchVolumeSorter@@@Z 10016990 f i Branch.obj
 0001:00015a20       ??$_Pop_heap_unchecked@PAPAVCIdvBranch@@VCBranchVolumeSorter@@@std@@YAXPAPAVCIdvBranch@@0VCBranchVolumeSorter@@@Z 10016a20 f i Branch.obj
 0001:00015b00       ??$_Prev_iter@PAPAVCIdvBranch@@@std@@YAPAPAVCIdvBranch@@PAPAV1@@Z 10016b00 f i Branch.obj
 0001:00015b30       ??$_Push_heap_by_index@PAPAVCIdvBranch@@PAV1@VCBranchVolumeSorter@@@std@@YAXPAPAVCIdvBranch@@HH$$QAPAV1@VCBranchVolumeSorter@@@Z 10016b30 f i Branch.obj
 0001:00015c10       ??$_Sort_heap_unchecked@PAPAVCIdvBranch@@VCBranchVolumeSorter@@@std@@YAXPAPAVCIdvBranch@@0VCBranchVolumeSorter@@@Z 10016c10 f i Branch.obj
 0001:00015c90       ??$_Sort_unchecked@PAPAVCIdvBranch@@VCBranchVolumeSorter@@@std@@YAXPAPAVCIdvBranch@@0HVCBranchVolumeSorter@@@Z 10016c90 f i Branch.obj
 0001:00015e20       ??$_To_address@PAH@std@@YA?A_PABQAH@Z 10016e20 f i Branch.obj
 0001:00015e40       ??$_To_address@PAPAVCBillboardLeaf@@@std@@YA?A_PABQAPAVCBillboardLeaf@@@Z 10016e40 f i Branch.obj
 0001:00015e60       ??$_To_address@PAPAVCIdvBranch@@@std@@YA?A_PABQAPAVCIdvBranch@@@Z 10016e60 f i Branch.obj
 0001:00015e80       ??$_To_address@PAUSIdvBranch@@@std@@YA?A_PABQAUSIdvBranch@@@Z 10016e80 f i Branch.obj
 0001:00015ea0       ??$_To_address@PAUSIdvBranchFlare@@@std@@YA?A_PABQAUSIdvBranchFlare@@@Z 10016ea0 f i Branch.obj
 0001:00015ec0       ??$_Unfancy@H@std@@YAPAHPAH@Z 10016ec0 f i Branch.obj
 0001:00015ee0       ??$_Unfancy@PAVCBillboardLeaf@@@std@@YAPAPAVCBillboardLeaf@@PAPAV1@@Z 10016ee0 f i Branch.obj
 0001:00015f00       ??$_Unfancy@PAVCIdvBranch@@@std@@YAPAPAVCIdvBranch@@PAPAV1@@Z 10016f00 f i Branch.obj
 0001:00015f20       ??$_Unfancy@USIdvBranch@@@std@@YAPAUSIdvBranch@@PAU1@@Z 10016f20 f i Branch.obj
 0001:00015f40       ??$_Unfancy@USIdvBranchFlare@@@std@@YAPAUSIdvBranchFlare@@PAU1@@Z 10016f40 f i Branch.obj
 0001:00015f60       ??$_Unfancy_maybe_null@PAVCIdvBranch@@@std@@YAPAPAVCIdvBranch@@PAPAV1@@Z 10016f60 f i Branch.obj
 0001:00015f80       ??$_Uninitialized_move@PAHV?$allocator@H@std@@@std@@YAPAHQAH0PAHAAV?$allocator@H@0@@Z 10016f80 f i Branch.obj
 0001:00016110       ??$_Uninitialized_move@PAPAVCBillboardLeaf@@V?$allocator@PAVCBillboardLeaf@@@std@@@std@@YAPAPAVCBillboardLeaf@@QAPAV1@0PAPAV1@AAV?$allocator@PAVCBillboardLeaf@@@0@@Z 10017110 f i Branch.obj
 0001:000162a0       ??$_Uninitialized_move@PAPAVCIdvBranch@@V?$allocator@PAVCIdvBranch@@@std@@@std@@YAPAPAVCIdvBranch@@QAPAV1@0PAPAV1@AAV?$allocator@PAVCIdvBranch@@@0@@Z 100172a0 f i Branch.obj
 0001:00016430       ??$_Uninitialized_move@PAUSIdvBranch@@V?$allocator@USIdvBranch@@@std@@@std@@YAPAUSIdvBranch@@QAU1@0PAU1@AAV?$allocator@USIdvBranch@@@0@@Z 10017430 f i Branch.obj
 0001:000165c0       ??$_Uninitialized_move@PAUSIdvBranchFlare@@V?$allocator@USIdvBranchFlare@@@std@@@std@@YAPAUSIdvBranchFlare@@QAU1@0PAU1@AAV?$allocator@USIdvBranchFlare@@@0@@Z 100175c0 f i Branch.obj
 0001:00016750       ??$addressof@H@std@@YAPAHAAH@Z 10017750 f i Branch.obj
 0001:00016770       ??$addressof@PAVCBillboardLeaf@@@std@@YAPAPAVCBillboardLeaf@@AAPAV1@@Z 10017770 f i Branch.obj
 0001:00016790       ??$addressof@PAVCIdvBranch@@@std@@YAPAPAVCIdvBranch@@AAPAV1@@Z 10017790 f i Branch.obj
 0001:000167b0       ??$addressof@USIdvBranch@@@std@@YAPAUSIdvBranch@@AAU1@@Z 100177b0 f i Branch.obj
 0001:000167d0       ??$addressof@USIdvBranchFlare@@@std@@YAPAUSIdvBranchFlare@@AAU1@@Z 100177d0 f i Branch.obj
 0001:000167f0       ??$addressof@V?$_Vector_val@U?$_Simple_types@PAVCIdvBranch@@@std@@@std@@@std@@YAPAV?$_Vector_val@U?$_Simple_types@PAVCIdvBranch@@@std@@@0@AAV10@@Z 100177f0 f i Branch.obj
 0001:00016810       ??$construct@HH@?$_Default_allocator_traits@V?$allocator@H@std@@@std@@SAXAAV?$allocator@H@1@QAH$$QAH@Z 10017810 f i Branch.obj
 0001:00016880       ??$construct@PAVCBillboardLeaf@@ABQAV1@@?$_Default_allocator_traits@V?$allocator@PAVCBillboardLeaf@@@std@@@std@@SAXAAV?$allocator@PAVCBillboardLeaf@@@1@QAPAVCBillboardLeaf@@ABQAV3@@Z 10017880 f i Branch.obj
 0001:000168f0       ??$construct@PAVCBillboardLeaf@@PAV1@@?$_Default_allocator_traits@V?$allocator@PAVCBillboardLeaf@@@std@@@std@@SAXAAV?$allocator@PAVCBillboardLeaf@@@1@QAPAVCBillboardLeaf@@$$QAPAV3@@Z 100178f0 f i Branch.obj
 0001:00016960       ??$construct@PAVCIdvBranch@@PAV1@@?$_Default_allocator_traits@V?$allocator@PAVCIdvBranch@@@std@@@std@@SAXAAV?$allocator@PAVCIdvBranch@@@1@QAPAVCIdvBranch@@$$QAPAV3@@Z 10017960 f i Branch.obj
 0001:000169d0       ??$construct@USIdvBranch@@ABU1@@?$_Default_allocator_traits@V?$allocator@USIdvBranch@@@std@@@std@@SAXAAV?$allocator@USIdvBranch@@@1@QAUSIdvBranch@@ABU3@@Z 100179d0 f i Branch.obj
 0001:00016a50       ??$construct@USIdvBranch@@U1@@?$_Default_allocator_traits@V?$allocator@USIdvBranch@@@std@@@std@@SAXAAV?$allocator@USIdvBranch@@@1@QAUSIdvBranch@@$$QAU3@@Z 10017a50 f i Branch.obj
 0001:00016ad0       ??$construct@USIdvBranchFlare@@ABU1@@?$_Default_allocator_traits@V?$allocator@USIdvBranchFlare@@@std@@@std@@SAXAAV?$allocator@USIdvBranchFlare@@@1@QAUSIdvBranchFlare@@ABU3@@Z 10017ad0 f i Branch.obj
 0001:00016b70       ??$construct@USIdvBranchFlare@@U1@@?$_Default_allocator_traits@V?$allocator@USIdvBranchFlare@@@std@@@std@@SAXAAV?$allocator@USIdvBranchFlare@@@1@QAUSIdvBranchFlare@@$$QAU3@@Z 10017b70 f i Branch.obj
 0001:00016c10       ??$endl@DU?$char_traits@D@std@@@std@@YAAAV?$basic_ostream@DU?$char_traits@D@std@@@0@AAV10@@Z 10017c10 f i Branch.obj
 0001:00016cb0       ??$exchange@PAU_Container_proxy@std@@$$T@std@@YAPAU_Container_proxy@0@AAPAU10@$$QA$$T@Z 10017cb0 f i Branch.obj
 0001:00016cf0       ??$forward@AAPAPAVCIdvBranch@@@std@@YAAAPAPAVCIdvBranch@@AAPAPAV1@@Z 10017cf0 f i Branch.obj
 0001:00016d10       ??$forward@ABQAVCBillboardLeaf@@@std@@YAABQAVCBillboardLeaf@@ABQAV1@@Z 10017d10 f i Branch.obj
 0001:00016d30       ??$forward@ABUSIdvBranch@@@std@@YAABUSIdvBranch@@ABU1@@Z 10017d30 f i Branch.obj
 0001:00016d50       ??$forward@ABUSIdvBranchFlare@@@std@@YAABUSIdvBranchFlare@@ABU1@@Z 10017d50 f i Branch.obj
 0001:00016d70       ??$forward@H@std@@YA$$QAHAAH@Z 10017d70 f i Branch.obj
 0001:00016d90       ??$forward@PAVCBillboardLeaf@@@std@@YA$$QAPAVCBillboardLeaf@@AAPAV1@@Z 10017d90 f i Branch.obj
 0001:00016db0       ??$forward@PAVCIdvBranch@@@std@@YA$$QAPAVCIdvBranch@@AAPAV1@@Z 10017db0 f i Branch.obj
 0001:00016dd0       ??$forward@USIdvBranch@@@std@@YA$$QAUSIdvBranch@@AAU1@@Z 10017dd0 f i Branch.obj
 0001:00016df0       ??$forward@USIdvBranchFlare@@@std@@YA$$QAUSIdvBranchFlare@@AAU1@@Z 10017df0 f i Branch.obj
 0001:00016e10       ??$move@AAH@std@@YA$$QAHAAH@Z 10017e10 f i Branch.obj
 0001:00016e30       ??$move@AAPAVCBillboardLeaf@@@std@@YA$$QAPAVCBillboardLeaf@@AAPAV1@@Z 10017e30 f i Branch.obj
 0001:00016e50       ??$move@AAPAVCIdvBranch@@@std@@YA$$QAPAVCIdvBranch@@AAPAV1@@Z 10017e50 f i Branch.obj
 0001:00016e70       ??$move@AAUSIdvBranch@@@std@@YA$$QAUSIdvBranch@@AAU1@@Z 10017e70 f i Branch.obj
 0001:00016e90       ??$move@AAUSIdvBranchFlare@@@std@@YA$$QAUSIdvBranchFlare@@AAU1@@Z 10017e90 f i Branch.obj
 0001:00016eb0       ??$sort@V?$_Vector_iterator@V?$_Vector_val@U?$_Simple_types@PAVCIdvBranch@@@std@@@std@@@std@@VCBranchVolumeSorter@@@std@@YAXV?$_Vector_iterator@V?$_Vector_val@U?$_Simple_types@PAVCIdvBranch@@@std@@@std@@@0@0VCBranchVolumeSorter@@@Z 10017eb0 f i Branch.obj
 0001:00016fd0       ??$swap@PAVCIdvBranch@@$0A@@std@@YAXAAPAVCIdvBranch@@0@Z 10017fd0 f i Branch.obj
 0001:00017090       ??0?$_Uninitialized_backout_al@V?$allocator@H@std@@@std@@QAE@PAHAAV?$allocator@H@1@@Z 10018090 f i Branch.obj
 0001:000170e0       ??0?$_Uninitialized_backout_al@V?$allocator@PAVCBillboardLeaf@@@std@@@std@@QAE@PAPAVCBillboardLeaf@@AAV?$allocator@PAVCBillboardLeaf@@@1@@Z 100180e0 f i Branch.obj
 0001:00017130       ??0?$_Uninitialized_backout_al@V?$allocator@PAVCIdvBranch@@@std@@@std@@QAE@PAPAVCIdvBranch@@AAV?$allocator@PAVCIdvBranch@@@1@@Z 10018130 f i Branch.obj
 0001:00017180       ??0?$_Uninitialized_backout_al@V?$allocator@USIdvBranch@@@std@@@std@@QAE@PAUSIdvBranch@@AAV?$allocator@USIdvBranch@@@1@@Z 10018180 f i Branch.obj
 0001:000171d0       ??0?$_Uninitialized_backout_al@V?$allocator@USIdvBranchFlare@@@std@@@std@@QAE@PAUSIdvBranchFlare@@AAV?$allocator@USIdvBranchFlare@@@1@@Z 100181d0 f i Branch.obj
 0001:00017220       ??0?$_Vector_const_iterator@V?$_Vector_val@U?$_Simple_types@PAVCIdvBranch@@@std@@@std@@@std@@QAE@PAPAVCIdvBranch@@PBU_Container_base12@1@@Z 10018220 f i Branch.obj
 0001:00017290       ??0?$_Vector_iterator@V?$_Vector_val@U?$_Simple_types@PAVCIdvBranch@@@std@@@std@@@std@@QAE@PAPAVCIdvBranch@@PBU_Container_base12@1@@Z 10018290 f i Branch.obj
 0001:000172f0       ??0?$_Vector_val@U?$_Simple_types@H@std@@@std@@QAE@XZ 100182f0 f i Branch.obj
 0001:00017370       ??0?$_Vector_val@U?$_Simple_types@PAVCBillboardLeaf@@@std@@@std@@QAE@XZ 10018370 f i Branch.obj
 0001:000173f0       ??0?$_Vector_val@U?$_Simple_types@PBUSIdvBranchInfo@@@std@@@std@@QAE@XZ 100183f0 f i Branch.obj
 0001:00017470       ??0?$_Vector_val@U?$_Simple_types@USIdvBranch@@@std@@@std@@QAE@XZ 10018470 f i Branch.obj
 0001:000174f0       ??0?$_Vector_val@U?$_Simple_types@USIdvBranchFlare@@@std@@@std@@QAE@XZ 100184f0 f i Branch.obj
 0001:00017570       ??0?$allocator@H@std@@QAE@XZ 10018570 f i Branch.obj
 0001:00017590       ??0?$allocator@PAVCBillboardLeaf@@@std@@QAE@XZ 10018590 f i Branch.obj
 0001:000175b0       ??0?$allocator@PBUSIdvBranchInfo@@@std@@QAE@XZ 100185b0 f i Branch.obj
 0001:000175d0       ??0?$allocator@USIdvBranch@@@std@@QAE@XZ 100185d0 f i Branch.obj
 0001:000175f0       ??0?$allocator@USIdvBranchFlare@@@std@@QAE@XZ 100185f0 f i Branch.obj
 0001:00017610       ??0?$vector@HV?$allocator@H@std@@@std@@QAE@XZ 10018610 f i Branch.obj
 0001:000176d0       ??0?$vector@PAVCBillboardLeaf@@V?$allocator@PAVCBillboardLeaf@@@std@@@std@@QAE@XZ 100186d0 f i Branch.obj
 0001:00017790       ??0?$vector@PBUSIdvBranchInfo@@V?$allocator@PBUSIdvBranchInfo@@@std@@@std@@QAE@XZ 10018790 f i Branch.obj
 0001:00017850       ??0?$vector@USIdvBranch@@V?$allocator@USIdvBranch@@@std@@@std@@QAE@XZ 10018850 f i Branch.obj
 0001:00017910       ??0?$vector@USIdvBranchFlare@@V?$allocator@USIdvBranchFlare@@@std@@@std@@QAE@XZ 10018910 f i Branch.obj
 0001:000179d0       ??0CIdvBranch@@QAE@PAV0@@Z 100189d0 f   Branch.obj
 0001:00017aa0       ??0CRotTransform@@QAE@XZ   10018aa0 f i Branch.obj
 0001:00017c00       ??0SIdvBranch@@QAE@XZ      10018c00 f i Branch.obj
 0001:00017c50       ??0SIdvBranchFlare@@QAE@XZ 10018c50 f i Branch.obj
 0001:00017cd0       ??0SIdvBranchVertex@@QAE@XZ 10018cd0 f i Branch.obj
 0001:00017d40       ??0_Iterator_base12@std@@QAE@XZ 10018d40 f i Branch.obj
 0001:00017d80       ??0_Sentry_base@?$basic_ostream@DU?$char_traits@D@std@@@std@@QAE@AAV12@@Z 10018d80 f i Branch.obj
 0001:00017e30       ??0sentry@?$basic_ostream@DU?$char_traits@D@std@@@std@@QAE@AAV12@@Z 10018e30 f i Branch.obj
 0001:00017f90       ??1?$_Uninitialized_backout_al@V?$allocator@H@std@@@std@@QAE@XZ 10018f90 f i Branch.obj
 0001:00018000       ??1?$_Uninitialized_backout_al@V?$allocator@PAVCBillboardLeaf@@@std@@@std@@QAE@XZ 10019000 f i Branch.obj
 0001:00018070       ??1?$_Uninitialized_backout_al@V?$allocator@PAVCIdvBranch@@@std@@@std@@QAE@XZ 10019070 f i Branch.obj
 0001:000180e0       ??1?$_Uninitialized_backout_al@V?$allocator@USIdvBranch@@@std@@@std@@QAE@XZ 100190e0 f i Branch.obj
 0001:00018150       ??1?$_Uninitialized_backout_al@V?$allocator@USIdvBranchFlare@@@std@@@std@@QAE@XZ 10019150 f i Branch.obj
 0001:000181c0       ??1?$_Vector_const_iterator@V?$_Vector_val@U?$_Simple_types@PAVCIdvBranch@@@std@@@std@@@std@@QAE@XZ 100191c0 f i Branch.obj
 0001:00018210       ??1?$_Vector_iterator@V?$_Vector_val@U?$_Simple_types@PAVCIdvBranch@@@std@@@std@@@std@@QAE@XZ 10019210 f i Branch.obj
 0001:00018260       ??1?$vector@HV?$allocator@H@std@@@std@@QAE@XZ 10019260 f i Branch.obj
 0001:00018340       ??1?$vector@PAVCBillboardLeaf@@V?$allocator@PAVCBillboardLeaf@@@std@@@std@@QAE@XZ 10019340 f i Branch.obj
 0001:00018420       ??1?$vector@PBUSIdvBranchInfo@@V?$allocator@PBUSIdvBranchInfo@@@std@@@std@@QAE@XZ 10019420 f i Branch.obj
 0001:00018500       ??1?$vector@USIdvBranch@@V?$allocator@USIdvBranch@@@std@@@std@@QAE@XZ 10019500 f i Branch.obj
 0001:000185e0       ??1?$vector@USIdvBranchFlare@@V?$allocator@USIdvBranchFlare@@@std@@@std@@QAE@XZ 100195e0 f i Branch.obj
 0001:000186c0       ??1CIdvBranch@@QAE@XZ      100196c0 f   Branch.obj
 0001:000187f0       ??1_Iterator_base12@std@@QAE@XZ 100197f0 f i Branch.obj
 0001:00018840       ??1_Sentry_base@?$basic_ostream@DU?$char_traits@D@std@@@std@@QAE@XZ 10019840 f i Branch.obj
 0001:00018920       ??1sentry@?$basic_ostream@DU?$char_traits@D@std@@@std@@QAE@XZ 10019920 f i Branch.obj
 0001:000189c0       ??A?$vector@HV?$allocator@H@std@@@std@@QAEAAHI@Z 100199c0 f i Branch.obj
 0001:00018ab0       ??A?$vector@PAVCBillboardLeaf@@V?$allocator@PAVCBillboardLeaf@@@std@@@std@@QBEABQAVCBillboardLeaf@@I@Z 10019ab0 f i Branch.obj
 0001:00018ba0       ??A?$vector@PBUSIdvBranchInfo@@V?$allocator@PBUSIdvBranchInfo@@@std@@@std@@QAEAAPBUSIdvBranchInfo@@I@Z 10019ba0 f i Branch.obj
 0001:00018c90       ??A?$vector@USIdvBranch@@V?$allocator@USIdvBranch@@@std@@@std@@QAEAAUSIdvBranch@@I@Z 10019c90 f i Branch.obj
 0001:00018d90       ??A?$vector@USIdvBranchFlare@@V?$allocator@USIdvBranchFlare@@@std@@@std@@QBEABUSIdvBranchFlare@@I@Z 10019d90 f i Branch.obj
 0001:00018e90       ??A?$vector@USIdvLeafTexture@@V?$allocator@USIdvLeafTexture@@@std@@@std@@QAEAAUSIdvLeafTexture@@I@Z 10019e90 f i Branch.obj
 0001:00018f90       ??BCVec3@@QAEPAMXZ         10019f90 f i Branch.obj
 0001:00018fc0       ??BCVec3@@QBEPBMXZ         10019fc0 f i Branch.obj
 0001:00018ff0       ??Bsentry@?$basic_ostream@DU?$char_traits@D@std@@@std@@QBE_NXZ 10019ff0 f i Branch.obj
 0001:00019020       ??DCRotTransform@@QBE?AV0@ABV0@@Z 1001a020 f i Branch.obj
 0001:00019870       ??DCRotTransform@@QBE?AVCVec3@@ABV1@@Z 1001a870 f i Branch.obj
 0001:00019ab0       ??DCVec3@@QBE?AV0@ABV0@@Z  1001aab0 f i Branch.obj
 0001:00019c20       ??DCVec3@@QBE?AV0@ABVCRotTransform@@@Z 1001ac20 f i Branch.obj
 0001:00019e60       ??HCVec3@@QBE?AV0@ABV0@@Z  1001ae60 f i Branch.obj
 0001:00019f40       ??RCBranchVolumeSorter@@QAE_NPBVCIdvBranch@@0@Z 1001af40 f i Branch.obj
 0001:0001a000       ??_GCIdvBranch@@QAEPAXI@Z  1001b000 f i Branch.obj
 0001:0001a070       ??_H@YGXPAXIIP6EPAX0@Z@Z   1001b070 f i Branch.obj
 0001:0001a120       ?AdvanceStripCounter@CIndexedGeometry@@QAEXXZ 1001b120 f i Branch.obj
 0001:0001a160       ?AdvanceVertexCounter@CIndexedGeometry@@QAEXXZ 1001b160 f i Branch.obj
 0001:0001a1a0       ?BuildBlossomVectors@CIdvBranch@@AAEXXZ 1001b1a0 f   Branch.obj
 0001:0001a2f0       ?BuildBranchVector@CIdvBranch@@QAEXAAV?$vector@PAVCIdvBranch@@V?$allocator@PAVCIdvBranch@@@std@@@std@@@Z 1001b2f0 f   Branch.obj
 0001:0001a3b0       ?BuildCrossSection@CIdvBranch@@ABEXPBUSIdvBranchVertex@@MHPAVCIndexedGeometry@@ABVCVec3@@MHM@Z 1001b3b0 f   Branch.obj
 0001:0001ae00       ?ClearBranchInfo@CIdvBranch@@SAXXZ 1001be00 f i Branch.obj
 0001:0001ae50       ?Compute@CIdvBranch@@QAEXIMHABVCVec3@@MABVCRotTransform@@0PAVCIndexedGeometry@@AAV?$vector@PAVCBillboardLeaf@@V?$allocator@PAVCBillboardLeaf@@@std@@@std@@MHM@Z 1001be50 f   Branch.obj
 0001:0001cb20       ?ComputeBranchNormals@CIdvBranch@@AAEXPAVCIndexedGeometry@@G@Z 1001db20 f   Branch.obj
 0001:0001cfe0       ?ComputeBud@CIdvBranch@@QBEXPBV1@MHABVCVec3@@MABVCRotTransform@@1AAV?$vector@PAVCBillboardLeaf@@V?$allocator@PAVCBillboardLeaf@@@std@@@std@@MH@Z 1001dfe0 f   Branch.obj
 0001:0001d590       ?ComputeFlareEntries@CIdvBranch@@AAEXABUSIdvBranchInfo@@@Z 1001e590 f   Branch.obj
 0001:0001d840       ?ComputeHighLevelVertexWeight@CIdvBranch@@AAEMMM@Z 1001e840 f   Branch.obj
 0001:0001d8c0       ?ComputeLod@CIdvBranch@@QBEXHPAVCIndexedGeometry@@@Z 1001e8c0 f   Branch.obj
 0001:0001dc30       ?ComputeVertexWeight@CIdvBranch@@AAEMHMM@Z 1001ec30 f   Branch.obj
 0001:0001dc90       ?ComputeVolume@CIdvBranch@@AAEXXZ 1001ec90 f   Branch.obj
 0001:0001dda0       ?Distance@CVec3@@QBEMABV1@@Z 1001eda0 f i Branch.obj
 0001:0001df00       ?Distance@SIdvBranchFlare@@QBEMMM@Z 1001ef00 f i Branch.obj
 0001:0001e0f0       ?FillBranch@CIdvBranch@@ABEXAAUSIdvBranch@@M@Z 1001f0f0 f   Branch.obj
 0001:0001e1f0       ?GetAngleProfile@SIdvBranchInfo@@QBEPBVCIdvBezierSpline@@XZ 1001f1f0 f i Branch.obj
 0001:0001e220       ?GetBranchLightingMethod@CLightingEngine@@QBE?AW4ELightingMethod@CSpeedTreeRT@@XZ 1001f220 f i Branch.obj
 0001:0001e250       ?GetDisturbance@SIdvBranchInfo@@QBEPBVCIdvBezierSpline@@XZ 1001f250 f i Branch.obj
 0001:0001e280       ?GetFlexibility@SIdvBranchInfo@@QBEPBVCIdvBezierSpline@@XZ 1001f280 f i Branch.obj
 0001:0001e2b0       ?GetFlexibilityScale@SIdvBranchInfo@@QBEPBVCIdvBezierSpline@@XZ 1001f2b0 f i Branch.obj
 0001:0001e2e0       ?GetFuzzyVolume@CIdvBranch@@QBEMXZ 1001f2e0 f i Branch.obj
 0001:0001e310       ?GetGravity@SIdvBranchInfo@@QBEPBVCIdvBezierSpline@@XZ 1001f310 f i Branch.obj
 0001:0001e340       ?GetLeafLightingMethod@CLightingEngine@@QBE?AW4ELightingMethod@CSpeedTreeRT@@XZ 1001f340 f i Branch.obj
 0001:0001e370       ?GetLength@SIdvBranchInfo@@QBEPBVCIdvBezierSpline@@XZ 1001f370 f i Branch.obj
 0001:0001e3a0       ?GetParent@CIdvBranch@@QBEPBV1@XZ 1001f3a0 f i Branch.obj
 0001:0001e3d0       ?GetPercentOfParent@CIdvBranch@@ABEMXZ 1001f3d0 f i Branch.obj
 0001:0001e400       ?GetRadius@SIdvBranchInfo@@QBEPBVCIdvBezierSpline@@XZ 1001f400 f i Branch.obj
 0001:0001e430       ?GetRadiusScale@SIdvBranchInfo@@QBEPBVCIdvBezierSpline@@XZ 1001f430 f i Branch.obj
 0001:0001e500       ?GetStartAngle@SIdvBranchInfo@@QBEPBVCIdvBezierSpline@@XZ 1001f500 f i Branch.obj
 0001:0001e530       ?GetVertexCounter@CIndexedGeometry@@QAEGXZ 1001f530 f i Branch.obj
 0001:0001e560       ?IsBlossom@CIdvBranch@@ABE_NPBV1@M@Z 1001f560 f   Branch.obj
 0001:0001e6a0       ?IsVertexWeightingEnabled@CIndexedGeometry@@QBE_NXZ 1001f6a0 f i Branch.obj
 0001:0001e6d0       ?Magnitude@CVec3@@QBEMXZ   1001f6d0 f i Branch.obj
 0001:0001e7b0       ?MakeLeaf@CIdvBranch@@ABEXABVCVec3@@MPBV1@00MHAAV?$vector@PAVCBillboardLeaf@@V?$allocator@PAVCBillboardLeaf@@@std@@@std@@@Z 1001f7b0 f   Branch.obj
 0001:0001f210       ?Parse@CIdvBranch@@SAXAAVCTreeFileAccess@@@Z 10020210 f   Branch.obj
 0001:0001f740       ?ParseBool@CTreeFileAccess@@QAE_NXZ 10020740 f i Branch.obj
 0001:0001f7f0       ?ParseBranchParameter@CTreeFileAccess@@QAEPAVCIdvBezierSpline@@XZ 100207f0 f i Branch.obj
 0001:0001f980       ?RoomForLeaf@CIdvBranch@@ABE_NABVCVec3@@HABV?$vector@PAVCBillboardLeaf@@V?$allocator@PAVCBillboardLeaf@@@std@@@std@@@Z 10020980 f   Branch.obj
 0001:0001fcc0       ?RotateAxis@CRotTransform@@QAEXMVCVec3@@@Z 10020cc0 f i Branch.obj
 0001:00020070       ?RotateAxisFromIdentity@CRotTransform@@QAEXMVCVec3@@@Z 10021070 f i Branch.obj
 0001:00020390       ?RotateY@CRotTransform@@QAEXM@Z 10021390 f i Branch.obj
 0001:00020600       ?RotateYZ@CRotTransform@@QAEXMM@Z 10021600 f i Branch.obj
 0001:000208e0       ?Set@CVec3@@QAEXMMM@Z      100218e0 f i Branch.obj
 0001:00020950       ?SetBinormal@CBillboardLeaf@@QAEXABVCVec3@@@Z 10021950 f i Branch.obj
 0001:00020990       ?SetNormal@CBillboardLeaf@@QAEXABVCVec3@@@Z 10021990 f i Branch.obj
 0001:000209d0       ?SetTangent@CBillboardLeaf@@QAEXABVCVec3@@@Z 100219d0 f i Branch.obj
 0001:00020a10       ?SetTextureIndex@CBillboardLeaf@@QAEXH@Z 10021a10 f i Branch.obj
 0001:00020a40       ?SetVertexCounter@CIndexedGeometry@@QAEXG@Z 10021a40 f i Branch.obj
 0001:00020a70       ?SortBranchVector@CIdvBranch@@SAXAAV?$vector@PAVCIdvBranch@@V?$allocator@PAVCIdvBranch@@@std@@@std@@@Z 10021a70 f   Branch.obj
 0001:00020af0       ?VecDeg2Rad@@YAMM@Z        10021af0 f i Branch.obj
 0001:00020b30       ?VecInterpolate@@YA?AVCVec3@@ABV1@0M@Z 10021b30 f i Branch.obj
 0001:00020bd0       ?VecRad2Deg@@YAMM@Z        10021bd0 f i Branch.obj
 0001:00020c10       ?_Adopt@_Iterator_base12@std@@QAEXPBU_Container_base12@2@@Z 10021c10 f i Branch.obj
 0001:00020c70       ?_Adopt_locked@_Iterator_base12@std@@AAEXPBU_Container_base12@2@@Z 10021c70 f i Branch.obj
 0001:00020d30       ?_Adopt_unlocked@_Iterator_base12@std@@AAEXPBU_Container_base12@2@@Z 10021d30 f i Branch.obj
 0001:00020de0       ?_Calculate_growth@?$vector@HV?$allocator@H@std@@@std@@ABEII@Z 10021de0 f i Branch.obj
 0001:00020e80       ?_Calculate_growth@?$vector@PAVCBillboardLeaf@@V?$allocator@PAVCBillboardLeaf@@@std@@@std@@ABEII@Z 10021e80 f i Branch.obj
 0001:00020f20       ?_Calculate_growth@?$vector@PAVCIdvBranch@@V?$allocator@PAVCIdvBranch@@@std@@@std@@ABEII@Z 10021f20 f i Branch.obj
 0001:00020fc0       ?_Calculate_growth@?$vector@USIdvBranch@@V?$allocator@USIdvBranch@@@std@@@std@@ABEII@Z 10021fc0 f i Branch.obj
 0001:00021060       ?_Calculate_growth@?$vector@USIdvBranchFlare@@V?$allocator@USIdvBranchFlare@@@std@@@std@@ABEII@Z 10022060 f i Branch.obj
 0001:00021100       ?_Change_array@?$vector@HV?$allocator@H@std@@@std@@AAEXQAHII@Z 10022100 f i Branch.obj
 0001:00021200       ?_Change_array@?$vector@PAVCBillboardLeaf@@V?$allocator@PAVCBillboardLeaf@@@std@@@std@@AAEXQAPAVCBillboardLeaf@@II@Z 10022200 f i Branch.obj
 0001:00021300       ?_Change_array@?$vector@PAVCIdvBranch@@V?$allocator@PAVCIdvBranch@@@std@@@std@@AAEXQAPAVCIdvBranch@@II@Z 10022300 f i Branch.obj
 0001:00021400       ?_Change_array@?$vector@USIdvBranch@@V?$allocator@USIdvBranch@@@std@@@std@@AAEXQAUSIdvBranch@@II@Z 10022400 f i Branch.obj
 0001:00021500       ?_Change_array@?$vector@USIdvBranchFlare@@V?$allocator@USIdvBranchFlare@@@std@@@std@@AAEXQAUSIdvBranchFlare@@II@Z 10022500 f i Branch.obj
 0001:00021600       ?_Get_first@?$_Compressed_pair@V?$allocator@H@std@@V?$_Vector_val@U?$_Simple_types@H@std@@@2@$00@std@@QAEAAV?$allocator@H@2@XZ 10022600 f i Branch.obj
 0001:00021620       ?_Get_first@?$_Compressed_pair@V?$allocator@H@std@@V?$_Vector_val@U?$_Simple_types@H@std@@@2@$00@std@@QBEABV?$allocator@H@2@XZ 10022620 f i Branch.obj
 0001:00021640       ?_Get_first@?$_Compressed_pair@V?$allocator@PAVCBillboardLeaf@@@std@@V?$_Vector_val@U?$_Simple_types@PAVCBillboardLeaf@@@std@@@2@$00@std@@QAEAAV?$allocator@PAVCBillboardLeaf@@@2@XZ 10022640 f i Branch.obj
 0001:00021660       ?_Get_first@?$_Compressed_pair@V?$allocator@PAVCBillboardLeaf@@@std@@V?$_Vector_val@U?$_Simple_types@PAVCBillboardLeaf@@@std@@@2@$00@std@@QBEABV?$allocator@PAVCBillboardLeaf@@@2@XZ 10022660 f i Branch.obj
 0001:00021680       ?_Get_first@?$_Compressed_pair@V?$allocator@PAVCIdvBranch@@@std@@V?$_Vector_val@U?$_Simple_types@PAVCIdvBranch@@@std@@@2@$00@std@@QAEAAV?$allocator@PAVCIdvBranch@@@2@XZ 10022680 f i Branch.obj
 0001:000216a0       ?_Get_first@?$_Compressed_pair@V?$allocator@PAVCIdvBranch@@@std@@V?$_Vector_val@U?$_Simple_types@PAVCIdvBranch@@@std@@@2@$00@std@@QBEABV?$allocator@PAVCIdvBranch@@@2@XZ 100226a0 f i Branch.obj
 0001:000216c0       ?_Get_first@?$_Compressed_pair@V?$allocator@PBUSIdvBranchInfo@@@std@@V?$_Vector_val@U?$_Simple_types@PBUSIdvBranchInfo@@@std@@@2@$00@std@@QAEAAV?$allocator@PBUSIdvBranchInfo@@@2@XZ 100226c0 f i Branch.obj
 0001:000216e0       ?_Get_first@?$_Compressed_pair@V?$allocator@USIdvBranch@@@std@@V?$_Vector_val@U?$_Simple_types@USIdvBranch@@@std@@@2@$00@std@@QAEAAV?$allocator@USIdvBranch@@@2@XZ 100226e0 f i Branch.obj
 0001:00021700       ?_Get_first@?$_Compressed_pair@V?$allocator@USIdvBranch@@@std@@V?$_Vector_val@U?$_Simple_types@USIdvBranch@@@std@@@2@$00@std@@QBEABV?$allocator@USIdvBranch@@@2@XZ 10022700 f i Branch.obj
 0001:00021720       ?_Get_first@?$_Compressed_pair@V?$allocator@USIdvBranchFlare@@@std@@V?$_Vector_val@U?$_Simple_types@USIdvBranchFlare@@@std@@@2@$00@std@@QAEAAV?$allocator@USIdvBranchFlare@@@2@XZ 10022720 f i Branch.obj
 0001:00021740       ?_Get_first@?$_Compressed_pair@V?$allocator@USIdvBranchFlare@@@std@@V?$_Vector_val@U?$_Simple_types@USIdvBranchFlare@@@std@@@2@$00@std@@QBEABV?$allocator@USIdvBranchFlare@@@2@XZ 10022740 f i Branch.obj
 0001:00021760       ?_Getal@?$vector@HV?$allocator@H@std@@@std@@AAEAAV?$allocator@H@2@XZ 10022760 f i Branch.obj
 0001:000217b0       ?_Getal@?$vector@HV?$allocator@H@std@@@std@@ABEABV?$allocator@H@2@XZ 100227b0 f i Branch.obj
 0001:00021800       ?_Getal@?$vector@PAVCBillboardLeaf@@V?$allocator@PAVCBillboardLeaf@@@std@@@std@@AAEAAV?$allocator@PAVCBillboardLeaf@@@2@XZ 10022800 f i Branch.obj
 0001:00021850       ?_Getal@?$vector@PAVCBillboardLeaf@@V?$allocator@PAVCBillboardLeaf@@@std@@@std@@ABEABV?$allocator@PAVCBillboardLeaf@@@2@XZ 10022850 f i Branch.obj
 0001:000218a0       ?_Getal@?$vector@PAVCIdvBranch@@V?$allocator@PAVCIdvBranch@@@std@@@std@@AAEAAV?$allocator@PAVCIdvBranch@@@2@XZ 100228a0 f i Branch.obj
 0001:000218f0       ?_Getal@?$vector@PAVCIdvBranch@@V?$allocator@PAVCIdvBranch@@@std@@@std@@ABEABV?$allocator@PAVCIdvBranch@@@2@XZ 100228f0 f i Branch.obj
 0001:00021940       ?_Getal@?$vector@PBUSIdvBranchInfo@@V?$allocator@PBUSIdvBranchInfo@@@std@@@std@@AAEAAV?$allocator@PBUSIdvBranchInfo@@@2@XZ 10022940 f i Branch.obj
 0001:00021990       ?_Getal@?$vector@USIdvBranch@@V?$allocator@USIdvBranch@@@std@@@std@@AAEAAV?$allocator@USIdvBranch@@@2@XZ 10022990 f i Branch.obj
 0001:000219e0       ?_Getal@?$vector@USIdvBranch@@V?$allocator@USIdvBranch@@@std@@@std@@ABEABV?$allocator@USIdvBranch@@@2@XZ 100229e0 f i Branch.obj
 0001:00021a30       ?_Getal@?$vector@USIdvBranchFlare@@V?$allocator@USIdvBranchFlare@@@std@@@std@@AAEAAV?$allocator@USIdvBranchFlare@@@2@XZ 10022a30 f i Branch.obj
 0001:00021a80       ?_Getal@?$vector@USIdvBranchFlare@@V?$allocator@USIdvBranchFlare@@@std@@@std@@ABEABV?$allocator@USIdvBranchFlare@@@2@XZ 10022a80 f i Branch.obj
 0001:00021ad0       ?_Getcont@_Iterator_base12@std@@QBEPBU_Container_base12@2@XZ 10022ad0 f i Branch.obj
 0001:00021b20       ?_Orphan_me_locked_v3@_Iterator_base12@std@@AAEXXZ 10022b20 f i Branch.obj
 0001:00021be0       ?_Orphan_me_unlocked_v3@_Iterator_base12@std@@AAEXXZ 10022be0 f i Branch.obj
 0001:00021d10       ?_Orphan_range@?$vector@HV?$allocator@H@std@@@std@@ABEXPAH0@Z 10022d10 f i Branch.obj
 0001:00021d70       ?_Orphan_range@?$vector@PAVCBillboardLeaf@@V?$allocator@PAVCBillboardLeaf@@@std@@@std@@ABEXPAPAVCBillboardLeaf@@0@Z 10022d70 f i Branch.obj
 0001:00021dd0       ?_Orphan_range@?$vector@PAVCIdvBranch@@V?$allocator@PAVCIdvBranch@@@std@@@std@@ABEXPAPAVCIdvBranch@@0@Z 10022dd0 f i Branch.obj
 0001:00021e30       ?_Orphan_range@?$vector@USIdvBranch@@V?$allocator@USIdvBranch@@@std@@@std@@ABEXPAUSIdvBranch@@0@Z 10022e30 f i Branch.obj
 0001:00021e90       ?_Orphan_range@?$vector@USIdvBranchFlare@@V?$allocator@USIdvBranchFlare@@@std@@@std@@ABEXPAUSIdvBranchFlare@@0@Z 10022e90 f i Branch.obj
 0001:00021ef0       ?_Orphan_range_locked@?$vector@HV?$allocator@H@std@@@std@@ABEXPAH0@Z 10022ef0 f i Branch.obj
 0001:00022000       ?_Orphan_range_locked@?$vector@PAVCBillboardLeaf@@V?$allocator@PAVCBillboardLeaf@@@std@@@std@@ABEXPAPAVCBillboardLeaf@@0@Z 10023000 f i Branch.obj
 0001:00022110       ?_Orphan_range_locked@?$vector@PAVCIdvBranch@@V?$allocator@PAVCIdvBranch@@@std@@@std@@ABEXPAPAVCIdvBranch@@0@Z 10023110 f i Branch.obj
 0001:00022220       ?_Orphan_range_locked@?$vector@USIdvBranch@@V?$allocator@USIdvBranch@@@std@@@std@@ABEXPAUSIdvBranch@@0@Z 10023220 f i Branch.obj
 0001:00022330       ?_Orphan_range_locked@?$vector@USIdvBranchFlare@@V?$allocator@USIdvBranchFlare@@@std@@@std@@ABEXPAUSIdvBranchFlare@@0@Z 10023330 f i Branch.obj
 0001:00022440       ?_Orphan_range_unlocked@?$vector@HV?$allocator@H@std@@@std@@ABEXPAH0@Z 10023440 f i Branch.obj
 0001:000224d0       ?_Orphan_range_unlocked@?$vector@PAVCBillboardLeaf@@V?$allocator@PAVCBillboardLeaf@@@std@@@std@@ABEXPAPAVCBillboardLeaf@@0@Z 100234d0 f i Branch.obj
 0001:00022560       ?_Orphan_range_unlocked@?$vector@PAVCIdvBranch@@V?$allocator@PAVCIdvBranch@@@std@@@std@@ABEXPAPAVCIdvBranch@@0@Z 10023560 f i Branch.obj
 0001:000225f0       ?_Orphan_range_unlocked@?$vector@USIdvBranch@@V?$allocator@USIdvBranch@@@std@@@std@@ABEXPAUSIdvBranch@@0@Z 100235f0 f i Branch.obj
 0001:00022680       ?_Orphan_range_unlocked@?$vector@USIdvBranchFlare@@V?$allocator@USIdvBranchFlare@@@std@@@std@@ABEXPAUSIdvBranchFlare@@0@Z 10023680 f i Branch.obj
 0001:00022710       ?_Release@?$_Uninitialized_backout_al@V?$allocator@H@std@@@std@@QAEPAHXZ 10023710 f i Branch.obj
 0001:00022740       ?_Release@?$_Uninitialized_backout_al@V?$allocator@PAVCBillboardLeaf@@@std@@@std@@QAEPAPAVCBillboardLeaf@@XZ 10023740 f i Branch.obj
 0001:00022770       ?_Release@?$_Uninitialized_backout_al@V?$allocator@PAVCIdvBranch@@@std@@@std@@QAEPAPAVCIdvBranch@@XZ 10023770 f i Branch.obj
 0001:000227a0       ?_Release@?$_Uninitialized_backout_al@V?$allocator@USIdvBranch@@@std@@@std@@QAEPAUSIdvBranch@@XZ 100237a0 f i Branch.obj
 0001:000227d0       ?_Release@?$_Uninitialized_backout_al@V?$allocator@USIdvBranchFlare@@@std@@@std@@QAEPAUSIdvBranchFlare@@XZ 100237d0 f i Branch.obj
 0001:00022800       ?_Tidy@?$vector@HV?$allocator@H@std@@@std@@AAEXXZ 10023800 f i Branch.obj
 0001:00022930       ?_Tidy@?$vector@PAVCBillboardLeaf@@V?$allocator@PAVCBillboardLeaf@@@std@@@std@@AAEXXZ 10023930 f i Branch.obj
 0001:00022a60       ?_Tidy@?$vector@PBUSIdvBranchInfo@@V?$allocator@PBUSIdvBranchInfo@@@std@@@std@@AAEXXZ 10023a60 f i Branch.obj
 0001:00022b90       ?_Tidy@?$vector@USIdvBranch@@V?$allocator@USIdvBranch@@@std@@@std@@AAEXXZ 10023b90 f i Branch.obj
 0001:00022cd0       ?_Tidy@?$vector@USIdvBranchFlare@@V?$allocator@USIdvBranchFlare@@@std@@@std@@AAEXXZ 10023cd0 f i Branch.obj
 0001:00022e10       ?_Unwrapped@?$_Vector_iterator@V?$_Vector_val@U?$_Simple_types@PAVCIdvBranch@@@std@@@std@@@std@@QBEPAPAVCIdvBranch@@XZ 10023e10 f i Branch.obj
 0001:00022e70       ?_Verify_range@std@@YAXABV?$_Vector_const_iterator@V?$_Vector_val@U?$_Simple_types@PAVCIdvBranch@@@std@@@std@@@1@0@Z 10023e70 f i Branch.obj
 0001:00022fd0       ?_Xlength@?$vector@HV?$allocator@H@std@@@std@@CAXXZ 10023fd0 f i Branch.obj
 0001:00023020       ?_Xlength@?$vector@PAVCBillboardLeaf@@V?$allocator@PAVCBillboardLeaf@@@std@@@std@@CAXXZ 10024020 f i Branch.obj
 0001:00023070       ?_Xlength@?$vector@PAVCIdvBranch@@V?$allocator@PAVCIdvBranch@@@std@@@std@@CAXXZ 10024070 f i Branch.obj
 0001:000230c0       ?_Xlength@?$vector@USIdvBranch@@V?$allocator@USIdvBranch@@@std@@@std@@CAXXZ 100240c0 f i Branch.obj
 0001:00023110       ?_Xlength@?$vector@USIdvBranchFlare@@V?$allocator@USIdvBranchFlare@@@std@@@std@@CAXXZ 10024110 f i Branch.obj
 0001:00023160       ?_idv_sqrt1@@YAMM@Z        10024160 f i Branch.obj
 0001:00023190       ?allocate@?$allocator@H@std@@QAEPAHI@Z 10024190 f i Branch.obj
 0001:000231f0       ?allocate@?$allocator@PAVCBillboardLeaf@@@std@@QAEPAPAVCBillboardLeaf@@I@Z 100241f0 f i Branch.obj
 0001:00023250       ?allocate@?$allocator@PAVCIdvBranch@@@std@@QAEPAPAVCIdvBranch@@I@Z 10024250 f i Branch.obj
 0001:000232b0       ?allocate@?$allocator@USIdvBranch@@@std@@QAEPAUSIdvBranch@@I@Z 100242b0 f i Branch.obj
 0001:00023310       ?allocate@?$allocator@USIdvBranchFlare@@@std@@QAEPAUSIdvBranchFlare@@I@Z 10024310 f i Branch.obj
 0001:00023370       ?begin@?$vector@PAVCIdvBranch@@V?$allocator@PAVCIdvBranch@@@std@@@std@@QAE?AV?$_Vector_iterator@V?$_Vector_val@U?$_Simple_types@PAVCIdvBranch@@@std@@@std@@@2@XZ 10024370 f i Branch.obj
 0001:000233f0       ?capacity@?$vector@HV?$allocator@H@std@@@std@@QBEIXZ 100243f0 f i Branch.obj
 0001:00023430       ?capacity@?$vector@PAVCBillboardLeaf@@V?$allocator@PAVCBillboardLeaf@@@std@@@std@@QBEIXZ 10024430 f i Branch.obj
 0001:00023470       ?capacity@?$vector@PAVCIdvBranch@@V?$allocator@PAVCIdvBranch@@@std@@@std@@QBEIXZ 10024470 f i Branch.obj
 0001:000234b0       ?capacity@?$vector@USIdvBranch@@V?$allocator@USIdvBranch@@@std@@@std@@QBEIXZ 100244b0 f i Branch.obj
 0001:000234f0       ?capacity@?$vector@USIdvBranchFlare@@V?$allocator@USIdvBranchFlare@@@std@@@std@@QBEIXZ 100244f0 f i Branch.obj
 0001:00023530       ?clear@?$vector@HV?$allocator@H@std@@@std@@QAEXXZ 10024530 f i Branch.obj
 0001:000235e0       ?clear@?$vector@PAVCBillboardLeaf@@V?$allocator@PAVCBillboardLeaf@@@std@@@std@@QAEXXZ 100245e0 f i Branch.obj
 0001:00023690       ?clear@?$vector@PBUSIdvBranchInfo@@V?$allocator@PBUSIdvBranchInfo@@@std@@@std@@QAEXXZ 10024690 f i Branch.obj
 0001:00023740       ?deallocate@?$allocator@H@std@@QAEXQAHI@Z 10024740 f i Branch.obj
 0001:00023830       ?deallocate@?$allocator@PAVCBillboardLeaf@@@std@@QAEXQAPAVCBillboardLeaf@@I@Z 10024830 f i Branch.obj
 0001:00023920       ?deallocate@?$allocator@PAVCIdvBranch@@@std@@QAEXQAPAVCIdvBranch@@I@Z 10024920 f i Branch.obj
 0001:00023a10       ?deallocate@?$allocator@PBUSIdvBranchInfo@@@std@@QAEXQAPBUSIdvBranchInfo@@I@Z 10024a10 f i Branch.obj
 0001:00023b00       ?deallocate@?$allocator@USIdvBranch@@@std@@QAEXQAUSIdvBranch@@I@Z 10024b00 f i Branch.obj
 0001:00023bf0       ?deallocate@?$allocator@USIdvBranchFlare@@@std@@QAEXQAUSIdvBranchFlare@@I@Z 10024bf0 f i Branch.obj
 0001:00023ce0       ?empty@?$vector@HV?$allocator@H@std@@@std@@QBE_NXZ 10024ce0 f i Branch.obj
 0001:00023d40       ?empty@?$vector@USIdvLeafTexture@@V?$allocator@USIdvLeafTexture@@@std@@@std@@QBE_NXZ 10024d40 f i Branch.obj
 0001:00023da0       ?end@?$vector@PAVCIdvBranch@@V?$allocator@PAVCIdvBranch@@@std@@@std@@QAE?AV?$_Vector_iterator@V?$_Vector_val@U?$_Simple_types@PAVCIdvBranch@@@std@@@std@@@2@XZ 10024da0 f i Branch.obj
 0001:00023e20       ?eof@?$_Narrow_char_traits@DH@std@@SAHXZ 10024e20 f i Branch.obj
 0001:00023e40       ?eq_int_type@?$_Narrow_char_traits@DH@std@@SA_NHH@Z 10024e40 f i Branch.obj
 0001:00023e90       ?max_size@?$_Default_allocator_traits@V?$allocator@H@std@@@std@@SAIABV?$allocator@H@2@@Z 10024e90 f i Branch.obj
 0001:00023eb0       ?max_size@?$_Default_allocator_traits@V?$allocator@PAVCBillboardLeaf@@@std@@@std@@SAIABV?$allocator@PAVCBillboardLeaf@@@2@@Z 10024eb0 f i Branch.obj
 0001:00023ed0       ?max_size@?$_Default_allocator_traits@V?$allocator@PAVCIdvBranch@@@std@@@std@@SAIABV?$allocator@PAVCIdvBranch@@@2@@Z 10024ed0 f i Branch.obj
 0001:00023ef0       ?max_size@?$_Default_allocator_traits@V?$allocator@USIdvBranch@@@std@@@std@@SAIABV?$allocator@USIdvBranch@@@2@@Z 10024ef0 f i Branch.obj
 0001:00023f10       ?max_size@?$_Default_allocator_traits@V?$allocator@USIdvBranchFlare@@@std@@@std@@SAIABV?$allocator@USIdvBranchFlare@@@2@@Z 10024f10 f i Branch.obj
 0001:00023f30       ?max_size@?$vector@HV?$allocator@H@std@@@std@@QBEIXZ 10024f30 f i Branch.obj
 0001:00023fc0       ?max_size@?$vector@PAVCBillboardLeaf@@V?$allocator@PAVCBillboardLeaf@@@std@@@std@@QBEIXZ 10024fc0 f i Branch.obj
 0001:00024050       ?max_size@?$vector@PAVCIdvBranch@@V?$allocator@PAVCIdvBranch@@@std@@@std@@QBEIXZ 10025050 f i Branch.obj
 0001:000240e0       ?max_size@?$vector@USIdvBranch@@V?$allocator@USIdvBranch@@@std@@@std@@QBEIXZ 100250e0 f i Branch.obj
 0001:00024170       ?max_size@?$vector@USIdvBranchFlare@@V?$allocator@USIdvBranchFlare@@@std@@@std@@QBEIXZ 10025170 f i Branch.obj
 0001:00024200       ?push_back@?$vector@HV?$allocator@H@std@@@std@@QAEX$$QAH@Z 10025200 f i Branch.obj
 0001:00024260       ?push_back@?$vector@PAVCBillboardLeaf@@V?$allocator@PAVCBillboardLeaf@@@std@@@std@@QAEXABQAVCBillboardLeaf@@@Z 10025260 f i Branch.obj
 0001:000242c0       ?push_back@?$vector@PAVCIdvBranch@@V?$allocator@PAVCIdvBranch@@@std@@@std@@QAEX$$QAPAVCIdvBranch@@@Z 100252c0 f i Branch.obj
 0001:00024320       ?push_back@?$vector@USIdvBranch@@V?$allocator@USIdvBranch@@@std@@@std@@QAEXABUSIdvBranch@@@Z 10025320 f i Branch.obj
 0001:00024380       ?push_back@?$vector@USIdvBranchFlare@@V?$allocator@USIdvBranchFlare@@@std@@@std@@QAEXABUSIdvBranchFlare@@@Z 10025380 f i Branch.obj
 0001:000243e0       ?size@?$vector@HV?$allocator@H@std@@@std@@QBEIXZ 100253e0 f i Branch.obj
 0001:00024420       ?size@?$vector@PAVCBillboardLeaf@@V?$allocator@PAVCBillboardLeaf@@@std@@@std@@QBEIXZ 10025420 f i Branch.obj
 0001:00024460       ?size@?$vector@PBUSIdvBranchInfo@@V?$allocator@PBUSIdvBranchInfo@@@std@@@std@@QBEIXZ 10025460 f i Branch.obj
 0001:000244a0       ?size@?$vector@USIdvBranch@@V?$allocator@USIdvBranch@@@std@@@std@@QBEIXZ 100254a0 f i Branch.obj
 0001:000244e0       ?size@?$vector@USIdvBranchFlare@@V?$allocator@USIdvBranchFlare@@@std@@@std@@QBEIXZ 100254e0 f i Branch.obj
 0001:00024520       ?size@?$vector@USIdvLeafTexture@@V?$allocator@USIdvLeafTexture@@@std@@@std@@QBEIXZ 10025520 f i Branch.obj
 0001:00024560       _fabsf                     10025560 f i Branch.obj
 0001:000245d0       _powf                      100255d0 f i Branch.obj
 0001:00024650       _sinf                      10025650 f i Branch.obj
 0001:000246c0       ??$_Allocate_at_least_helper@V?$allocator@M@std@@@std@@YAPAMAAV?$allocator@M@0@AAI@Z 100256c0 f i BranchInfo.obj
 0001:00024710       ??$_Allocate_at_least_helper@V?$allocator@VCVec@@@std@@@std@@YAPAVCVec@@AAV?$allocator@VCVec@@@0@AAI@Z 10025710 f i BranchInfo.obj
 0001:00024760       ??$_Assign_counted_range@PAM@?$vector@MV?$allocator@M@std@@@std@@AAEXPAMI@Z 10025760 f i BranchInfo.obj
 0001:000249a0       ??$_Assign_counted_range@PAVCVec@@@?$vector@VCVec@@V?$allocator@VCVec@@@std@@@std@@AAEXPAVCVec@@I@Z 100259a0 f i BranchInfo.obj
 0001:00024c10       ??$_Construct_in_place@EE@std@@YAXAAE$$QAE@Z 10025c10 f i BranchInfo.obj
 0001:00024c90       ??$_Copy_memmove@PAMPAM@std@@YAPAMPAM00@Z 10025c90 f i BranchInfo.obj
 0001:00024d50       ??$_Copy_memmove@PAVCVec@@PAV1@@std@@YAPAVCVec@@PAV1@00@Z 10025d50 f i BranchInfo.obj
 0001:00024e10       ??$_Copy_memmove_n@PAMPAM@std@@YAPAMPAMI0@Z 10025e10 f i BranchInfo.obj
 0001:00024e80       ??$_Copy_memmove_n@PAVCVec@@PAV1@@std@@YAPAVCVec@@PAV1@I0@Z 10025e80 f i BranchInfo.obj
 0001:00024ee0       ??$_Copy_n_unchecked4@PAMIPAM@std@@YAPAMPAMI0@Z 10025ee0 f i BranchInfo.obj
 0001:00024f70       ??$_Copy_n_unchecked4@PAVCVec@@IPAV1@@std@@YAPAVCVec@@PAV1@I0@Z 10025f70 f i BranchInfo.obj
 0001:00025030       ??$_Destroy_range@V?$allocator@M@std@@@std@@YAXPAMQAMAAV?$allocator@M@0@@Z 10026030 f i BranchInfo.obj
 0001:00025050       ??$_Destroy_range@V?$allocator@VCVec@@@std@@@std@@YAXPAVCVec@@QAV1@AAV?$allocator@VCVec@@@0@@Z 10026050 f i BranchInfo.obj
 0001:00025100       ??$_Emplace_back@AAM@?$_Uninitialized_backout_al@V?$allocator@M@std@@@std@@QAEXAAM@Z 10026100 f i BranchInfo.obj
 0001:00025190       ??$_Emplace_back@AAVCVec@@@?$_Uninitialized_backout_al@V?$allocator@VCVec@@@std@@@std@@QAEXAAVCVec@@@Z 10026190 f i BranchInfo.obj
 0001:00025220       ??$_Emplace_back_with_unused_capacity@E@?$vector@EV?$allocator@E@std@@@std@@AAEAAE$$QAE@Z 10026220 f i BranchInfo.obj
 0001:000252d0       ??$_Emplace_one_at_back@E@?$vector@EV?$allocator@E@std@@@std@@AAEAAE$$QAE@Z 100262d0 f i BranchInfo.obj
 0001:00025380       ??$_Emplace_reallocate@E@?$vector@EV?$allocator@E@std@@@std@@AAEPAEQAE$$QAE@Z 10026380 f i BranchInfo.obj
 0001:00025680       ??$_Get_unwrapped@PAM@std@@YA?A_T$$QAPAM@Z 10026680 f i BranchInfo.obj
 0001:000256a0       ??$_Get_unwrapped@PAVCVec@@@std@@YA?A_T$$QAPAVCVec@@@Z 100266a0 f i BranchInfo.obj
 0001:000256c0       ??$_Pocca@V?$allocator@M@std@@@std@@YAXAAV?$allocator@M@0@ABV10@@Z 100266c0 f i BranchInfo.obj
 0001:000256e0       ??$_Pocca@V?$allocator@VCVec@@@std@@@std@@YAXAAV?$allocator@VCVec@@@0@ABV10@@Z 100266e0 f i BranchInfo.obj
 0001:00025700       ??$_To_address@PAM@std@@YA?A_PABQAM@Z 10026700 f i BranchInfo.obj
 0001:00025720       ??$_To_address@PAVCVec@@@std@@YA?A_PABQAVCVec@@@Z 10026720 f i BranchInfo.obj
 0001:00025740       ??$_Unfancy@M@std@@YAPAMPAM@Z 10026740 f i BranchInfo.obj
 0001:00025760       ??$_Unfancy@VCVec@@@std@@YAPAVCVec@@PAV1@@Z 10026760 f i BranchInfo.obj
 0001:00025780       ??$_Uninitialized_copy_n@PAMV?$allocator@M@std@@@std@@YAPAMPAMI0AAV?$allocator@M@0@@Z 10026780 f i BranchInfo.obj
 0001:00025910       ??$_Uninitialized_copy_n@PAVCVec@@V?$allocator@VCVec@@@std@@@std@@YAPAVCVec@@PAV1@I0AAV?$allocator@VCVec@@@0@@Z 10026910 f i BranchInfo.obj
 0001:00025a60       ??$addressof@$$CBV?$vector@MV?$allocator@M@std@@@std@@@std@@YAPBV?$vector@MV?$allocator@M@std@@@0@ABV10@@Z 10026a60 f i BranchInfo.obj
 0001:00025a80       ??$addressof@$$CBV?$vector@VCVec@@V?$allocator@VCVec@@@std@@@std@@@std@@YAPBV?$vector@VCVec@@V?$allocator@VCVec@@@std@@@0@ABV10@@Z 10026a80 f i BranchInfo.obj
 0001:00025aa0       ??$construct@MAAM@?$_Default_allocator_traits@V?$allocator@M@std@@@std@@SAXAAV?$allocator@M@1@QAMAAM@Z 10026aa0 f i BranchInfo.obj
 0001:00025b10       ??$construct@VCVec@@AAV1@@?$_Default_allocator_traits@V?$allocator@VCVec@@@std@@@std@@SAXAAV?$allocator@VCVec@@@1@QAVCVec@@AAV3@@Z 10026b10 f i BranchInfo.obj
 0001:00025bb0       ??$destroy@VCVec@@@?$_Default_allocator_traits@V?$allocator@VCVec@@@std@@@std@@SAXAAV?$allocator@VCVec@@@1@QAVCVec@@@Z 10026bb0 f i BranchInfo.obj
 0001:00025c00       ??$forward@AAM@std@@YAAAMAAM@Z 10026c00 f i BranchInfo.obj
 0001:00025c20       ??$forward@AAVCVec@@@std@@YAAAVCVec@@AAV1@@Z 10026c20 f i BranchInfo.obj
 0001:00025c40       ??$move@AAPAM@std@@YA$$QAPAMAAPAM@Z 10026c40 f i BranchInfo.obj
 0001:00025c60       ??$move@AAPAVCVec@@@std@@YA$$QAPAVCVec@@AAPAV1@@Z 10026c60 f i BranchInfo.obj
 0001:00025c80       ??0?$_Uninitialized_backout_al@V?$allocator@M@std@@@std@@QAE@PAMAAV?$allocator@M@1@@Z 10026c80 f i BranchInfo.obj
 0001:00025cd0       ??0?$_Uninitialized_backout_al@V?$allocator@VCVec@@@std@@@std@@QAE@PAVCVec@@AAV?$allocator@VCVec@@@1@@Z 10026cd0 f i BranchInfo.obj
 0001:00025d20       ??0SIdvBranchInfo@@QAE@ABU0@@Z 10026d20 f   BranchInfo.obj
 0001:00025d80       ??0SIdvBranchInfo@@QAE@XZ  10026d80 f   BranchInfo.obj
 0001:000262a0       ??1?$_Uninitialized_backout_al@V?$allocator@M@std@@@std@@QAE@XZ 100272a0 f i BranchInfo.obj
 0001:00026310       ??1?$_Uninitialized_backout_al@V?$allocator@VCVec@@@std@@@std@@QAE@XZ 10027310 f i BranchInfo.obj
 0001:00026380       ??1SIdvBranchInfo@@QAE@XZ  10027380 f   BranchInfo.obj
 0001:00026680       ??4?$vector@MV?$allocator@M@std@@@std@@QAEAAV01@ABV01@@Z 10027680 f i BranchInfo.obj
 0001:00026750       ??4?$vector@VCVec@@V?$allocator@VCVec@@@std@@@std@@QAEAAV01@ABV01@@Z 10027750 f i BranchInfo.obj
 0001:00026820       ??4CIdvBezierSpline@@QAEAAV0@ABV0@@Z 10027820 f i BranchInfo.obj
 0001:00026910       ??4SIdvBranchInfo@@QAEAAU0@ABU0@@Z 10027910 f   BranchInfo.obj
 0001:00027280       ??_GCIdvBezierSpline@@QAEPAXI@Z 10028280 f i BranchInfo.obj
 0001:000272f0       ??_GCVec@@QAEPAXI@Z        100282f0 f i BranchInfo.obj
 0001:00027360       ?Parse@SIdvBranchInfo@@SAPAU1@AAVCTreeFileAccess@@@Z 10028360 f   BranchInfo.obj
 0001:000277d0       ?Save@SIdvBranchInfo@@QBEXAAVCTreeFileAccess@@@Z 100287d0 f   BranchInfo.obj
 0001:00027af0       ?SaveBool@CTreeFileAccess@@QAEX_N@Z 10028af0 f i BranchInfo.obj
 0001:00027b60       ?SaveBranchParameter@CTreeFileAccess@@QAEXPBVCIdvBezierSpline@@@Z 10028b60 f i BranchInfo.obj
 0001:00027bd0       ?SetAngleProfile@SIdvBranchInfo@@QAEXPAVCIdvBezierSpline@@@Z 10028bd0 f   BranchInfo.obj
 0001:00027c70       ?SetDisturbance@SIdvBranchInfo@@QAEXPAVCIdvBezierSpline@@@Z 10028c70 f   BranchInfo.obj
 0001:00027d10       ?SetFlexibility@SIdvBranchInfo@@QAEXPAVCIdvBezierSpline@@@Z 10028d10 f   BranchInfo.obj
 0001:00027db0       ?SetFlexibilityScale@SIdvBranchInfo@@QAEXPAVCIdvBezierSpline@@@Z 10028db0 f   BranchInfo.obj
 0001:00027e50       ?SetGravity@SIdvBranchInfo@@QAEXPAVCIdvBezierSpline@@@Z 10028e50 f   BranchInfo.obj
 0001:00027ef0       ?SetLength@SIdvBranchInfo@@QAEXPAVCIdvBezierSpline@@@Z 10028ef0 f   BranchInfo.obj
 0001:00027f90       ?SetRadius@SIdvBranchInfo@@QAEXPAVCIdvBezierSpline@@@Z 10028f90 f   BranchInfo.obj
 0001:00028030       ?SetRadiusScale@SIdvBranchInfo@@QAEXPAVCIdvBezierSpline@@@Z 10029030 f   BranchInfo.obj
 0001:000280d0       ?SetStartAngle@SIdvBranchInfo@@QAEXPAVCIdvBezierSpline@@@Z 100290d0 f   BranchInfo.obj
 0001:00028170       ?_Buy_raw@?$vector@MV?$allocator@M@std@@@std@@AAEXI@Z 10029170 f i BranchInfo.obj
 0001:00028220       ?_Buy_raw@?$vector@VCVec@@V?$allocator@VCVec@@@std@@@std@@AAEXI@Z 10029220 f i BranchInfo.obj
 0001:000282d0       ?_Calculate_growth@?$vector@MV?$allocator@M@std@@@std@@ABEII@Z 100292d0 f i BranchInfo.obj
 0001:00028370       ?_Calculate_growth@?$vector@VCVec@@V?$allocator@VCVec@@@std@@@std@@ABEII@Z 10029370 f i BranchInfo.obj
 0001:00028410       ?_Clear_and_reserve_geometric@?$vector@MV?$allocator@M@std@@@std@@AAEXI@Z 10029410 f i BranchInfo.obj
 0001:00028540       ?_Clear_and_reserve_geometric@?$vector@VCVec@@V?$allocator@VCVec@@@std@@@std@@AAEXI@Z 10029540 f i BranchInfo.obj
 0001:00028670       ?_Get_first@?$_Compressed_pair@V?$allocator@M@std@@V?$_Vector_val@U?$_Simple_types@M@std@@@2@$00@std@@QAEAAV?$allocator@M@2@XZ 10029670 f i BranchInfo.obj
 0001:00028690       ?_Get_first@?$_Compressed_pair@V?$allocator@M@std@@V?$_Vector_val@U?$_Simple_types@M@std@@@2@$00@std@@QBEABV?$allocator@M@2@XZ 10029690 f i BranchInfo.obj
 0001:000286b0       ?_Get_first@?$_Compressed_pair@V?$allocator@VCVec@@@std@@V?$_Vector_val@U?$_Simple_types@VCVec@@@std@@@2@$00@std@@QAEAAV?$allocator@VCVec@@@2@XZ 100296b0 f i BranchInfo.obj
 0001:000286d0       ?_Get_first@?$_Compressed_pair@V?$allocator@VCVec@@@std@@V?$_Vector_val@U?$_Simple_types@VCVec@@@std@@@2@$00@std@@QBEABV?$allocator@VCVec@@@2@XZ 100296d0 f i BranchInfo.obj
 0001:000286f0       ?_Getal@?$vector@MV?$allocator@M@std@@@std@@AAEAAV?$allocator@M@2@XZ 100296f0 f i BranchInfo.obj
 0001:00028740       ?_Getal@?$vector@MV?$allocator@M@std@@@std@@ABEABV?$allocator@M@2@XZ 10029740 f i BranchInfo.obj
 0001:00028790       ?_Getal@?$vector@VCVec@@V?$allocator@VCVec@@@std@@@std@@AAEAAV?$allocator@VCVec@@@2@XZ 10029790 f i BranchInfo.obj
 0001:000287e0       ?_Getal@?$vector@VCVec@@V?$allocator@VCVec@@@std@@@std@@ABEABV?$allocator@VCVec@@@2@XZ 100297e0 f i BranchInfo.obj
 0001:00028830       ?_Release@?$_Uninitialized_backout_al@V?$allocator@M@std@@@std@@QAEPAMXZ 10029830 f i BranchInfo.obj
 0001:00028860       ?_Release@?$_Uninitialized_backout_al@V?$allocator@VCVec@@@std@@@std@@QAEPAVCVec@@XZ 10029860 f i BranchInfo.obj
 0001:00028890       ?_Xlength@?$vector@MV?$allocator@M@std@@@std@@CAXXZ 10029890 f i BranchInfo.obj
 0001:000288e0       ?_Xlength@?$vector@VCVec@@V?$allocator@VCVec@@@std@@@std@@CAXXZ 100298e0 f i BranchInfo.obj
 0001:00028930       ?allocate@?$allocator@M@std@@QAEPAMI@Z 10029930 f i BranchInfo.obj
 0001:00028990       ?allocate@?$allocator@VCVec@@@std@@QAEPAVCVec@@I@Z 10029990 f i BranchInfo.obj
 0001:000289f0       ?capacity@?$vector@MV?$allocator@M@std@@@std@@QBEIXZ 100299f0 f i BranchInfo.obj
 0001:00028a30       ?capacity@?$vector@VCVec@@V?$allocator@VCVec@@@std@@@std@@QBEIXZ 10029a30 f i BranchInfo.obj
 0001:00028a70       ?deallocate@?$allocator@M@std@@QAEXQAMI@Z 10029a70 f i BranchInfo.obj
 0001:00028b60       ?deallocate@?$allocator@VCVec@@@std@@QAEXQAVCVec@@I@Z 10029b60 f i BranchInfo.obj
 0001:00028c50       ?max_size@?$_Default_allocator_traits@V?$allocator@M@std@@@std@@SAIABV?$allocator@M@2@@Z 10029c50 f i BranchInfo.obj
 0001:00028c70       ?max_size@?$_Default_allocator_traits@V?$allocator@VCVec@@@std@@@std@@SAIABV?$allocator@VCVec@@@2@@Z 10029c70 f i BranchInfo.obj
 0001:00028c90       ?max_size@?$vector@MV?$allocator@M@std@@@std@@QBEIXZ 10029c90 f i BranchInfo.obj
 0001:00028d20       ?max_size@?$vector@VCVec@@V?$allocator@VCVec@@@std@@@std@@QBEIXZ 10029d20 f i BranchInfo.obj
 0001:00028db0       ?push_back@?$vector@EV?$allocator@E@std@@@std@@QAEX$$QAE@Z 10029db0 f i BranchInfo.obj
 0001:00028e10       ??0CIdvCamera@@QAE@ABV0@@Z 10029e10 f   Camera.obj
 0001:00028ea0       ??0CIdvCamera@@QAE@XZ      10029ea0 f   Camera.obj
 0001:00028f20       ??1CIdvCamera@@UAE@XZ      10029f20 f   Camera.obj
 0001:00028f50       ??4CIdvCamera@@UAEABV0@ABV0@@Z 10029f50 f   Camera.obj
 0001:00028fa0       ??_ECIdvCamera@@UAEPAXI@Z  10029fa0 f i Camera.obj
 0001:00028fa0       ??_GCIdvCamera@@UAEPAXI@Z  10029fa0 f i Camera.obj
 0001:00029010       ??$_Reallocate_grow_by@V<lambda_15711c68e099a15a58f4d77303cb286d>@@D@?$basic_string@DU?$char_traits@D@std@@V?$allocator@D@2@@std@@AAEAAV01@IV<lambda_15711c68e099a15a58f4d77303cb286d>@@D@Z 1002a010 f i FileAccess.obj
 0001:00029210       ??0?$basic_string@DU?$char_traits@D@std@@V?$allocator@D@2@@std@@QAE@XZ 1002a210 f i FileAccess.obj
 0001:000292b0       ??A?$basic_string@DU?$char_traits@D@std@@V?$allocator@D@2@@std@@QAEAADI@Z 1002a2b0 f i FileAccess.obj
 0001:00029390       ??ACVec@@QAEAAMH@Z         1002a390 f i FileAccess.obj
 0001:000293c0       ??BCVec@@QBEPBMXZ          1002a3c0 f i FileAccess.obj
 0001:000293f0       ??R<lambda_15711c68e099a15a58f4d77303cb286d>@@QBE@QADQBDID@Z 1002a3f0 f i FileAccess.obj
 0001:00029490       ??Y?$basic_string@DU?$char_traits@D@std@@V?$allocator@D@2@@std@@QAEAAV01@D@Z 1002a490 f i FileAccess.obj
 0001:000294f0       ?ConvertMemoryToArray@CTreeFileAccess@@QAEPAEAAI@Z 1002a4f0 f   FileAccess.obj
 0001:000295d0       ?EndOfFile@CTreeFileAccess@@QBE_NXZ 1002a5d0 f i FileAccess.obj
 0001:00029650       ?ParseFloat@CTreeFileAccess@@QAEMXZ 1002a650 f   FileAccess.obj
 0001:00029760       ?ParseInt@CTreeFileAccess@@QAEHXZ 1002a760 f   FileAccess.obj
 0001:00029870       ?ParseLong@CTreeFileAccess@@QAEKXZ 1002a870 f   FileAccess.obj
 0001:00029990       ?ParseShort@CTreeFileAccess@@QAEFXZ 1002a990 f   FileAccess.obj
 0001:00029ab0       ?ParseString@CTreeFileAccess@@QAE?AV?$basic_string@DU?$char_traits@D@std@@V?$allocator@D@2@@std@@XZ 1002aab0 f   FileAccess.obj
 0001:00029cf0       ?ParseVector3@CTreeFileAccess@@QAE?AVCVec3@@XZ 1002acf0 f   FileAccess.obj
 0001:00029ea0       ?ParseVector@CTreeFileAccess@@QAE?AVCVec@@H@Z 1002aea0 f   FileAccess.obj
 0001:0002a0d0       ?PeekToken@CTreeFileAccess@@QAE?AW4EFileToken@@XZ 1002b0d0 f   FileAccess.obj
 0001:0002a1d0       ?SaveFloat@CTreeFileAccess@@QAEXM@Z 1002b1d0 f   FileAccess.obj
 0001:0002a2e0       ?SaveInt@CTreeFileAccess@@QAEXH@Z 1002b2e0 f   FileAccess.obj
 0001:0002a3f0       ?SaveLong@CTreeFileAccess@@QAEXK@Z 1002b3f0 f   FileAccess.obj
 0001:0002a540       ?SaveShort@CTreeFileAccess@@QAEXF@Z 1002b540 f   FileAccess.obj
 0001:0002a5f0       ?SaveString@CTreeFileAccess@@QAEXV?$basic_string@DU?$char_traits@D@std@@V?$allocator@D@2@@std@@@Z 1002b5f0 f   FileAccess.obj
 0001:0002a700       ?SaveVector3@CTreeFileAccess@@QAEXABVCVec3@@@Z 1002b700 f   FileAccess.obj
 0001:0002a790       ?SaveVector@CTreeFileAccess@@QAEXABVCVec@@H@Z 1002b790 f   FileAccess.obj
 0001:0002a820       ?_Construct_empty@?$basic_string@DU?$char_traits@D@std@@V?$allocator@D@2@@std@@AAEXXZ 1002b820 f i FileAccess.obj
 0001:0002a8f0       ?length@?$basic_string@DU?$char_traits@D@std@@V?$allocator@D@2@@std@@QBEIXZ 1002b8f0 f i FileAccess.obj
 0001:0002a920       ?push_back@?$basic_string@DU?$char_traits@D@std@@V?$allocator@D@2@@std@@QAEXD@Z 1002b920 f i FileAccess.obj
 0001:0002aa10       ?size@?$vector@EV?$allocator@E@std@@@std@@QBEIXZ 1002ba10 f i FileAccess.obj
 0001:0002aa50       ??$?0$$V@?$_Compressed_pair@V?$allocator@M@std@@V?$_Vector_val@U?$_Simple_types@M@std@@@2@$00@std@@QAE@U_Zero_then_variadic_args_t@1@@Z 1002ba50 f i FrondEngine.obj
 0001:0002aab0       ??$?0$$V@?$_Compressed_pair@V?$allocator@USFrondGuide@@@std@@V?$_Vector_val@U?$_Simple_types@USFrondGuide@@@std@@@2@$00@std@@QAE@U_Zero_then_variadic_args_t@1@@Z 1002bab0 f i FrondEngine.obj
 0001:0002ab10       ??$?0$$V@?$_Compressed_pair@V?$allocator@USFrondTexture@@@std@@V?$_Vector_val@U?$_Simple_types@USFrondTexture@@@std@@@2@$00@std@@QAE@U_Zero_then_variadic_args_t@1@@Z 1002bb10 f i FrondEngine.obj
 0001:0002ab70       ??$?0$$V@?$_Compressed_pair@V?$allocator@USFrondVertex@@@std@@V?$_Vector_val@U?$_Simple_types@USFrondVertex@@@std@@@2@$00@std@@QAE@U_Zero_then_variadic_args_t@1@@Z 1002bb70 f i FrondEngine.obj
 0001:0002abd0       ??$?0$$V@?$_Compressed_pair@V?$allocator@V?$vector@MV?$allocator@M@std@@@std@@@std@@V?$_Vector_val@U?$_Simple_types@V?$vector@MV?$allocator@M@std@@@std@@@std@@@2@$00@std@@QAE@U_Zero_then_variadic_args_t@1@@Z 1002bbd0 f i FrondEngine.obj
 0001:0002ac30       ??$?0$$V@?$_Compressed_pair@V?$allocator@V?$vector@USFrondGuide@@V?$allocator@USFrondGuide@@@std@@@std@@@std@@V?$_Vector_val@U?$_Simple_types@V?$vector@USFrondGuide@@V?$allocator@USFrondGuide@@@std@@@std@@@std@@@2@$00@std@@QAE@U_Zero_then_variadic_args_t@1@@Z 1002bc30 f i FrondEngine.obj
 0001:0002ac90       ??$?0$$V@?$_Compressed_pair@V?$allocator@VCVec3@@@std@@V?$_Vector_val@U?$_Simple_types@VCVec3@@@std@@@2@$00@std@@QAE@U_Zero_then_variadic_args_t@1@@Z 1002bc90 f i FrondEngine.obj
 0001:0002acf0       ??$?0AAPAUSFrondGuide@@AAPAU0@$0A@@?$pair@PAUSFrondGuide@@PAU1@@std@@QAE@AAPAUSFrondGuide@@0@Z 1002bcf0 f i FrondEngine.obj
 0001:0002ad70       ??$?0ABUSFrondGuide@@@?$_Alloc_temporary2@V?$allocator@USFrondGuide@@@std@@@std@@QAE@AAV?$allocator@USFrondGuide@@@1@ABUSFrondGuide@@@Z 1002bd70 f i FrondEngine.obj
 0001:0002ae00       ??$?0M@?$allocator@U_Container_proxy@std@@@std@@QAE@ABV?$allocator@M@1@@Z 1002be00 f i FrondEngine.obj
 0001:0002ae30       ??$?0USFrondGuide@@@?$allocator@U_Container_proxy@std@@@std@@QAE@ABV?$allocator@USFrondGuide@@@1@@Z 1002be30 f i FrondEngine.obj
 0001:0002ae60       ??$?0USFrondTexture@@@?$allocator@U_Container_proxy@std@@@std@@QAE@ABV?$allocator@USFrondTexture@@@1@@Z 1002be60 f i FrondEngine.obj
 0001:0002ae90       ??$?0USFrondVertex@@@?$allocator@U_Container_proxy@std@@@std@@QAE@ABV?$allocator@USFrondVertex@@@1@@Z 1002be90 f i FrondEngine.obj
 0001:0002aec0       ??$?0V?$allocator@M@std@@$$V@?$_Compressed_pair@V?$allocator@M@std@@V?$_Vector_val@U?$_Simple_types@M@std@@@2@$00@std@@QAE@U_One_then_variadic_args_t@1@$$QAV?$allocator@M@1@@Z 1002bec0 f i FrondEngine.obj
 0001:0002af30       ??$?0V?$allocator@M@std@@PAMPAMPAM@?$_Compressed_pair@V?$allocator@M@std@@V?$_Vector_val@U?$_Simple_types@M@std@@@2@$00@std@@QAE@U_One_then_variadic_args_t@1@$$QAV?$allocator@M@1@$$QAPAM22@Z 1002bf30 f i FrondEngine.obj
 0001:0002afd0       ??$?0V?$allocator@USFrondGuide@@@std@@$$V@?$_Compressed_pair@V?$allocator@USFrondGuide@@@std@@V?$_Vector_val@U?$_Simple_types@USFrondGuide@@@std@@@2@$00@std@@QAE@U_One_then_variadic_args_t@1@$$QAV?$allocator@USFrondGuide@@@1@@Z 1002bfd0 f i FrondEngine.obj
 0001:0002b040       ??$?0V?$allocator@USFrondGuide@@@std@@PAUSFrondGuide@@PAU2@PAU2@@?$_Compressed_pair@V?$allocator@USFrondGuide@@@std@@V?$_Vector_val@U?$_Simple_types@USFrondGuide@@@std@@@2@$00@std@@QAE@U_One_then_variadic_args_t@1@$$QAV?$allocator@USFrondGuide@@@1@$$QAPAUSFrondGuide@@22@Z 1002c040 f i FrondEngine.obj
 0001:0002b0e0       ??$?0V?$allocator@USFrondVertex@@@std@@$$V@?$_Compressed_pair@V?$allocator@USFrondVertex@@@std@@V?$_Vector_val@U?$_Simple_types@USFrondVertex@@@std@@@2@$00@std@@QAE@U_One_then_variadic_args_t@1@$$QAV?$allocator@USFrondVertex@@@1@@Z 1002c0e0 f i FrondEngine.obj
 0001:0002b150       ??$?0V?$allocator@USFrondVertex@@@std@@PAUSFrondVertex@@PAU2@PAU2@@?$_Compressed_pair@V?$allocator@USFrondVertex@@@std@@V?$_Vector_val@U?$_Simple_types@USFrondVertex@@@std@@@2@$00@std@@QAE@U_One_then_variadic_args_t@1@$$QAV?$allocator@USFrondVertex@@@1@$$QAPAUSFrondVertex@@22@Z 1002c150 f i FrondEngine.obj
 0001:0002b1f0       ??$?0V?$vector@MV?$allocator@M@std@@@std@@@?$allocator@U_Container_proxy@std@@@std@@QAE@ABV?$allocator@V?$vector@MV?$allocator@M@std@@@std@@@1@@Z 1002c1f0 f i FrondEngine.obj
 0001:0002b220       ??$?0V?$vector@USFrondGuide@@V?$allocator@USFrondGuide@@@std@@@std@@@?$allocator@U_Container_proxy@std@@@std@@QAE@ABV?$allocator@V?$vector@USFrondGuide@@V?$allocator@USFrondGuide@@@std@@@std@@@1@@Z 1002c220 f i FrondEngine.obj
 0001:0002b250       ??$?0VCVec3@@@?$allocator@U_Container_proxy@std@@@std@@QAE@ABV?$allocator@VCVec3@@@1@@Z 1002c250 f i FrondEngine.obj
 0001:0002b280       ??$_Adl_verify_range@V?$_Vector_iterator@V?$_Vector_val@U?$_Simple_types@USFrondGuide@@@std@@@std@@@std@@V12@@std@@YAXABV?$_Vector_iterator@V?$_Vector_val@U?$_Simple_types@USFrondGuide@@@std@@@std@@@0@0@Z 1002c280 f i FrondEngine.obj
 0001:0002b2d0       ??$_Allocate_at_least_helper@V?$allocator@USFrondGuide@@@std@@@std@@YAPAUSFrondGuide@@AAV?$allocator@USFrondGuide@@@0@AAI@Z 1002c2d0 f i FrondEngine.obj
 0001:0002b320       ??$_Allocate_at_least_helper@V?$allocator@USFrondTexture@@@std@@@std@@YAPAUSFrondTexture@@AAV?$allocator@USFrondTexture@@@0@AAI@Z 1002c320 f i FrondEngine.obj
 0001:0002b370       ??$_Allocate_at_least_helper@V?$allocator@USFrondVertex@@@std@@@std@@YAPAUSFrondVertex@@AAV?$allocator@USFrondVertex@@@0@AAI@Z 1002c370 f i FrondEngine.obj
 0001:0002b3c0       ??$_Allocate_at_least_helper@V?$allocator@V?$vector@MV?$allocator@M@std@@@std@@@std@@@std@@YAPAV?$vector@MV?$allocator@M@std@@@0@AAV?$allocator@V?$vector@MV?$allocator@M@std@@@std@@@0@AAI@Z 1002c3c0 f i FrondEngine.obj
 0001:0002b410       ??$_Allocate_at_least_helper@V?$allocator@V?$vector@USFrondGuide@@V?$allocator@USFrondGuide@@@std@@@std@@@std@@@std@@YAPAV?$vector@USFrondGuide@@V?$allocator@USFrondGuide@@@std@@@0@AAV?$allocator@V?$vector@USFrondGuide@@V?$allocator@USFrondGuide@@@std@@@std@@@0@AAI@Z 1002c410 f i FrondEngine.obj
 0001:0002b460       ??$_Allocate_at_least_helper@V?$allocator@VCVec3@@@std@@@std@@YAPAVCVec3@@AAV?$allocator@VCVec3@@@0@AAI@Z 1002c460 f i FrondEngine.obj
 0001:0002b4b0       ??$_Assign_counted_range@PAUSFrondTexture@@@?$vector@USFrondTexture@@V?$allocator@USFrondTexture@@@std@@@std@@AAEXPAUSFrondTexture@@I@Z 1002c4b0 f i FrondEngine.obj
 0001:0002b6d0       ??$_Construct@$01PBD@?$basic_string@DU?$char_traits@D@std@@V?$allocator@D@2@@std@@AAEXQBDI@Z 1002c6d0 f i FrondEngine.obj
 0001:0002b940       ??$_Construct_in_place@MABM@std@@YAXAAMABM@Z 1002c940 f i FrondEngine.obj
 0001:0002b9c0       ??$_Construct_in_place@MM@std@@YAXAAM$$QAM@Z 1002c9c0 f i FrondEngine.obj
 0001:0002ba40       ??$_Construct_in_place@USFrondVertex@@ABU1@@std@@YAXAAUSFrondVertex@@ABU1@@Z 1002ca40 f i FrondEngine.obj
 0001:0002bac0       ??$_Construct_in_place@VCVec3@@ABV1@@std@@YAXAAVCVec3@@ABV1@@Z 1002cac0 f i FrondEngine.obj
 0001:0002bb50       ??$_Construct_n@ABQAMABQAM@?$vector@MV?$allocator@M@std@@@std@@AAEXIABQAM0@Z 1002cb50 f i FrondEngine.obj
 0001:0002bd20       ??$_Construct_n@ABQAUSFrondGuide@@ABQAU1@@?$vector@USFrondGuide@@V?$allocator@USFrondGuide@@@std@@@std@@AAEXIABQAUSFrondGuide@@0@Z 1002cd20 f i FrondEngine.obj
 0001:0002bef0       ??$_Construct_n@ABQAUSFrondVertex@@ABQAU1@@?$vector@USFrondVertex@@V?$allocator@USFrondVertex@@@std@@@std@@AAEXIABQAUSFrondVertex@@0@Z 1002cef0 f i FrondEngine.obj
 0001:0002c0c0       ??$_Copy_memmove@PAUSFrondVertex@@PAU1@@std@@YAPAUSFrondVertex@@PAU1@00@Z 1002d0c0 f i FrondEngine.obj
 0001:0002c180       ??$_Copy_memmove@PAVCVec3@@PAV1@@std@@YAPAVCVec3@@PAV1@00@Z 1002d180 f i FrondEngine.obj
 0001:0002c240       ??$_Copy_n_unchecked4@PAUSFrondTexture@@IPAU1@@std@@YAPAUSFrondTexture@@PAU1@I0@Z 1002d240 f i FrondEngine.obj
 0001:0002c2c0       ??$_Debug_lt_pred@AAVCGuideSorter@@AAUSFrondGuide@@AAU2@$0A@@std@@YA_NAAVCGuideSorter@@AAUSFrondGuide@@1@Z 1002d2c0 f i FrondEngine.obj
 0001:0002c3c0       ??$_Destroy_range@V?$allocator@USFrondGuide@@@std@@@std@@YAXPAUSFrondGuide@@QAU1@AAV?$allocator@USFrondGuide@@@0@@Z 1002d3c0 f i FrondEngine.obj
 0001:0002c470       ??$_Destroy_range@V?$allocator@USFrondTexture@@@std@@@std@@YAXPAUSFrondTexture@@QAU1@AAV?$allocator@USFrondTexture@@@0@@Z 1002d470 f i FrondEngine.obj
 0001:0002c520       ??$_Destroy_range@V?$allocator@USFrondVertex@@@std@@@std@@YAXPAUSFrondVertex@@QAU1@AAV?$allocator@USFrondVertex@@@0@@Z 1002d520 f i FrondEngine.obj
 0001:0002c540       ??$_Destroy_range@V?$allocator@V?$vector@MV?$allocator@M@std@@@std@@@std@@@std@@YAXPAV?$vector@MV?$allocator@M@std@@@0@QAV10@AAV?$allocator@V?$vector@MV?$allocator@M@std@@@std@@@0@@Z 1002d540 f i FrondEngine.obj
 0001:0002c5f0       ??$_Destroy_range@V?$allocator@V?$vector@USFrondGuide@@V?$allocator@USFrondGuide@@@std@@@std@@@std@@@std@@YAXPAV?$vector@USFrondGuide@@V?$allocator@USFrondGuide@@@std@@@0@QAV10@AAV?$allocator@V?$vector@USFrondGuide@@V?$allocator@USFrondGuide@@@std@@@std@@@0@@Z 1002d5f0 f i FrondEngine.obj
 0001:0002c6a0       ??$_Destroy_range@V?$allocator@VCVec3@@@std@@@std@@YAXPAVCVec3@@QAV1@AAV?$allocator@VCVec3@@@0@@Z 1002d6a0 f i FrondEngine.obj
 0001:0002c6c0       ??$_Emplace_back@AAUSFrondGuide@@@?$_Uninitialized_backout_al@V?$allocator@USFrondGuide@@@std@@@std@@QAEXAAUSFrondGuide@@@Z 1002d6c0 f i FrondEngine.obj
 0001:0002c750       ??$_Emplace_back@AAUSFrondTexture@@@?$_Uninitialized_backout_al@V?$allocator@USFrondTexture@@@std@@@std@@QAEXAAUSFrondTexture@@@Z 1002d750 f i FrondEngine.obj
 0001:0002c7e0       ??$_Emplace_back@AAUSFrondVertex@@@?$_Uninitialized_backout_al@V?$allocator@USFrondVertex@@@std@@@std@@QAEXAAUSFrondVertex@@@Z 1002d7e0 f i FrondEngine.obj
 0001:0002c870       ??$_Emplace_back@M@?$_Uninitialized_backout_al@V?$allocator@M@std@@@std@@QAEX$$QAM@Z 1002d870 f i FrondEngine.obj
 0001:0002c900       ??$_Emplace_back@USFrondGuide@@@?$_Uninitialized_backout_al@V?$allocator@USFrondGuide@@@std@@@std@@QAEX$$QAUSFrondGuide@@@Z 1002d900 f i FrondEngine.obj
 0001:0002c990       ??$_Emplace_back@USFrondTexture@@@?$_Uninitialized_backout_al@V?$allocator@USFrondTexture@@@std@@@std@@QAEX$$QAUSFrondTexture@@@Z 1002d990 f i FrondEngine.obj
 0001:0002ca20       ??$_Emplace_back@USFrondVertex@@@?$_Uninitialized_backout_al@V?$allocator@USFrondVertex@@@std@@@std@@QAEX$$QAUSFrondVertex@@@Z 1002da20 f i FrondEngine.obj
 0001:0002cab0       ??$_Emplace_back@V?$vector@MV?$allocator@M@std@@@std@@@?$_Uninitialized_backout_al@V?$allocator@V?$vector@MV?$allocator@M@std@@@std@@@std@@@std@@QAEX$$QAV?$vector@MV?$allocator@M@std@@@1@@Z 1002dab0 f i FrondEngine.obj
 0001:0002cb40       ??$_Emplace_back@V?$vector@USFrondGuide@@V?$allocator@USFrondGuide@@@std@@@std@@@?$_Uninitialized_backout_al@V?$allocator@V?$vector@USFrondGuide@@V?$allocator@USFrondGuide@@@std@@@std@@@std@@@std@@QAEX$$QAV?$vector@USFrondGuide@@V?$allocator@USFrondGuide@@@std@@@1@@Z 1002db40 f i FrondEngine.obj
 0001:0002cbd0       ??$_Emplace_back@VCVec3@@@?$_Uninitialized_backout_al@V?$allocator@VCVec3@@@std@@@std@@QAEX$$QAVCVec3@@@Z 1002dbd0 f i FrondEngine.obj
 0001:0002cc60       ??$_Emplace_back_with_unused_capacity@ABM@?$vector@MV?$allocator@M@std@@@std@@AAEAAMABM@Z 1002dc60 f i FrondEngine.obj
 0001:0002cd10       ??$_Emplace_back_with_unused_capacity@ABUSFrondGuide@@@?$vector@USFrondGuide@@V?$allocator@USFrondGuide@@@std@@@std@@AAEAAUSFrondGuide@@ABU2@@Z 1002dd10 f i FrondEngine.obj
 0001:0002cde0       ??$_Emplace_back_with_unused_capacity@ABUSFrondTexture@@@?$vector@USFrondTexture@@V?$allocator@USFrondTexture@@@std@@@std@@AAEAAUSFrondTexture@@ABU2@@Z 1002dde0 f i FrondEngine.obj
 0001:0002ceb0       ??$_Emplace_back_with_unused_capacity@ABUSFrondVertex@@@?$vector@USFrondVertex@@V?$allocator@USFrondVertex@@@std@@@std@@AAEAAUSFrondVertex@@ABU2@@Z 1002deb0 f i FrondEngine.obj
 0001:0002cf60       ??$_Emplace_back_with_unused_capacity@ABV?$vector@MV?$allocator@M@std@@@std@@@?$vector@V?$vector@MV?$allocator@M@std@@@std@@V?$allocator@V?$vector@MV?$allocator@M@std@@@std@@@2@@std@@AAEAAV?$vector@MV?$allocator@M@std@@@1@ABV21@@Z 1002df60 f i FrondEngine.obj
 0001:0002d030       ??$_Emplace_back_with_unused_capacity@ABV?$vector@USFrondGuide@@V?$allocator@USFrondGuide@@@std@@@std@@@?$vector@V?$vector@USFrondGuide@@V?$allocator@USFrondGuide@@@std@@@std@@V?$allocator@V?$vector@USFrondGuide@@V?$allocator@USFrondGuide@@@std@@@std@@@2@@std@@AAEAAV?$vector@USFrondGuide@@V?$allocator@USFrondGuide@@@std@@@1@ABV21@@Z 1002e030 f i FrondEngine.obj
 0001:0002d100       ??$_Emplace_back_with_unused_capacity@ABVCVec3@@@?$vector@VCVec3@@V?$allocator@VCVec3@@@std@@@std@@AAEAAVCVec3@@ABV2@@Z 1002e100 f i FrondEngine.obj
 0001:0002d1b0       ??$_Emplace_back_with_unused_capacity@M@?$vector@MV?$allocator@M@std@@@std@@AAEAAM$$QAM@Z 1002e1b0 f i FrondEngine.obj
 0001:0002d260       ??$_Emplace_one_at_back@ABM@?$vector@MV?$allocator@M@std@@@std@@AAEAAMABM@Z 1002e260 f i FrondEngine.obj
 0001:0002d310       ??$_Emplace_one_at_back@ABUSFrondGuide@@@?$vector@USFrondGuide@@V?$allocator@USFrondGuide@@@std@@@std@@AAEAAUSFrondGuide@@ABU2@@Z 1002e310 f i FrondEngine.obj
 0001:0002d3c0       ??$_Emplace_one_at_back@ABUSFrondTexture@@@?$vector@USFrondTexture@@V?$allocator@USFrondTexture@@@std@@@std@@AAEAAUSFrondTexture@@ABU2@@Z 1002e3c0 f i FrondEngine.obj
 0001:0002d470       ??$_Emplace_one_at_back@ABUSFrondVertex@@@?$vector@USFrondVertex@@V?$allocator@USFrondVertex@@@std@@@std@@AAEAAUSFrondVertex@@ABU2@@Z 1002e470 f i FrondEngine.obj
 0001:0002d520       ??$_Emplace_one_at_back@ABV?$vector@MV?$allocator@M@std@@@std@@@?$vector@V?$vector@MV?$allocator@M@std@@@std@@V?$allocator@V?$vector@MV?$allocator@M@std@@@std@@@2@@std@@AAEAAV?$vector@MV?$allocator@M@std@@@1@ABV21@@Z 1002e520 f i FrondEngine.obj
 0001:0002d5d0       ??$_Emplace_one_at_back@ABV?$vector@USFrondGuide@@V?$allocator@USFrondGuide@@@std@@@std@@@?$vector@V?$vector@USFrondGuide@@V?$allocator@USFrondGuide@@@std@@@std@@V?$allocator@V?$vector@USFrondGuide@@V?$allocator@USFrondGuide@@@std@@@std@@@2@@std@@AAEAAV?$vector@USFrondGuide@@V?$allocator@USFrondGuide@@@std@@@1@ABV21@@Z 1002e5d0 f i FrondEngine.obj
 0001:0002d680       ??$_Emplace_one_at_back@ABVCVec3@@@?$vector@VCVec3@@V?$allocator@VCVec3@@@std@@@std@@AAEAAVCVec3@@ABV2@@Z 1002e680 f i FrondEngine.obj
 0001:0002d730       ??$_Emplace_one_at_back@M@?$vector@MV?$allocator@M@std@@@std@@AAEAAM$$QAM@Z 1002e730 f i FrondEngine.obj
 0001:0002d7e0       ??$_Emplace_reallocate@ABM@?$vector@MV?$allocator@M@std@@@std@@AAEPAMQAMABM@Z 1002e7e0 f i FrondEngine.obj
 0001:0002db00       ??$_Emplace_reallocate@ABUSFrondGuide@@@?$vector@USFrondGuide@@V?$allocator@USFrondGuide@@@std@@@std@@AAEPAUSFrondGuide@@QAU2@ABU2@@Z 1002eb00 f i FrondEngine.obj
 0001:0002de20       ??$_Emplace_reallocate@ABUSFrondTexture@@@?$vector@USFrondTexture@@V?$allocator@USFrondTexture@@@std@@@std@@AAEPAUSFrondTexture@@QAU2@ABU2@@Z 1002ee20 f i FrondEngine.obj
 0001:0002e140       ??$_Emplace_reallocate@ABUSFrondVertex@@@?$vector@USFrondVertex@@V?$allocator@USFrondVertex@@@std@@@std@@AAEPAUSFrondVertex@@QAU2@ABU2@@Z 1002f140 f i FrondEngine.obj
 0001:0002e460       ??$_Emplace_reallocate@ABV?$vector@MV?$allocator@M@std@@@std@@@?$vector@V?$vector@MV?$allocator@M@std@@@std@@V?$allocator@V?$vector@MV?$allocator@M@std@@@std@@@2@@std@@AAEPAV?$vector@MV?$allocator@M@std@@@1@QAV21@ABV21@@Z 1002f460 f i FrondEngine.obj
 0001:0002e780       ??$_Emplace_reallocate@ABV?$vector@USFrondGuide@@V?$allocator@USFrondGuide@@@std@@@std@@@?$vector@V?$vector@USFrondGuide@@V?$allocator@USFrondGuide@@@std@@@std@@V?$allocator@V?$vector@USFrondGuide@@V?$allocator@USFrondGuide@@@std@@@std@@@2@@std@@AAEPAV?$vector@USFrondGuide@@V?$allocator@USFrondGuide@@@std@@@1@QAV21@ABV21@@Z 1002f780 f i FrondEngine.obj
 0001:0002eaa0       ??$_Emplace_reallocate@ABVCVec3@@@?$vector@VCVec3@@V?$allocator@VCVec3@@@std@@@std@@AAEPAVCVec3@@QAV2@ABV2@@Z 1002faa0 f i FrondEngine.obj
 0001:0002edc0       ??$_Emplace_reallocate@M@?$vector@MV?$allocator@M@std@@@std@@AAEPAMQAM$$QAM@Z 1002fdc0 f i FrondEngine.obj
 0001:0002f0e0       ??$_Get_size_of_n@$0BA@@std@@YAII@Z 100300e0 f i FrondEngine.obj
 0001:0002f150       ??$_Get_size_of_n@$0CM@@std@@YAII@Z 10030150 f i FrondEngine.obj
 0001:0002f1b0       ??$_Get_size_of_n@$0DA@@std@@YAII@Z 100301b0 f i FrondEngine.obj
 0001:0002f210       ??$_Get_size_of_n@$0DI@@std@@YAII@Z 10030210 f i FrondEngine.obj
 0001:0002f270       ??$_Get_unwrapped@ABQAM@std@@YA?A_TABQAM@Z 10030270 f i FrondEngine.obj
 0001:0002f290       ??$_Get_unwrapped@ABQAUSFrondGuide@@@std@@YA?A_TABQAUSFrondGuide@@@Z 10030290 f i FrondEngine.obj
 0001:0002f2b0       ??$_Get_unwrapped@ABQAUSFrondTexture@@@std@@YA?A_TABQAUSFrondTexture@@@Z 100302b0 f i FrondEngine.obj
 0001:0002f2d0       ??$_Get_unwrapped@ABQAUSFrondVertex@@@std@@YA?A_TABQAUSFrondVertex@@@Z 100302d0 f i FrondEngine.obj
 0001:0002f2f0       ??$_Get_unwrapped@ABQAV?$vector@MV?$allocator@M@std@@@std@@@std@@YA?A_TABQAV?$vector@MV?$allocator@M@std@@@0@@Z 100302f0 f i FrondEngine.obj
 0001:0002f310       ??$_Get_unwrapped@ABQAV?$vector@USFrondGuide@@V?$allocator@USFrondGuide@@@std@@@std@@@std@@YA?A_TABQAV?$vector@USFrondGuide@@V?$allocator@USFrondGuide@@@std@@@0@@Z 10030310 f i FrondEngine.obj
 0001:0002f330       ??$_Get_unwrapped@ABQAVCVec3@@@std@@YA?A_TABQAVCVec3@@@Z 10030330 f i FrondEngine.obj
 0001:0002f350       ??$_Get_unwrapped@ABV?$_Vector_iterator@V?$_Vector_val@U?$_Simple_types@USFrondGuide@@@std@@@std@@@std@@@std@@YA?A_TABV?$_Vector_iterator@V?$_Vector_val@U?$_Simple_types@USFrondGuide@@@std@@@std@@@0@@Z 10030350 f i FrondEngine.obj
 0001:0002f390       ??$_Get_unwrapped@PAUSFrondGuide@@@std@@YA?A_T$$QAPAUSFrondGuide@@@Z 10030390 f i FrondEngine.obj
 0001:0002f3b0       ??$_Get_unwrapped@PAUSFrondTexture@@@std@@YA?A_T$$QAPAUSFrondTexture@@@Z 100303b0 f i FrondEngine.obj
 0001:0002f3d0       ??$_Get_unwrapped@PAUSFrondVertex@@@std@@YA?A_T$$QAPAUSFrondVertex@@@Z 100303d0 f i FrondEngine.obj
 0001:0002f3f0       ??$_Guess_median_unchecked@PAUSFrondGuide@@VCGuideSorter@@@std@@YAXPAUSFrondGuide@@00VCGuideSorter@@@Z 100303f0 f i FrondEngine.obj
 0001:0002f540       ??$_Insertion_sort_unchecked@PAUSFrondGuide@@VCGuideSorter@@@std@@YAPAUSFrondGuide@@QAU1@0VCGuideSorter@@@Z 10030540 f i FrondEngine.obj
 0001:0002f740       ??$_Make_heap_unchecked@PAUSFrondGuide@@VCGuideSorter@@@std@@YAXPAUSFrondGuide@@0VCGuideSorter@@@Z 10030740 f i FrondEngine.obj
 0001:0002f890       ??$_Med3_unchecked@PAUSFrondGuide@@VCGuideSorter@@@std@@YAXPAUSFrondGuide@@00VCGuideSorter@@@Z 10030890 f i FrondEngine.obj
 0001:0002f970       ??$_Move_backward_unchecked@PAUSFrondGuide@@PAU1@@std@@YAPAUSFrondGuide@@PAU1@00@Z 10030970 f i FrondEngine.obj
 0001:0002f9f0       ??$_Move_unchecked@PAUSFrondGuide@@PAU1@@std@@YAPAUSFrondGuide@@PAU1@00@Z 100309f0 f i FrondEngine.obj
 0001:0002fa70       ??$_Next_iter@PAUSFrondGuide@@@std@@YAPAUSFrondGuide@@PAU1@@Z 10030a70 f i FrondEngine.obj
 0001:0002faa0       ??$_Partition_by_median_guess_unchecked@PAUSFrondGuide@@VCGuideSorter@@@std@@YA?AU?$pair@PAUSFrondGuide@@PAU1@@0@PAUSFrondGuide@@0VCGuideSorter@@@Z 10030aa0 f i FrondEngine.obj
 0001:0002fec0       ??$_Pass_fn@VCGuideSorter@@@std@@YA?A_PAAVCGuideSorter@@@Z 10030ec0 f i FrondEngine.obj
 0001:0002fef0       ??$_Pocca@V?$allocator@D@std@@@std@@YAXAAV?$allocator@D@0@ABV10@@Z 10030ef0 f i FrondEngine.obj
 0001:0002ff10       ??$_Pocca@V?$allocator@USFrondTexture@@@std@@@std@@YAXAAV?$allocator@USFrondTexture@@@0@ABV10@@Z 10030f10 f i FrondEngine.obj
 0001:0002ff30       ??$_Pocma@V?$allocator@D@std@@@std@@YAXAAV?$allocator@D@0@0@Z 10030f30 f i FrondEngine.obj
 0001:0002ff80       ??$_Pocma@V?$allocator@USFrondVertex@@@std@@@std@@YAXAAV?$allocator@USFrondVertex@@@0@0@Z 10030f80 f i FrondEngine.obj
 0001:0002ffd0       ??$_Pop_heap_hole_by_index@PAUSFrondGuide@@U1@VCGuideSorter@@@std@@YAXPAUSFrondGuide@@HH$$QAU1@VCGuideSorter@@@Z 10030fd0 f i FrondEngine.obj
 0001:00030140       ??$_Pop_heap_hole_unchecked@PAUSFrondGuide@@U1@VCGuideSorter@@@std@@YAXPAUSFrondGuide@@00$$QAU1@VCGuideSorter@@@Z 10031140 f i FrondEngine.obj
 0001:000301d0       ??$_Pop_heap_unchecked@PAUSFrondGuide@@VCGuideSorter@@@std@@YAXPAUSFrondGuide@@0VCGuideSorter@@@Z 100311d0 f i FrondEngine.obj
 0001:00030300       ??$_Prev_iter@PAUSFrondGuide@@@std@@YAPAUSFrondGuide@@PAU1@@Z 10031300 f i FrondEngine.obj
 0001:00030330       ??$_Push_heap_by_index@PAUSFrondGuide@@U1@VCGuideSorter@@@std@@YAXPAUSFrondGuide@@HH$$QAU1@VCGuideSorter@@@Z 10031330 f i FrondEngine.obj
 0001:00030410       ??$_Reallocate_for@V<lambda_9366063389c5f42a00a5088cf24e69de>@@PBD@?$basic_string@DU?$char_traits@D@std@@V?$allocator@D@2@@std@@AAEAAV01@IV<lambda_9366063389c5f42a00a5088cf24e69de>@@PBD@Z 10031410 f i FrondEngine.obj
 0001:000305a0       ??$_Sort_heap_unchecked@PAUSFrondGuide@@VCGuideSorter@@@std@@YAXPAUSFrondGuide@@0VCGuideSorter@@@Z 100315a0 f i FrondEngine.obj
 0001:00030620       ??$_Sort_unchecked@PAUSFrondGuide@@VCGuideSorter@@@std@@YAXPAUSFrondGuide@@0HVCGuideSorter@@@Z 10031620 f i FrondEngine.obj
 0001:000307c0       ??$_To_address@PAUSFrondVertex@@@std@@YA?A_PABQAUSFrondVertex@@@Z 100317c0 f i FrondEngine.obj
 0001:000307e0       ??$_To_address@PAVCVec3@@@std@@YA?A_PABQAVCVec3@@@Z 100317e0 f i FrondEngine.obj
 0001:00030800       ??$_Unfancy@USFrondGuide@@@std@@YAPAUSFrondGuide@@PAU1@@Z 10031800 f i FrondEngine.obj
 0001:00030820       ??$_Unfancy@USFrondTexture@@@std@@YAPAUSFrondTexture@@PAU1@@Z 10031820 f i FrondEngine.obj
 0001:00030840       ??$_Unfancy@USFrondVertex@@@std@@YAPAUSFrondVertex@@PAU1@@Z 10031840 f i FrondEngine.obj
 0001:00030860       ??$_Unfancy@V?$vector@MV?$allocator@M@std@@@std@@@std@@YAPAV?$vector@MV?$allocator@M@std@@@0@PAV10@@Z 10031860 f i FrondEngine.obj
 0001:00030880       ??$_Unfancy@V?$vector@USFrondGuide@@V?$allocator@USFrondGuide@@@std@@@std@@@std@@YAPAV?$vector@USFrondGuide@@V?$allocator@USFrondGuide@@@std@@@0@PAV10@@Z 10031880 f i FrondEngine.obj
 0001:000308a0       ??$_Unfancy@VCVec3@@@std@@YAPAVCVec3@@PAV1@@Z 100318a0 f i FrondEngine.obj
 0001:000308c0       ??$_Unfancy_maybe_null@USFrondGuide@@@std@@YAPAUSFrondGuide@@PAU1@@Z 100318c0 f i FrondEngine.obj
 0001:000308e0       ??$_Uninitialized_copy@PAMPAMV?$allocator@M@std@@@std@@YAPAMPAM00AAV?$allocator@M@0@@Z 100318e0 f i FrondEngine.obj
 0001:00030ad0       ??$_Uninitialized_copy@PAUSFrondGuide@@PAU1@V?$allocator@USFrondGuide@@@std@@@std@@YAPAUSFrondGuide@@PAU1@00AAV?$allocator@USFrondGuide@@@0@@Z 10031ad0 f i FrondEngine.obj
 0001:00030c30       ??$_Uninitialized_copy@PAUSFrondVertex@@PAU1@V?$allocator@USFrondVertex@@@std@@@std@@YAPAUSFrondVertex@@PAU1@00AAV?$allocator@USFrondVertex@@@0@@Z 10031c30 f i FrondEngine.obj
 0001:00030e20       ??$_Uninitialized_copy_n@PAUSFrondTexture@@V?$allocator@USFrondTexture@@@std@@@std@@YAPAUSFrondTexture@@PAU1@I0AAV?$allocator@USFrondTexture@@@0@@Z 10031e20 f i FrondEngine.obj
 0001:00030f70       ??$_Uninitialized_move@PAMV?$allocator@M@std@@@std@@YAPAMQAM0PAMAAV?$allocator@M@0@@Z 10031f70 f i FrondEngine.obj
 0001:00031100       ??$_Uninitialized_move@PAUSFrondGuide@@V?$allocator@USFrondGuide@@@std@@@std@@YAPAUSFrondGuide@@QAU1@0PAU1@AAV?$allocator@USFrondGuide@@@0@@Z 10032100 f i FrondEngine.obj
 0001:00031250       ??$_Uninitialized_move@PAUSFrondTexture@@V?$allocator@USFrondTexture@@@std@@@std@@YAPAUSFrondTexture@@QAU1@0PAU1@AAV?$allocator@USFrondTexture@@@0@@Z 10032250 f i FrondEngine.obj
 0001:000313a0       ??$_Uninitialized_move@PAUSFrondVertex@@V?$allocator@USFrondVertex@@@std@@@std@@YAPAUSFrondVertex@@QAU1@0PAU1@AAV?$allocator@USFrondVertex@@@0@@Z 100323a0 f i FrondEngine.obj
 0001:00031530       ??$_Uninitialized_move@PAV?$vector@MV?$allocator@M@std@@@std@@V?$allocator@V?$vector@MV?$allocator@M@std@@@std@@@2@@std@@YAPAV?$vector@MV?$allocator@M@std@@@0@QAV10@0PAV10@AAV?$allocator@V?$vector@MV?$allocator@M@std@@@std@@@0@@Z 10032530 f i FrondEngine.obj
 0001:00031680       ??$_Uninitialized_move@PAV?$vector@USFrondGuide@@V?$allocator@USFrondGuide@@@std@@@std@@V?$allocator@V?$vector@USFrondGuide@@V?$allocator@USFrondGuide@@@std@@@std@@@2@@std@@YAPAV?$vector@USFrondGuide@@V?$allocator@USFrondGuide@@@std@@@0@QAV10@0PAV10@AAV?$allocator@V?$vector@USFrondGuide@@V?$allocator@USFrondGuide@@@std@@@std@@@0@@Z 10032680 f i FrondEngine.obj
 0001:000317d0       ??$_Uninitialized_move@PAVCVec3@@V?$allocator@VCVec3@@@std@@@std@@YAPAVCVec3@@QAV1@0PAV1@AAV?$allocator@VCVec3@@@0@@Z 100327d0 f i FrondEngine.obj
 0001:00031960       ??$addressof@$$CBV?$basic_string@DU?$char_traits@D@std@@V?$allocator@D@2@@std@@@std@@YAPBV?$basic_string@DU?$char_traits@D@std@@V?$allocator@D@2@@0@ABV10@@Z 10032960 f i FrondEngine.obj
 0001:00031980       ??$addressof@$$CBV?$vector@USFrondTexture@@V?$allocator@USFrondTexture@@@std@@@std@@@std@@YAPBV?$vector@USFrondTexture@@V?$allocator@USFrondTexture@@@std@@@0@ABV10@@Z 10032980 f i FrondEngine.obj
 0001:000319a0       ??$addressof@M@std@@YAPAMAAM@Z 100329a0 f i FrondEngine.obj
 0001:000319c0       ??$addressof@USFrondGuide@@@std@@YAPAUSFrondGuide@@AAU1@@Z 100329c0 f i FrondEngine.obj
 0001:000319e0       ??$addressof@USFrondVertex@@@std@@YAPAUSFrondVertex@@AAU1@@Z 100329e0 f i FrondEngine.obj
 0001:00031a00       ??$addressof@V?$_Vector_val@U?$_Simple_types@USFrondGuide@@@std@@@std@@@std@@YAPAV?$_Vector_val@U?$_Simple_types@USFrondGuide@@@std@@@0@AAV10@@Z 10032a00 f i FrondEngine.obj
 0001:00031a20       ??$addressof@V?$vector@USFrondVertex@@V?$allocator@USFrondVertex@@@std@@@std@@@std@@YAPAV?$vector@USFrondVertex@@V?$allocator@USFrondVertex@@@std@@@0@AAV10@@Z 10032a20 f i FrondEngine.obj
 0001:00031a40       ??$addressof@VCVec3@@@std@@YAPAVCVec3@@AAV1@@Z 10032a40 f i FrondEngine.obj
 0001:00031a60       ??$construct@MABM@?$_Default_allocator_traits@V?$allocator@M@std@@@std@@SAXAAV?$allocator@M@1@QAMABM@Z 10032a60 f i FrondEngine.obj
 0001:00031ad0       ??$construct@MM@?$_Default_allocator_traits@V?$allocator@M@std@@@std@@SAXAAV?$allocator@M@1@QAM$$QAM@Z 10032ad0 f i FrondEngine.obj
 0001:00031b40       ??$construct@USFrondGuide@@AAU1@@?$_Default_allocator_traits@V?$allocator@USFrondGuide@@@std@@@std@@SAXAAV?$allocator@USFrondGuide@@@1@QAUSFrondGuide@@AAU3@@Z 10032b40 f i FrondEngine.obj
 0001:00031bc0       ??$construct@USFrondGuide@@ABU1@@?$_Default_allocator_traits@V?$allocator@USFrondGuide@@@std@@@std@@SAXAAV?$allocator@USFrondGuide@@@1@QAUSFrondGuide@@ABU3@@Z 10032bc0 f i FrondEngine.obj
 0001:00031c40       ??$construct@USFrondGuide@@U1@@?$_Default_allocator_traits@V?$allocator@USFrondGuide@@@std@@@std@@SAXAAV?$allocator@USFrondGuide@@@1@QAUSFrondGuide@@$$QAU3@@Z 10032c40 f i FrondEngine.obj
 0001:00031cc0       ??$construct@USFrondTexture@@AAU1@@?$_Default_allocator_traits@V?$allocator@USFrondTexture@@@std@@@std@@SAXAAV?$allocator@USFrondTexture@@@1@QAUSFrondTexture@@AAU3@@Z 10032cc0 f i FrondEngine.obj
 0001:00031d40       ??$construct@USFrondTexture@@ABU1@@?$_Default_allocator_traits@V?$allocator@USFrondTexture@@@std@@@std@@SAXAAV?$allocator@USFrondTexture@@@1@QAUSFrondTexture@@ABU3@@Z 10032d40 f i FrondEngine.obj
 0001:00031dc0       ??$construct@USFrondTexture@@U1@@?$_Default_allocator_traits@V?$allocator@USFrondTexture@@@std@@@std@@SAXAAV?$allocator@USFrondTexture@@@1@QAUSFrondTexture@@$$QAU3@@Z 10032dc0 f i FrondEngine.obj
 0001:00031e40       ??$construct@USFrondVertex@@AAU1@@?$_Default_allocator_traits@V?$allocator@USFrondVertex@@@std@@@std@@SAXAAV?$allocator@USFrondVertex@@@1@QAUSFrondVertex@@AAU3@@Z 10032e40 f i FrondEngine.obj
 0001:00031ec0       ??$construct@USFrondVertex@@ABU1@@?$_Default_allocator_traits@V?$allocator@USFrondVertex@@@std@@@std@@SAXAAV?$allocator@USFrondVertex@@@1@QAUSFrondVertex@@ABU3@@Z 10032ec0 f i FrondEngine.obj
 0001:00031f40       ??$construct@USFrondVertex@@U1@@?$_Default_allocator_traits@V?$allocator@USFrondVertex@@@std@@@std@@SAXAAV?$allocator@USFrondVertex@@@1@QAUSFrondVertex@@$$QAU3@@Z 10032f40 f i FrondEngine.obj
 0001:00031fc0       ??$construct@V?$vector@MV?$allocator@M@std@@@std@@ABV12@@?$_Default_allocator_traits@V?$allocator@V?$vector@MV?$allocator@M@std@@@std@@@std@@@std@@SAXAAV?$allocator@V?$vector@MV?$allocator@M@std@@@std@@@1@QAV?$vector@MV?$allocator@M@std@@@1@ABV31@@Z 10032fc0 f i FrondEngine.obj
 0001:00032040       ??$construct@V?$vector@MV?$allocator@M@std@@@std@@V12@@?$_Default_allocator_traits@V?$allocator@V?$vector@MV?$allocator@M@std@@@std@@@std@@@std@@SAXAAV?$allocator@V?$vector@MV?$allocator@M@std@@@std@@@1@QAV?$vector@MV?$allocator@M@std@@@1@$$QAV31@@Z 10033040 f i FrondEngine.obj
 0001:000320c0       ??$construct@V?$vector@USFrondGuide@@V?$allocator@USFrondGuide@@@std@@@std@@ABV12@@?$_Default_allocator_traits@V?$allocator@V?$vector@USFrondGuide@@V?$allocator@USFrondGuide@@@std@@@std@@@std@@@std@@SAXAAV?$allocator@V?$vector@USFrondGuide@@V?$allocator@USFrondGuide@@@std@@@std@@@1@QAV?$vector@USFrondGuide@@V?$allocator@USFrondGuide@@@std@@@1@ABV31@@Z 100330c0 f i FrondEngine.obj
 0001:00032140       ??$construct@V?$vector@USFrondGuide@@V?$allocator@USFrondGuide@@@std@@@std@@V12@@?$_Default_allocator_traits@V?$allocator@V?$vector@USFrondGuide@@V?$allocator@USFrondGuide@@@std@@@std@@@std@@@std@@SAXAAV?$allocator@V?$vector@USFrondGuide@@V?$allocator@USFrondGuide@@@std@@@std@@@1@QAV?$vector@USFrondGuide@@V?$allocator@USFrondGuide@@@std@@@1@$$QAV31@@Z 10033140 f i FrondEngine.obj
 0001:000321c0       ??$construct@VCVec3@@ABV1@@?$_Default_allocator_traits@V?$allocator@VCVec3@@@std@@@std@@SAXAAV?$allocator@VCVec3@@@1@QAVCVec3@@ABV3@@Z 100331c0 f i FrondEngine.obj
 0001:00032240       ??$construct@VCVec3@@V1@@?$_Default_allocator_traits@V?$allocator@VCVec3@@@std@@@std@@SAXAAV?$allocator@VCVec3@@@1@QAVCVec3@@$$QAV3@@Z 10033240 f i FrondEngine.obj
 0001:000322c0       ??$destroy@USFrondGuide@@@?$_Default_allocator_traits@V?$allocator@USFrondGuide@@@std@@@std@@SAXAAV?$allocator@USFrondGuide@@@1@QAUSFrondGuide@@@Z 100332c0 f i FrondEngine.obj
 0001:00032310       ??$destroy@USFrondTexture@@@?$_Default_allocator_traits@V?$allocator@USFrondTexture@@@std@@@std@@SAXAAV?$allocator@USFrondTexture@@@1@QAUSFrondTexture@@@Z 10033310 f i FrondEngine.obj
 0001:00032360       ??$destroy@V?$vector@MV?$allocator@M@std@@@std@@@?$_Default_allocator_traits@V?$allocator@V?$vector@MV?$allocator@M@std@@@std@@@std@@@std@@SAXAAV?$allocator@V?$vector@MV?$allocator@M@std@@@std@@@1@QAV?$vector@MV?$allocator@M@std@@@1@@Z 10033360 f i FrondEngine.obj
 0001:000323b0       ??$destroy@V?$vector@USFrondGuide@@V?$allocator@USFrondGuide@@@std@@@std@@@?$_Default_allocator_traits@V?$allocator@V?$vector@USFrondGuide@@V?$allocator@USFrondGuide@@@std@@@std@@@std@@@std@@SAXAAV?$allocator@V?$vector@USFrondGuide@@V?$allocator@USFrondGuide@@@std@@@std@@@1@QAV?$vector@USFrondGuide@@V?$allocator@USFrondGuide@@@std@@@1@@Z 100333b0 f i FrondEngine.obj
 0001:00032400       ??$emplace@ABUSFrondGuide@@@?$vector@USFrondGuide@@V?$allocator@USFrondGuide@@@std@@@std@@QAE?AV?$_Vector_iterator@V?$_Vector_val@U?$_Simple_types@USFrondGuide@@@std@@@std@@@1@V?$_Vector_const_iterator@V?$_Vector_val@U?$_Simple_types@USFrondGuide@@@std@@@std@@@1@ABUSFrondGuide@@@Z 10033400 f i FrondEngine.obj
 0001:00032760       ??$exchange@PAM$$T@std@@YAPAMAAPAM$$QA$$T@Z 10033760 f i FrondEngine.obj
 0001:000327a0       ??$exchange@PAUSFrondGuide@@$$T@std@@YAPAUSFrondGuide@@AAPAU1@$$QA$$T@Z 100337a0 f i FrondEngine.obj
 0001:000327e0       ??$exchange@PAUSFrondVertex@@$$T@std@@YAPAUSFrondVertex@@AAPAU1@$$QA$$T@Z 100337e0 f i FrondEngine.obj
 0001:00032820       ??$forward@AAPAUSFrondGuide@@@std@@YAAAPAUSFrondGuide@@AAPAU1@@Z 10033820 f i FrondEngine.obj
 0001:00032840       ??$forward@AAUSFrondGuide@@@std@@YAAAUSFrondGuide@@AAU1@@Z 10033840 f i FrondEngine.obj
 0001:00032860       ??$forward@AAUSFrondTexture@@@std@@YAAAUSFrondTexture@@AAU1@@Z 10033860 f i FrondEngine.obj
 0001:00032880       ??$forward@AAUSFrondVertex@@@std@@YAAAUSFrondVertex@@AAU1@@Z 10033880 f i FrondEngine.obj
 0001:000328a0       ??$forward@ABM@std@@YAABMABM@Z 100338a0 f i FrondEngine.obj
 0001:000328c0       ??$forward@ABQAM@std@@YAABQAMABQAM@Z 100338c0 f i FrondEngine.obj
 0001:000328e0       ??$forward@ABQAUSFrondGuide@@@std@@YAABQAUSFrondGuide@@ABQAU1@@Z 100338e0 f i FrondEngine.obj
 0001:00032900       ??$forward@ABQAUSFrondVertex@@@std@@YAABQAUSFrondVertex@@ABQAU1@@Z 10033900 f i FrondEngine.obj
 0001:00032920       ??$forward@ABUSFrondGuide@@@std@@YAABUSFrondGuide@@ABU1@@Z 10033920 f i FrondEngine.obj
 0001:00032940       ??$forward@ABUSFrondTexture@@@std@@YAABUSFrondTexture@@ABU1@@Z 10033940 f i FrondEngine.obj
 0001:00032960       ??$forward@ABUSFrondVertex@@@std@@YAABUSFrondVertex@@ABU1@@Z 10033960 f i FrondEngine.obj
 0001:00032980       ??$forward@ABV?$vector@MV?$allocator@M@std@@@std@@@std@@YAABV?$vector@MV?$allocator@M@std@@@0@ABV10@@Z 10033980 f i FrondEngine.obj
 0001:000329a0       ??$forward@ABV?$vector@USFrondGuide@@V?$allocator@USFrondGuide@@@std@@@std@@@std@@YAABV?$vector@USFrondGuide@@V?$allocator@USFrondGuide@@@std@@@0@ABV10@@Z 100339a0 f i FrondEngine.obj
 0001:000329c0       ??$forward@ABVCVec3@@@std@@YAABVCVec3@@ABV1@@Z 100339c0 f i FrondEngine.obj
 0001:000329e0       ??$forward@M@std@@YA$$QAMAAM@Z 100339e0 f i FrondEngine.obj
 0001:00032a00       ??$forward@PAM@std@@YA$$QAPAMAAPAM@Z 10033a00 f i FrondEngine.obj
 0001:00032a20       ??$forward@PAUSFrondGuide@@@std@@YA$$QAPAUSFrondGuide@@AAPAU1@@Z 10033a20 f i FrondEngine.obj
 0001:00032a40       ??$forward@PAUSFrondVertex@@@std@@YA$$QAPAUSFrondVertex@@AAPAU1@@Z 10033a40 f i FrondEngine.obj
 0001:00032a60       ??$forward@USFrondGuide@@@std@@YA$$QAUSFrondGuide@@AAU1@@Z 10033a60 f i FrondEngine.obj
 0001:00032a80       ??$forward@USFrondTexture@@@std@@YA$$QAUSFrondTexture@@AAU1@@Z 10033a80 f i FrondEngine.obj
 0001:00032aa0       ??$forward@USFrondVertex@@@std@@YA$$QAUSFrondVertex@@AAU1@@Z 10033aa0 f i FrondEngine.obj
 0001:00032ac0       ??$forward@V?$allocator@M@std@@@std@@YA$$QAV?$allocator@M@0@AAV10@@Z 10033ac0 f i FrondEngine.obj
 0001:00032ae0       ??$forward@V?$allocator@USFrondGuide@@@std@@@std@@YA$$QAV?$allocator@USFrondGuide@@@0@AAV10@@Z 10033ae0 f i FrondEngine.obj
 0001:00032b00       ??$forward@V?$allocator@USFrondVertex@@@std@@@std@@YA$$QAV?$allocator@USFrondVertex@@@0@AAV10@@Z 10033b00 f i FrondEngine.obj
 0001:00032b20       ??$forward@V?$vector@MV?$allocator@M@std@@@std@@@std@@YA$$QAV?$vector@MV?$allocator@M@std@@@0@AAV10@@Z 10033b20 f i FrondEngine.obj
 0001:00032b40       ??$forward@V?$vector@USFrondGuide@@V?$allocator@USFrondGuide@@@std@@@std@@@std@@YA$$QAV?$vector@USFrondGuide@@V?$allocator@USFrondGuide@@@std@@@0@AAV10@@Z 10033b40 f i FrondEngine.obj
 0001:00032b60       ??$forward@VCVec3@@@std@@YA$$QAVCVec3@@AAV1@@Z 10033b60 f i FrondEngine.obj
 0001:00032b80       ??$move@AAM@std@@YA$$QAMAAM@Z 10033b80 f i FrondEngine.obj
 0001:00032ba0       ??$move@AAPAUSFrondGuide@@@std@@YA$$QAPAUSFrondGuide@@AAPAU1@@Z 10033ba0 f i FrondEngine.obj
 0001:00032bc0       ??$move@AAPAUSFrondTexture@@@std@@YA$$QAPAUSFrondTexture@@AAPAU1@@Z 10033bc0 f i FrondEngine.obj
 0001:00032be0       ??$move@AAPAUSFrondVertex@@@std@@YA$$QAPAUSFrondVertex@@AAPAU1@@Z 10033be0 f i FrondEngine.obj
 0001:00032c00       ??$move@AAUSFrondGuide@@@std@@YA$$QAUSFrondGuide@@AAU1@@Z 10033c00 f i FrondEngine.obj
 0001:00032c20       ??$move@AAUSFrondTexture@@@std@@YA$$QAUSFrondTexture@@AAU1@@Z 10033c20 f i FrondEngine.obj
 0001:00032c40       ??$move@AAUSFrondVertex@@@std@@YA$$QAUSFrondVertex@@AAU1@@Z 10033c40 f i FrondEngine.obj
 0001:00032c60       ??$move@AAV?$allocator@M@std@@@std@@YA$$QAV?$allocator@M@0@AAV10@@Z 10033c60 f i FrondEngine.obj
 0001:00032c80       ??$move@AAV?$allocator@USFrondGuide@@@std@@@std@@YA$$QAV?$allocator@USFrondGuide@@@0@AAV10@@Z 10033c80 f i FrondEngine.obj
 0001:00032ca0       ??$move@AAV?$allocator@USFrondVertex@@@std@@@std@@YA$$QAV?$allocator@USFrondVertex@@@0@AAV10@@Z 10033ca0 f i FrondEngine.obj
 0001:00032cc0       ??$move@AAV?$vector@MV?$allocator@M@std@@@std@@@std@@YA$$QAV?$vector@MV?$allocator@M@std@@@0@AAV10@@Z 10033cc0 f i FrondEngine.obj
 0001:00032ce0       ??$move@AAV?$vector@USFrondGuide@@V?$allocator@USFrondGuide@@@std@@@std@@@std@@YA$$QAV?$vector@USFrondGuide@@V?$allocator@USFrondGuide@@@std@@@0@AAV10@@Z 10033ce0 f i FrondEngine.obj
 0001:00032d00       ??$move@AAVCVec3@@@std@@YA$$QAVCVec3@@AAV1@@Z 10033d00 f i FrondEngine.obj
 0001:00032d20       ??$sort@V?$_Vector_iterator@V?$_Vector_val@U?$_Simple_types@USFrondGuide@@@std@@@std@@@std@@VCGuideSorter@@@std@@YAXV?$_Vector_iterator@V?$_Vector_val@U?$_Simple_types@USFrondGuide@@@std@@@std@@@0@0VCGuideSorter@@@Z 10033d20 f i FrondEngine.obj
 0001:00032e40       ??$swap@USFrondGuide@@$0A@@std@@YAXAAUSFrondGuide@@0@Z 10033e40 f i FrondEngine.obj
 0001:00032f10       ??0?$_Uninitialized_backout_al@V?$allocator@USFrondGuide@@@std@@@std@@QAE@PAUSFrondGuide@@AAV?$allocator@USFrondGuide@@@1@@Z 10033f10 f i FrondEngine.obj
 0001:00032f60       ??0?$_Uninitialized_backout_al@V?$allocator@USFrondTexture@@@std@@@std@@QAE@PAUSFrondTexture@@AAV?$allocator@USFrondTexture@@@1@@Z 10033f60 f i FrondEngine.obj
 0001:00032fb0       ??0?$_Uninitialized_backout_al@V?$allocator@USFrondVertex@@@std@@@std@@QAE@PAUSFrondVertex@@AAV?$allocator@USFrondVertex@@@1@@Z 10033fb0 f i FrondEngine.obj
 0001:00033000       ??0?$_Uninitialized_backout_al@V?$allocator@V?$vector@MV?$allocator@M@std@@@std@@@std@@@std@@QAE@PAV?$vector@MV?$allocator@M@std@@@1@AAV?$allocator@V?$vector@MV?$allocator@M@std@@@std@@@1@@Z 10034000 f i FrondEngine.obj
 0001:00033050       ??0?$_Uninitialized_backout_al@V?$allocator@V?$vector@USFrondGuide@@V?$allocator@USFrondGuide@@@std@@@std@@@std@@@std@@QAE@PAV?$vector@USFrondGuide@@V?$allocator@USFrondGuide@@@std@@@1@AAV?$allocator@V?$vector@USFrondGuide@@V?$allocator@USFrondGuide@@@std@@@std@@@1@@Z 10034050 f i FrondEngine.obj
 0001:000330a0       ??0?$_Uninitialized_backout_al@V?$allocator@VCVec3@@@std@@@std@@QAE@PAVCVec3@@AAV?$allocator@VCVec3@@@1@@Z 100340a0 f i FrondEngine.obj
 0001:000330f0       ??0?$_Vector_const_iterator@V?$_Vector_val@U?$_Simple_types@USFrondGuide@@@std@@@std@@@std@@QAE@$$QAV01@@Z 100340f0 f i FrondEngine.obj
 0001:00033160       ??0?$_Vector_const_iterator@V?$_Vector_val@U?$_Simple_types@USFrondGuide@@@std@@@std@@@std@@QAE@ABV01@@Z 10034160 f i FrondEngine.obj
 0001:000331d0       ??0?$_Vector_const_iterator@V?$_Vector_val@U?$_Simple_types@USFrondGuide@@@std@@@std@@@std@@QAE@PAUSFrondGuide@@PBU_Container_base12@1@@Z 100341d0 f i FrondEngine.obj
 0001:00033240       ??0?$_Vector_iterator@V?$_Vector_val@U?$_Simple_types@USFrondGuide@@@std@@@std@@@std@@QAE@$$QAV01@@Z 10034240 f i FrondEngine.obj
 0001:000332a0       ??0?$_Vector_iterator@V?$_Vector_val@U?$_Simple_types@USFrondGuide@@@std@@@std@@@std@@QAE@ABV01@@Z 100342a0 f i FrondEngine.obj
 0001:00033300       ??0?$_Vector_iterator@V?$_Vector_val@U?$_Simple_types@USFrondGuide@@@std@@@std@@@std@@QAE@PAUSFrondGuide@@PBU_Container_base12@1@@Z 10034300 f i FrondEngine.obj
 0001:00033360       ??0?$_Vector_val@U?$_Simple_types@M@std@@@std@@QAE@PAM00@Z 10034360 f i FrondEngine.obj
 0001:000333e0       ??0?$_Vector_val@U?$_Simple_types@M@std@@@std@@QAE@XZ 100343e0 f i FrondEngine.obj
 0001:00033460       ??0?$_Vector_val@U?$_Simple_types@USFrondGuide@@@std@@@std@@QAE@PAUSFrondGuide@@00@Z 10034460 f i FrondEngine.obj
 0001:000334e0       ??0?$_Vector_val@U?$_Simple_types@USFrondGuide@@@std@@@std@@QAE@XZ 100344e0 f i FrondEngine.obj
 0001:00033560       ??0?$_Vector_val@U?$_Simple_types@USFrondTexture@@@std@@@std@@QAE@XZ 10034560 f i FrondEngine.obj
 0001:000335e0       ??0?$_Vector_val@U?$_Simple_types@USFrondVertex@@@std@@@std@@QAE@PAUSFrondVertex@@00@Z 100345e0 f i FrondEngine.obj
 0001:00033660       ??0?$_Vector_val@U?$_Simple_types@USFrondVertex@@@std@@@std@@QAE@XZ 10034660 f i FrondEngine.obj
 0001:000336e0       ??0?$_Vector_val@U?$_Simple_types@V?$vector@MV?$allocator@M@std@@@std@@@std@@@std@@QAE@XZ 100346e0 f i FrondEngine.obj
 0001:00033760       ??0?$_Vector_val@U?$_Simple_types@V?$vector@USFrondGuide@@V?$allocator@USFrondGuide@@@std@@@std@@@std@@@std@@QAE@XZ 10034760 f i FrondEngine.obj
 0001:000337e0       ??0?$_Vector_val@U?$_Simple_types@VCVec3@@@std@@@std@@QAE@XZ 100347e0 f i FrondEngine.obj
 0001:00033860       ??0?$allocator@M@std@@QAE@XZ 10034860 f i FrondEngine.obj
 0001:00033880       ??0?$allocator@USFrondGuide@@@std@@QAE@XZ 10034880 f i FrondEngine.obj
 0001:000338a0       ??0?$allocator@USFrondTexture@@@std@@QAE@XZ 100348a0 f i FrondEngine.obj
 0001:000338c0       ??0?$allocator@USFrondVertex@@@std@@QAE@XZ 100348c0 f i FrondEngine.obj
 0001:000338e0       ??0?$allocator@V?$vector@MV?$allocator@M@std@@@std@@@std@@QAE@XZ 100348e0 f i FrondEngine.obj
 0001:00033900       ??0?$allocator@V?$vector@USFrondGuide@@V?$allocator@USFrondGuide@@@std@@@std@@@std@@QAE@XZ 10034900 f i FrondEngine.obj
 0001:00033920       ??0?$allocator@VCVec3@@@std@@QAE@XZ 10034920 f i FrondEngine.obj
 0001:00033940       ??0?$basic_string@DU?$char_traits@D@std@@V?$allocator@D@2@@std@@QAE@ABV01@@Z 10034940 f i FrondEngine.obj
 0001:00033a20       ??0?$vector@MV?$allocator@M@std@@@std@@QAE@$$QAV01@@Z 10034a20 f i FrondEngine.obj
 0001:00033bb0       ??0?$vector@MV?$allocator@M@std@@@std@@QAE@ABV01@@Z 10034bb0 f i FrondEngine.obj
 0001:00033c70       ??0?$vector@MV?$allocator@M@std@@@std@@QAE@XZ 10034c70 f i FrondEngine.obj
 0001:00033d30       ??0?$vector@USFrondGuide@@V?$allocator@USFrondGuide@@@std@@@std@@QAE@$$QAV01@@Z 10034d30 f i FrondEngine.obj
 0001:00033ec0       ??0?$vector@USFrondGuide@@V?$allocator@USFrondGuide@@@std@@@std@@QAE@ABV01@@Z 10034ec0 f i FrondEngine.obj
 0001:00033f90       ??0?$vector@USFrondGuide@@V?$allocator@USFrondGuide@@@std@@@std@@QAE@XZ 10034f90 f i FrondEngine.obj
 0001:00034050       ??0?$vector@USFrondTexture@@V?$allocator@USFrondTexture@@@std@@@std@@QAE@XZ 10035050 f i FrondEngine.obj
 0001:00034110       ??0?$vector@USFrondVertex@@V?$allocator@USFrondVertex@@@std@@@std@@QAE@$$QAV01@@Z 10035110 f i FrondEngine.obj
 0001:000342a0       ??0?$vector@USFrondVertex@@V?$allocator@USFrondVertex@@@std@@@std@@QAE@ABV01@@Z 100352a0 f i FrondEngine.obj
 0001:00034370       ??0?$vector@USFrondVertex@@V?$allocator@USFrondVertex@@@std@@@std@@QAE@XZ 10035370 f i FrondEngine.obj
 0001:00034430       ??0?$vector@V?$vector@MV?$allocator@M@std@@@std@@V?$allocator@V?$vector@MV?$allocator@M@std@@@std@@@2@@std@@QAE@XZ 10035430 f i FrondEngine.obj
 0001:000344f0       ??0?$vector@V?$vector@USFrondGuide@@V?$allocator@USFrondGuide@@@std@@@std@@V?$allocator@V?$vector@USFrondGuide@@V?$allocator@USFrondGuide@@@std@@@std@@@2@@std@@QAE@XZ 100354f0 f i FrondEngine.obj
 0001:000345b0       ??0?$vector@VCVec3@@V?$allocator@VCVec3@@@std@@@std@@QAE@XZ 100355b0 f i FrondEngine.obj
 0001:00034670       ??0CFrondEngine@@QAE@ABV0@@Z 10035670 f   FrondEngine.obj
 0001:00034740       ??0CFrondEngine@@QAE@XZ    10035740 f   FrondEngine.obj
 0001:000349c0       ??0CIdvFilename@@QAE@$$QAV0@@Z 100359c0 f i FrondEngine.obj
 0001:00034a20       ??0CIdvFilename@@QAE@ABV0@@Z 10035a20 f i FrondEngine.obj
 0001:00034a80       ??0CIdvFilename@@QAE@V?$basic_string@DU?$char_traits@D@std@@V?$allocator@D@2@@std@@@Z 10035a80 f i FrondEngine.obj
 0001:00034b30       ??0CIdvFilename@@QAE@XZ    10035b30 f i FrondEngine.obj
 0001:00034b80       ??0SFrondGuide@@QAE@$$QAU0@@Z 10035b80 f i FrondEngine.obj
 0001:00034c50       ??0SFrondGuide@@QAE@ABU0@@Z 10035c50 f i FrondEngine.obj
 0001:00034d20       ??0SFrondGuide@@QAE@XZ     10035d20 f i FrondEngine.obj
 0001:00034de0       ??0SFrondTexture@@QAE@$$QAU0@@Z 10035de0 f i FrondEngine.obj
 0001:00034e80       ??0SFrondTexture@@QAE@ABU0@@Z 10035e80 f i FrondEngine.obj
 0001:00034f20       ??0SFrondTexture@@QAE@XZ   10035f20 f i FrondEngine.obj
 0001:00034fc0       ??0SFrondVertex@@QAE@XZ    10035fc0 f i FrondEngine.obj
 0001:00035040       ??0_Iterator_base12@std@@QAE@ABU01@@Z 10036040 f i FrondEngine.obj
 0001:000350b0       ??1?$_Alloc_temporary2@V?$allocator@USFrondGuide@@@std@@@std@@QAE@XZ 100360b0 f i FrondEngine.obj
 0001:00035160       ??1?$_Tidy_guard@V?$vector@MV?$allocator@M@std@@@std@@@std@@QAE@XZ 10036160 f i FrondEngine.obj
 0001:000351c0       ??1?$_Tidy_guard@V?$vector@USFrondGuide@@V?$allocator@USFrondGuide@@@std@@@std@@@std@@QAE@XZ 100361c0 f i FrondEngine.obj
 0001:00035220       ??1?$_Tidy_guard@V?$vector@USFrondVertex@@V?$allocator@USFrondVertex@@@std@@@std@@@std@@QAE@XZ 10036220 f i FrondEngine.obj
 0001:00035280       ??1?$_Uninitialized_backout_al@V?$allocator@USFrondGuide@@@std@@@std@@QAE@XZ 10036280 f i FrondEngine.obj
 0001:000352f0       ??1?$_Uninitialized_backout_al@V?$allocator@USFrondTexture@@@std@@@std@@QAE@XZ 100362f0 f i FrondEngine.obj
 0001:00035360       ??1?$_Uninitialized_backout_al@V?$allocator@USFrondVertex@@@std@@@std@@QAE@XZ 10036360 f i FrondEngine.obj
 0001:000353d0       ??1?$_Uninitialized_backout_al@V?$allocator@V?$vector@MV?$allocator@M@std@@@std@@@std@@@std@@QAE@XZ 100363d0 f i FrondEngine.obj
 0001:00035440       ??1?$_Uninitialized_backout_al@V?$allocator@V?$vector@USFrondGuide@@V?$allocator@USFrondGuide@@@std@@@std@@@std@@@std@@QAE@XZ 10036440 f i FrondEngine.obj
 0001:000354b0       ??1?$_Uninitialized_backout_al@V?$allocator@VCVec3@@@std@@@std@@QAE@XZ 100364b0 f i FrondEngine.obj
 0001:00035520       ??1?$_Vector_const_iterator@V?$_Vector_val@U?$_Simple_types@USFrondGuide@@@std@@@std@@@std@@QAE@XZ 10036520 f i FrondEngine.obj
 0001:00035570       ??1?$_Vector_iterator@V?$_Vector_val@U?$_Simple_types@USFrondGuide@@@std@@@std@@@std@@QAE@XZ 10036570 f i FrondEngine.obj
 0001:000355c0       ??1?$vector@MV?$allocator@M@std@@@std@@QAE@XZ 100365c0 f i FrondEngine.obj
 0001:000356a0       ??1?$vector@USFrondGuide@@V?$allocator@USFrondGuide@@@std@@@std@@QAE@XZ 100366a0 f i FrondEngine.obj
 0001:00035780       ??1?$vector@USFrondTexture@@V?$allocator@USFrondTexture@@@std@@@std@@QAE@XZ 10036780 f i FrondEngine.obj
 0001:00035860       ??1?$vector@USFrondVertex@@V?$allocator@USFrondVertex@@@std@@@std@@QAE@XZ 10036860 f i FrondEngine.obj
 0001:00035940       ??1?$vector@V?$vector@MV?$allocator@M@std@@@std@@V?$allocator@V?$vector@MV?$allocator@M@std@@@std@@@2@@std@@QAE@XZ 10036940 f i FrondEngine.obj
 0001:00035a20       ??1?$vector@V?$vector@USFrondGuide@@V?$allocator@USFrondGuide@@@std@@@std@@V?$allocator@V?$vector@USFrondGuide@@V?$allocator@USFrondGuide@@@std@@@std@@@2@@std@@QAE@XZ 10036a20 f i FrondEngine.obj
 0001:00035b00       ??1?$vector@VCVec3@@V?$allocator@VCVec3@@@std@@@std@@QAE@XZ 10036b00 f i FrondEngine.obj
 0001:00035be0       ??1CFrondEngine@@QAE@XZ    10036be0 f   FrondEngine.obj
 0001:00035ca0       ??1CIdvFilename@@QAE@XZ    10036ca0 f i FrondEngine.obj
 0001:00035cf0       ??1SFrondGuide@@QAE@XZ     10036cf0 f i FrondEngine.obj
 0001:00035d40       ??1SFrondTexture@@QAE@XZ   10036d40 f i FrondEngine.obj
 0001:00035d90       ??4?$basic_string@DU?$char_traits@D@std@@V?$allocator@D@2@@std@@QAEAAV01@$$QAV01@@Z 10036d90 f i FrondEngine.obj
 0001:00035e50       ??4?$basic_string@DU?$char_traits@D@std@@V?$allocator@D@2@@std@@QAEAAV01@ABV01@@Z 10036e50 f i FrondEngine.obj
 0001:00035f10       ??4?$vector@USFrondTexture@@V?$allocator@USFrondTexture@@@std@@@std@@QAEAAV01@ABV01@@Z 10036f10 f i FrondEngine.obj
 0001:00035fe0       ??4?$vector@USFrondVertex@@V?$allocator@USFrondVertex@@@std@@@std@@QAEAAV01@$$QAV01@@Z 10036fe0 f i FrondEngine.obj
 0001:000360a0       ??4CFrondEngine@@QAEABV0@ABV0@@Z 100370a0 f   FrondEngine.obj
 0001:00036200       ??4CIdvFilename@@QAEAAV0@$$QAV0@@Z 10037200 f i FrondEngine.obj
 0001:00036260       ??4CIdvFilename@@QAEAAV0@ABV0@@Z 10037260 f i FrondEngine.obj
 0001:000362c0       ??4SFrondGuide@@QAEAAU0@$$QAU0@@Z 100372c0 f i FrondEngine.obj
 0001:00036390       ??4SFrondTexture@@QAEAAU0@ABU0@@Z 10037390 f i FrondEngine.obj
 0001:00036430       ??4_Iterator_base12@std@@QAEAAU01@ABU01@@Z 10037430 f i FrondEngine.obj
 0001:00036490       ??A?$basic_string@DU?$char_traits@D@std@@V?$allocator@D@2@@std@@QBEABDI@Z 10037490 f i FrondEngine.obj
 0001:00036570       ??A?$vector@MV?$allocator@M@std@@@std@@QAEAAMI@Z 10037570 f i FrondEngine.obj
 0001:00036660       ??A?$vector@USFrondGuide@@V?$allocator@USFrondGuide@@@std@@@std@@QAEAAUSFrondGuide@@I@Z 10037660 f i FrondEngine.obj
 0001:00036760       ??A?$vector@USFrondTexture@@V?$allocator@USFrondTexture@@@std@@@std@@QAEAAUSFrondTexture@@I@Z 10037760 f i FrondEngine.obj
 0001:00036860       ??A?$vector@USFrondTexture@@V?$allocator@USFrondTexture@@@std@@@std@@QBEABUSFrondTexture@@I@Z 10037860 f i FrondEngine.obj
 0001:00036960       ??A?$vector@USFrondVertex@@V?$allocator@USFrondVertex@@@std@@@std@@QAEAAUSFrondVertex@@I@Z 10037960 f i FrondEngine.obj
 0001:00036a60       ??A?$vector@V?$vector@MV?$allocator@M@std@@@std@@V?$allocator@V?$vector@MV?$allocator@M@std@@@std@@@2@@std@@QAEAAV?$vector@MV?$allocator@M@std@@@1@I@Z 10037a60 f i FrondEngine.obj
 0001:00036b50       ??A?$vector@V?$vector@USFrondGuide@@V?$allocator@USFrondGuide@@@std@@@std@@V?$allocator@V?$vector@USFrondGuide@@V?$allocator@USFrondGuide@@@std@@@std@@@2@@std@@QAEAAV?$vector@USFrondGuide@@V?$allocator@USFrondGuide@@@std@@@1@I@Z 10037b50 f i FrondEngine.obj
 0001:00036c40       ??A?$vector@VCVec3@@V?$allocator@VCVec3@@@std@@@std@@QAEAAVCVec3@@I@Z 10037c40 f i FrondEngine.obj
 0001:00036d40       ??H?$_Vector_iterator@V?$_Vector_val@U?$_Simple_types@USFrondGuide@@@std@@@std@@@std@@QBE?AV01@H@Z 10037d40 f i FrondEngine.obj
 0001:00036e00       ??R<lambda_9366063389c5f42a00a5088cf24e69de>@@QBE@QADIQBD@Z 10037e00 f i FrondEngine.obj
 0001:00036e80       ??RCGuideSorter@@QAE_NABUSFrondGuide@@0@Z 10037e80 f i FrondEngine.obj
 0001:00036ee0       ??Y?$_Vector_const_iterator@V?$_Vector_val@U?$_Simple_types@USFrondGuide@@@std@@@std@@@std@@QAEAAV01@H@Z 10037ee0 f i FrondEngine.obj
 0001:00036f50       ??Y?$_Vector_iterator@V?$_Vector_val@U?$_Simple_types@USFrondGuide@@@std@@@std@@@std@@QAEAAV01@H@Z 10037f50 f i FrondEngine.obj
 0001:00036fb0       ??_G?$vector@MV?$allocator@M@std@@@std@@QAEPAXI@Z 10037fb0 f i FrondEngine.obj
 0001:00037020       ??_G?$vector@USFrondGuide@@V?$allocator@USFrondGuide@@@std@@@std@@QAEPAXI@Z 10038020 f i FrondEngine.obj
 0001:00037090       ??_GSFrondGuide@@QAEPAXI@Z 10038090 f i FrondEngine.obj
 0001:00037100       ??_GSFrondTexture@@QAEPAXI@Z 10038100 f i FrondEngine.obj
 0001:00037170       ?AddGuideVertex@CFrondEngine@@QAEXVCVec3@@VCRotTransform@@MH@Z 10038170 f   FrondEngine.obj
 0001:00037280       ?BuildBladeVertices@CFrondEngine@@AAEXAAUSFrondGuide@@@Z 10038280 f   FrondEngine.obj
 0001:00038790       ?BuildExtrusionVertices@CFrondEngine@@AAEXAAUSFrondGuide@@@Z 10039790 f   FrondEngine.obj
 0001:00039540       ?BuildGuideLods@CFrondEngine@@AAEXXZ 1003a540 f   FrondEngine.obj
 0001:00039cf0       ?BuildProfileVectors@CFrondEngine@@AAEXAAUSFrondGuide@@AAV?$vector@VCVec3@@V?$allocator@VCVec3@@@std@@@std@@1@Z 1003acf0 f   FrondEngine.obj
 0001:0003a430       ?ClearGuides@CFrondEngine@@QAEXXZ 1003b430 f   FrondEngine.obj
 0001:0003a480       ?Compute@CFrondEngine@@QAEXPAVCIndexedGeometry@@PAVCLightingEngine@@@Z 1003b480 f   FrondEngine.obj
 0001:0003abe0       ?ComputeBlade@CFrondEngine@@AAEXIIAAUSFrondGuide@@@Z 1003bbe0 f   FrondEngine.obj
 0001:0003ad40       ?ComputeExtrusion@CFrondEngine@@AAEXIIAAUSFrondGuide@@@Z 1003bd40 f   FrondEngine.obj
 0001:0003b4b0       ?Enabled@CFrondEngine@@QBE_NXZ 1003c4b0 f   FrondEngine.obj
 0001:0003b4e0       ?EndGuide@CFrondEngine@@QAEXM@Z 1003c4e0 f   FrondEngine.obj
 0001:0003b840       ?GetFrondLightingMethod@CLightingEngine@@QBE?AW4ELightingMethod@CSpeedTreeRT@@XZ 1003c840 f i FrondEngine.obj
 0001:0003b870       ?GetLevel@CFrondEngine@@QBEHXZ 1003c870 f   FrondEngine.obj
 0001:0003b8a0       ?GetVertexCount@CIndexedGeometry@@QBEGXZ 1003c8a0 f i FrondEngine.obj
 0001:0003b9f0       ?NoPath@CIdvFilename@@QBE?AV1@XZ 1003c9f0 f i FrondEngine.obj
 0001:0003bc70       ?Parse@CFrondEngine@@QAEXAAVCTreeFileAccess@@@Z 1003cc70 f   FrondEngine.obj
 0001:0003c250       ?ResetVertexCounter@CIndexedGeometry@@QAEXXZ 1003d250 f i FrondEngine.obj
 0001:0003c280       ?RotateX@CRotTransform@@QAEXM@Z 1003d280 f i FrondEngine.obj
 0001:0003c4f0       ?Save@CFrondEngine@@QBEXAAVCTreeFileAccess@@@Z 1003d4f0 f   FrondEngine.obj
 0001:0003c930       ?SetProfile@CFrondEngine@@AAEXPAVCIdvBezierSpline@@@Z 1003d930 f   FrondEngine.obj
 0001:0003c9d0       ?SetTextureCoords@CFrondEngine@@QAEXPAVCIndexedGeometry@@IPBM_N@Z 1003d9d0 f   FrondEngine.obj
 0001:0003cb30       ?StartGuide@CFrondEngine@@QAEXXZ 1003db30 f   FrondEngine.obj
 0001:0003cc20       ?_Assign_locked@_Iterator_base12@std@@AAEXABU12@@Z 1003dc20 f i FrondEngine.obj
 0001:0003cce0       ?_Assign_unlocked@_Iterator_base12@std@@AAEXABU12@@Z 1003dce0 f i FrondEngine.obj
 0001:0003cd70       ?_Buy_nonzero@?$vector@MV?$allocator@M@std@@@std@@AAEXI@Z 1003dd70 f i FrondEngine.obj
 0001:0003cde0       ?_Buy_nonzero@?$vector@USFrondGuide@@V?$allocator@USFrondGuide@@@std@@@std@@AAEXI@Z 1003dde0 f i FrondEngine.obj
 0001:0003ce50       ?_Buy_nonzero@?$vector@USFrondVertex@@V?$allocator@USFrondVertex@@@std@@@std@@AAEXI@Z 1003de50 f i FrondEngine.obj
 0001:0003cec0       ?_Buy_raw@?$vector@USFrondGuide@@V?$allocator@USFrondGuide@@@std@@@std@@AAEXI@Z 1003dec0 f i FrondEngine.obj
 0001:0003cf70       ?_Buy_raw@?$vector@USFrondTexture@@V?$allocator@USFrondTexture@@@std@@@std@@AAEXI@Z 1003df70 f i FrondEngine.obj
 0001:0003d020       ?_Buy_raw@?$vector@USFrondVertex@@V?$allocator@USFrondVertex@@@std@@@std@@AAEXI@Z 1003e020 f i FrondEngine.obj
 0001:0003d0d0       ?_Calculate_growth@?$vector@USFrondGuide@@V?$allocator@USFrondGuide@@@std@@@std@@ABEII@Z 1003e0d0 f i FrondEngine.obj
 0001:0003d170       ?_Calculate_growth@?$vector@USFrondTexture@@V?$allocator@USFrondTexture@@@std@@@std@@ABEII@Z 1003e170 f i FrondEngine.obj
 0001:0003d210       ?_Calculate_growth@?$vector@USFrondVertex@@V?$allocator@USFrondVertex@@@std@@@std@@ABEII@Z 1003e210 f i FrondEngine.obj
 0001:0003d2b0       ?_Calculate_growth@?$vector@V?$vector@MV?$allocator@M@std@@@std@@V?$allocator@V?$vector@MV?$allocator@M@std@@@std@@@2@@std@@ABEII@Z 1003e2b0 f i FrondEngine.obj
 0001:0003d350       ?_Calculate_growth@?$vector@V?$vector@USFrondGuide@@V?$allocator@USFrondGuide@@@std@@@std@@V?$allocator@V?$vector@USFrondGuide@@V?$allocator@USFrondGuide@@@std@@@std@@@2@@std@@ABEII@Z 1003e350 f i FrondEngine.obj
 0001:0003d3f0       ?_Calculate_growth@?$vector@VCVec3@@V?$allocator@VCVec3@@@std@@@std@@ABEII@Z 1003e3f0 f i FrondEngine.obj
 0001:0003d490       ?_Change_array@?$vector@MV?$allocator@M@std@@@std@@AAEXQAMII@Z 1003e490 f i FrondEngine.obj
 0001:0003d590       ?_Change_array@?$vector@USFrondGuide@@V?$allocator@USFrondGuide@@@std@@@std@@AAEXQAUSFrondGuide@@II@Z 1003e590 f i FrondEngine.obj
 0001:0003d690       ?_Change_array@?$vector@USFrondTexture@@V?$allocator@USFrondTexture@@@std@@@std@@AAEXQAUSFrondTexture@@II@Z 1003e690 f i FrondEngine.obj
 0001:0003d790       ?_Change_array@?$vector@USFrondVertex@@V?$allocator@USFrondVertex@@@std@@@std@@AAEXQAUSFrondVertex@@II@Z 1003e790 f i FrondEngine.obj
 0001:0003d890       ?_Change_array@?$vector@V?$vector@MV?$allocator@M@std@@@std@@V?$allocator@V?$vector@MV?$allocator@M@std@@@std@@@2@@std@@AAEXQAV?$vector@MV?$allocator@M@std@@@2@II@Z 1003e890 f i FrondEngine.obj
 0001:0003d990       ?_Change_array@?$vector@V?$vector@USFrondGuide@@V?$allocator@USFrondGuide@@@std@@@std@@V?$allocator@V?$vector@USFrondGuide@@V?$allocator@USFrondGuide@@@std@@@std@@@2@@std@@AAEXQAV?$vector@USFrondGuide@@V?$allocator@USFrondGuide@@@std@@@2@II@Z 1003e990 f i FrondEngine.obj
 0001:0003da90       ?_Change_array@?$vector@VCVec3@@V?$allocator@VCVec3@@@std@@@std@@AAEXQAVCVec3@@II@Z 1003ea90 f i FrondEngine.obj
 0001:0003db90       ?_Clear_and_reserve_geometric@?$vector@USFrondTexture@@V?$allocator@USFrondTexture@@@std@@@std@@AAEXI@Z 1003eb90 f i FrondEngine.obj
 0001:0003dcc0       ?_Get_first@?$_Compressed_pair@V?$allocator@USFrondGuide@@@std@@V?$_Vector_val@U?$_Simple_types@USFrondGuide@@@std@@@2@$00@std@@QAEAAV?$allocator@USFrondGuide@@@2@XZ 1003ecc0 f i FrondEngine.obj
 0001:0003dce0       ?_Get_first@?$_Compressed_pair@V?$allocator@USFrondGuide@@@std@@V?$_Vector_val@U?$_Simple_types@USFrondGuide@@@std@@@2@$00@std@@QBEABV?$allocator@USFrondGuide@@@2@XZ 1003ece0 f i FrondEngine.obj
 0001:0003dd00       ?_Get_first@?$_Compressed_pair@V?$allocator@USFrondTexture@@@std@@V?$_Vector_val@U?$_Simple_types@USFrondTexture@@@std@@@2@$00@std@@QAEAAV?$allocator@USFrondTexture@@@2@XZ 1003ed00 f i FrondEngine.obj
 0001:0003dd20       ?_Get_first@?$_Compressed_pair@V?$allocator@USFrondTexture@@@std@@V?$_Vector_val@U?$_Simple_types@USFrondTexture@@@std@@@2@$00@std@@QBEABV?$allocator@USFrondTexture@@@2@XZ 1003ed20 f i FrondEngine.obj
 0001:0003dd40       ?_Get_first@?$_Compressed_pair@V?$allocator@USFrondVertex@@@std@@V?$_Vector_val@U?$_Simple_types@USFrondVertex@@@std@@@2@$00@std@@QAEAAV?$allocator@USFrondVertex@@@2@XZ 1003ed40 f i FrondEngine.obj
 0001:0003dd60       ?_Get_first@?$_Compressed_pair@V?$allocator@USFrondVertex@@@std@@V?$_Vector_val@U?$_Simple_types@USFrondVertex@@@std@@@2@$00@std@@QBEABV?$allocator@USFrondVertex@@@2@XZ 1003ed60 f i FrondEngine.obj
 0001:0003dd80       ?_Get_first@?$_Compressed_pair@V?$allocator@V?$vector@MV?$allocator@M@std@@@std@@@std@@V?$_Vector_val@U?$_Simple_types@V?$vector@MV?$allocator@M@std@@@std@@@std@@@2@$00@std@@QAEAAV?$allocator@V?$vector@MV?$allocator@M@std@@@std@@@2@XZ 1003ed80 f i FrondEngine.obj
 0001:0003dda0       ?_Get_first@?$_Compressed_pair@V?$allocator@V?$vector@MV?$allocator@M@std@@@std@@@std@@V?$_Vector_val@U?$_Simple_types@V?$vector@MV?$allocator@M@std@@@std@@@std@@@2@$00@std@@QBEABV?$allocator@V?$vector@MV?$allocator@M@std@@@std@@@2@XZ 1003eda0 f i FrondEngine.obj
 0001:0003ddc0       ?_Get_first@?$_Compressed_pair@V?$allocator@V?$vector@USFrondGuide@@V?$allocator@USFrondGuide@@@std@@@std@@@std@@V?$_Vector_val@U?$_Simple_types@V?$vector@USFrondGuide@@V?$allocator@USFrondGuide@@@std@@@std@@@std@@@2@$00@std@@QAEAAV?$allocator@V?$vector@USFrondGuide@@V?$allocator@USFrondGuide@@@std@@@std@@@2@XZ 1003edc0 f i FrondEngine.obj
 0001:0003dde0       ?_Get_first@?$_Compressed_pair@V?$allocator@V?$vector@USFrondGuide@@V?$allocator@USFrondGuide@@@std@@@std@@@std@@V?$_Vector_val@U?$_Simple_types@V?$vector@USFrondGuide@@V?$allocator@USFrondGuide@@@std@@@std@@@std@@@2@$00@std@@QBEABV?$allocator@V?$vector@USFrondGuide@@V?$allocator@USFrondGuide@@@std@@@std@@@2@XZ 1003ede0 f i FrondEngine.obj
 0001:0003de00       ?_Get_first@?$_Compressed_pair@V?$allocator@VCVec3@@@std@@V?$_Vector_val@U?$_Simple_types@VCVec3@@@std@@@2@$00@std@@QAEAAV?$allocator@VCVec3@@@2@XZ 1003ee00 f i FrondEngine.obj
 0001:0003de20       ?_Get_first@?$_Compressed_pair@V?$allocator@VCVec3@@@std@@V?$_Vector_val@U?$_Simple_types@VCVec3@@@std@@@2@$00@std@@QBEABV?$allocator@VCVec3@@@2@XZ 1003ee20 f i FrondEngine.obj
 0001:0003de40       ?_Get_value@?$_Alloc_temporary2@V?$allocator@USFrondGuide@@@std@@@std@@QAEAAUSFrondGuide@@XZ 1003ee40 f i FrondEngine.obj
 0001:0003de70       ?_Getal@?$vector@USFrondGuide@@V?$allocator@USFrondGuide@@@std@@@std@@AAEAAV?$allocator@USFrondGuide@@@2@XZ 1003ee70 f i FrondEngine.obj
 0001:0003dec0       ?_Getal@?$vector@USFrondGuide@@V?$allocator@USFrondGuide@@@std@@@std@@ABEABV?$allocator@USFrondGuide@@@2@XZ 1003eec0 f i FrondEngine.obj
 0001:0003df10       ?_Getal@?$vector@USFrondTexture@@V?$allocator@USFrondTexture@@@std@@@std@@AAEAAV?$allocator@USFrondTexture@@@2@XZ 1003ef10 f i FrondEngine.obj
 0001:0003df60       ?_Getal@?$vector@USFrondTexture@@V?$allocator@USFrondTexture@@@std@@@std@@ABEABV?$allocator@USFrondTexture@@@2@XZ 1003ef60 f i FrondEngine.obj
 0001:0003dfb0       ?_Getal@?$vector@USFrondVertex@@V?$allocator@USFrondVertex@@@std@@@std@@AAEAAV?$allocator@USFrondVertex@@@2@XZ 1003efb0 f i FrondEngine.obj
 0001:0003e000       ?_Getal@?$vector@USFrondVertex@@V?$allocator@USFrondVertex@@@std@@@std@@ABEABV?$allocator@USFrondVertex@@@2@XZ 1003f000 f i FrondEngine.obj
 0001:0003e050       ?_Getal@?$vector@V?$vector@MV?$allocator@M@std@@@std@@V?$allocator@V?$vector@MV?$allocator@M@std@@@std@@@2@@std@@AAEAAV?$allocator@V?$vector@MV?$allocator@M@std@@@std@@@2@XZ 1003f050 f i FrondEngine.obj
 0001:0003e0a0       ?_Getal@?$vector@V?$vector@MV?$allocator@M@std@@@std@@V?$allocator@V?$vector@MV?$allocator@M@std@@@std@@@2@@std@@ABEABV?$allocator@V?$vector@MV?$allocator@M@std@@@std@@@2@XZ 1003f0a0 f i FrondEngine.obj
 0001:0003e0f0       ?_Getal@?$vector@V?$vector@USFrondGuide@@V?$allocator@USFrondGuide@@@std@@@std@@V?$allocator@V?$vector@USFrondGuide@@V?$allocator@USFrondGuide@@@std@@@std@@@2@@std@@AAEAAV?$allocator@V?$vector@USFrondGuide@@V?$allocator@USFrondGuide@@@std@@@std@@@2@XZ 1003f0f0 f i FrondEngine.obj
 0001:0003e140       ?_Getal@?$vector@V?$vector@USFrondGuide@@V?$allocator@USFrondGuide@@@std@@@std@@V?$allocator@V?$vector@USFrondGuide@@V?$allocator@USFrondGuide@@@std@@@std@@@2@@std@@ABEABV?$allocator@V?$vector@USFrondGuide@@V?$allocator@USFrondGuide@@@std@@@std@@@2@XZ 1003f140 f i FrondEngine.obj
 0001:0003e190       ?_Getal@?$vector@VCVec3@@V?$allocator@VCVec3@@@std@@@std@@AAEAAV?$allocator@VCVec3@@@2@XZ 1003f190 f i FrondEngine.obj
 0001:0003e1e0       ?_Getal@?$vector@VCVec3@@V?$allocator@VCVec3@@@std@@@std@@ABEABV?$allocator@VCVec3@@@2@XZ 1003f1e0 f i FrondEngine.obj
 0001:0003e230       ?_Make_iterator@?$vector@USFrondGuide@@V?$allocator@USFrondGuide@@@std@@@std@@AAE?AV?$_Vector_iterator@V?$_Vector_val@U?$_Simple_types@USFrondGuide@@@std@@@std@@@2@QAUSFrondGuide@@@Z 1003f230 f i FrondEngine.obj
 0001:0003e2a0       ?_Orphan_range@?$vector@MV?$allocator@M@std@@@std@@ABEXPAM0@Z 1003f2a0 f i FrondEngine.obj
 0001:0003e300       ?_Orphan_range@?$vector@USFrondGuide@@V?$allocator@USFrondGuide@@@std@@@std@@ABEXPAUSFrondGuide@@0@Z 1003f300 f i FrondEngine.obj
 0001:0003e360       ?_Orphan_range@?$vector@USFrondTexture@@V?$allocator@USFrondTexture@@@std@@@std@@ABEXPAUSFrondTexture@@0@Z 1003f360 f i FrondEngine.obj
 0001:0003e3c0       ?_Orphan_range@?$vector@USFrondVertex@@V?$allocator@USFrondVertex@@@std@@@std@@ABEXPAUSFrondVertex@@0@Z 1003f3c0 f i FrondEngine.obj
 0001:0003e420       ?_Orphan_range@?$vector@V?$vector@MV?$allocator@M@std@@@std@@V?$allocator@V?$vector@MV?$allocator@M@std@@@std@@@2@@std@@ABEXPAV?$vector@MV?$allocator@M@std@@@2@0@Z 1003f420 f i FrondEngine.obj
 0001:0003e480       ?_Orphan_range@?$vector@V?$vector@USFrondGuide@@V?$allocator@USFrondGuide@@@std@@@std@@V?$allocator@V?$vector@USFrondGuide@@V?$allocator@USFrondGuide@@@std@@@std@@@2@@std@@ABEXPAV?$vector@USFrondGuide@@V?$allocator@USFrondGuide@@@std@@@2@0@Z 1003f480 f i FrondEngine.obj
 0001:0003e4e0       ?_Orphan_range@?$vector@VCVec3@@V?$allocator@VCVec3@@@std@@@std@@ABEXPAVCVec3@@0@Z 1003f4e0 f i FrondEngine.obj
 0001:0003e540       ?_Orphan_range_locked@?$vector@MV?$allocator@M@std@@@std@@ABEXPAM0@Z 1003f540 f i FrondEngine.obj
 0001:0003e650       ?_Orphan_range_locked@?$vector@USFrondGuide@@V?$allocator@USFrondGuide@@@std@@@std@@ABEXPAUSFrondGuide@@0@Z 1003f650 f i FrondEngine.obj
 0001:0003e760       ?_Orphan_range_locked@?$vector@USFrondTexture@@V?$allocator@USFrondTexture@@@std@@@std@@ABEXPAUSFrondTexture@@0@Z 1003f760 f i FrondEngine.obj
 0001:0003e870       ?_Orphan_range_locked@?$vector@USFrondVertex@@V?$allocator@USFrondVertex@@@std@@@std@@ABEXPAUSFrondVertex@@0@Z 1003f870 f i FrondEngine.obj
 0001:0003e980       ?_Orphan_range_locked@?$vector@V?$vector@MV?$allocator@M@std@@@std@@V?$allocator@V?$vector@MV?$allocator@M@std@@@std@@@2@@std@@ABEXPAV?$vector@MV?$allocator@M@std@@@2@0@Z 1003f980 f i FrondEngine.obj
 0001:0003ea90       ?_Orphan_range_locked@?$vector@V?$vector@USFrondGuide@@V?$allocator@USFrondGuide@@@std@@@std@@V?$allocator@V?$vector@USFrondGuide@@V?$allocator@USFrondGuide@@@std@@@std@@@2@@std@@ABEXPAV?$vector@USFrondGuide@@V?$allocator@USFrondGuide@@@std@@@2@0@Z 1003fa90 f i FrondEngine.obj
 0001:0003eba0       ?_Orphan_range_locked@?$vector@VCVec3@@V?$allocator@VCVec3@@@std@@@std@@ABEXPAVCVec3@@0@Z 1003fba0 f i FrondEngine.obj
 0001:0003ecb0       ?_Orphan_range_unlocked@?$vector@MV?$allocator@M@std@@@std@@ABEXPAM0@Z 1003fcb0 f i FrondEngine.obj
 0001:0003ed40       ?_Orphan_range_unlocked@?$vector@USFrondGuide@@V?$allocator@USFrondGuide@@@std@@@std@@ABEXPAUSFrondGuide@@0@Z 1003fd40 f i FrondEngine.obj
 0001:0003edd0       ?_Orphan_range_unlocked@?$vector@USFrondTexture@@V?$allocator@USFrondTexture@@@std@@@std@@ABEXPAUSFrondTexture@@0@Z 1003fdd0 f i FrondEngine.obj
 0001:0003ee60       ?_Orphan_range_unlocked@?$vector@USFrondVertex@@V?$allocator@USFrondVertex@@@std@@@std@@ABEXPAUSFrondVertex@@0@Z 1003fe60 f i FrondEngine.obj
 0001:0003eef0       ?_Orphan_range_unlocked@?$vector@V?$vector@MV?$allocator@M@std@@@std@@V?$allocator@V?$vector@MV?$allocator@M@std@@@std@@@2@@std@@ABEXPAV?$vector@MV?$allocator@M@std@@@2@0@Z 1003fef0 f i FrondEngine.obj
 0001:0003ef80       ?_Orphan_range_unlocked@?$vector@V?$vector@USFrondGuide@@V?$allocator@USFrondGuide@@@std@@@std@@V?$allocator@V?$vector@USFrondGuide@@V?$allocator@USFrondGuide@@@std@@@std@@@2@@std@@ABEXPAV?$vector@USFrondGuide@@V?$allocator@USFrondGuide@@@std@@@2@0@Z 1003ff80 f i FrondEngine.obj
 0001:0003f010       ?_Orphan_range_unlocked@?$vector@VCVec3@@V?$allocator@VCVec3@@@std@@@std@@ABEXPAVCVec3@@0@Z 10040010 f i FrondEngine.obj
 0001:0003f0a0       ?_Release@?$_Uninitialized_backout_al@V?$allocator@USFrondGuide@@@std@@@std@@QAEPAUSFrondGuide@@XZ 100400a0 f i FrondEngine.obj
 0001:0003f0d0       ?_Release@?$_Uninitialized_backout_al@V?$allocator@USFrondTexture@@@std@@@std@@QAEPAUSFrondTexture@@XZ 100400d0 f i FrondEngine.obj
 0001:0003f100       ?_Release@?$_Uninitialized_backout_al@V?$allocator@USFrondVertex@@@std@@@std@@QAEPAUSFrondVertex@@XZ 10040100 f i FrondEngine.obj
 0001:0003f130       ?_Release@?$_Uninitialized_backout_al@V?$allocator@V?$vector@MV?$allocator@M@std@@@std@@@std@@@std@@QAEPAV?$vector@MV?$allocator@M@std@@@2@XZ 10040130 f i FrondEngine.obj
 0001:0003f160       ?_Release@?$_Uninitialized_backout_al@V?$allocator@V?$vector@USFrondGuide@@V?$allocator@USFrondGuide@@@std@@@std@@@std@@@std@@QAEPAV?$vector@USFrondGuide@@V?$allocator@USFrondGuide@@@std@@@2@XZ 10040160 f i FrondEngine.obj
 0001:0003f190       ?_Release@?$_Uninitialized_backout_al@V?$allocator@VCVec3@@@std@@@std@@QAEPAVCVec3@@XZ 10040190 f i FrondEngine.obj
 0001:0003f1c0       ?_Take_contents@?$_Vector_val@U?$_Simple_types@USFrondVertex@@@std@@@std@@QAEXAAV12@@Z 100401c0 f i FrondEngine.obj
 0001:0003f270       ?_Tidy@?$vector@MV?$allocator@M@std@@@std@@AAEXXZ 10040270 f i FrondEngine.obj
 0001:0003f3a0       ?_Tidy@?$vector@USFrondGuide@@V?$allocator@USFrondGuide@@@std@@@std@@AAEXXZ 100403a0 f i FrondEngine.obj
 0001:0003f4e0       ?_Tidy@?$vector@USFrondTexture@@V?$allocator@USFrondTexture@@@std@@@std@@AAEXXZ 100404e0 f i FrondEngine.obj
 0001:0003f620       ?_Tidy@?$vector@USFrondVertex@@V?$allocator@USFrondVertex@@@std@@@std@@AAEXXZ 10040620 f i FrondEngine.obj
 0001:0003f760       ?_Tidy@?$vector@V?$vector@MV?$allocator@M@std@@@std@@V?$allocator@V?$vector@MV?$allocator@M@std@@@std@@@2@@std@@AAEXXZ 10040760 f i FrondEngine.obj
 0001:0003f890       ?_Tidy@?$vector@V?$vector@USFrondGuide@@V?$allocator@USFrondGuide@@@std@@@std@@V?$allocator@V?$vector@USFrondGuide@@V?$allocator@USFrondGuide@@@std@@@std@@@2@@std@@AAEXXZ 10040890 f i FrondEngine.obj
 0001:0003f9c0       ?_Tidy@?$vector@VCVec3@@V?$allocator@VCVec3@@@std@@@std@@AAEXXZ 100409c0 f i FrondEngine.obj
 0001:0003fb00       ?_Unwrapped@?$_Vector_iterator@V?$_Vector_val@U?$_Simple_types@USFrondGuide@@@std@@@std@@@std@@QBEPAUSFrondGuide@@XZ 10040b00 f i FrondEngine.obj
 0001:0003fb60       ?_Verify_offset@?$_Vector_const_iterator@V?$_Vector_val@U?$_Simple_types@USFrondGuide@@@std@@@std@@@std@@QBEXH@Z 10040b60 f i FrondEngine.obj
 0001:0003fe00       ?_Verify_range@std@@YAXABV?$_Vector_const_iterator@V?$_Vector_val@U?$_Simple_types@USFrondGuide@@@std@@@std@@@1@0@Z 10040e00 f i FrondEngine.obj
 0001:0003ff60       ?_Xlength@?$vector@USFrondGuide@@V?$allocator@USFrondGuide@@@std@@@std@@CAXXZ 10040f60 f i FrondEngine.obj
 0001:0003ffb0       ?_Xlength@?$vector@USFrondTexture@@V?$allocator@USFrondTexture@@@std@@@std@@CAXXZ 10040fb0 f i FrondEngine.obj
 0001:00040000       ?_Xlength@?$vector@USFrondVertex@@V?$allocator@USFrondVertex@@@std@@@std@@CAXXZ 10041000 f i FrondEngine.obj
 0001:00040050       ?_Xlength@?$vector@V?$vector@MV?$allocator@M@std@@@std@@V?$allocator@V?$vector@MV?$allocator@M@std@@@std@@@2@@std@@CAXXZ 10041050 f i FrondEngine.obj
 0001:000400a0       ?_Xlength@?$vector@V?$vector@USFrondGuide@@V?$allocator@USFrondGuide@@@std@@@std@@V?$allocator@V?$vector@USFrondGuide@@V?$allocator@USFrondGuide@@@std@@@std@@@2@@std@@CAXXZ 100410a0 f i FrondEngine.obj
 0001:000400f0       ?_Xlength@?$vector@VCVec3@@V?$allocator@VCVec3@@@std@@@std@@CAXXZ 100410f0 f i FrondEngine.obj
 0001:00040140       ?allocate@?$allocator@USFrondGuide@@@std@@QAEPAUSFrondGuide@@I@Z 10041140 f i FrondEngine.obj
 0001:000401a0       ?allocate@?$allocator@USFrondTexture@@@std@@QAEPAUSFrondTexture@@I@Z 100411a0 f i FrondEngine.obj
 0001:00040200       ?allocate@?$allocator@USFrondVertex@@@std@@QAEPAUSFrondVertex@@I@Z 10041200 f i FrondEngine.obj
 0001:00040260       ?allocate@?$allocator@V?$vector@MV?$allocator@M@std@@@std@@@std@@QAEPAV?$vector@MV?$allocator@M@std@@@2@I@Z 10041260 f i FrondEngine.obj
 0001:000402c0       ?allocate@?$allocator@V?$vector@USFrondGuide@@V?$allocator@USFrondGuide@@@std@@@std@@@std@@QAEPAV?$vector@USFrondGuide@@V?$allocator@USFrondGuide@@@std@@@2@I@Z 100412c0 f i FrondEngine.obj
 0001:00040320       ?allocate@?$allocator@VCVec3@@@std@@QAEPAVCVec3@@I@Z 10041320 f i FrondEngine.obj
 0001:00040380       ?assign@?$basic_string@DU?$char_traits@D@std@@V?$allocator@D@2@@std@@QAEAAV12@QBDI@Z 10041380 f i FrondEngine.obj
 0001:00040460       ?begin@?$vector@USFrondGuide@@V?$allocator@USFrondGuide@@@std@@@std@@QAE?AV?$_Vector_iterator@V?$_Vector_val@U?$_Simple_types@USFrondGuide@@@std@@@std@@@2@XZ 10041460 f i FrondEngine.obj
 0001:000404e0       ?capacity@?$vector@USFrondGuide@@V?$allocator@USFrondGuide@@@std@@@std@@QBEIXZ 100414e0 f i FrondEngine.obj
 0001:00040520       ?capacity@?$vector@USFrondTexture@@V?$allocator@USFrondTexture@@@std@@@std@@QBEIXZ 10041520 f i FrondEngine.obj
 0001:00040560       ?capacity@?$vector@USFrondVertex@@V?$allocator@USFrondVertex@@@std@@@std@@QBEIXZ 10041560 f i FrondEngine.obj
 0001:000405a0       ?capacity@?$vector@V?$vector@MV?$allocator@M@std@@@std@@V?$allocator@V?$vector@MV?$allocator@M@std@@@std@@@2@@std@@QBEIXZ 100415a0 f i FrondEngine.obj
 0001:000405e0       ?capacity@?$vector@V?$vector@USFrondGuide@@V?$allocator@USFrondGuide@@@std@@@std@@V?$allocator@V?$vector@USFrondGuide@@V?$allocator@USFrondGuide@@@std@@@std@@@2@@std@@QBEIXZ 100415e0 f i FrondEngine.obj
 0001:00040620       ?capacity@?$vector@VCVec3@@V?$allocator@VCVec3@@@std@@@std@@QBEIXZ 10041620 f i FrondEngine.obj
 0001:00040660       ?clear@?$vector@USFrondGuide@@V?$allocator@USFrondGuide@@@std@@@std@@QAEXXZ 10041660 f i FrondEngine.obj
 0001:00040710       ?clear@?$vector@USFrondTexture@@V?$allocator@USFrondTexture@@@std@@@std@@QAEXXZ 10041710 f i FrondEngine.obj
 0001:000407c0       ?deallocate@?$allocator@USFrondGuide@@@std@@QAEXQAUSFrondGuide@@I@Z 100417c0 f i FrondEngine.obj
 0001:000408b0       ?deallocate@?$allocator@USFrondTexture@@@std@@QAEXQAUSFrondTexture@@I@Z 100418b0 f i FrondEngine.obj
 0001:000409a0       ?deallocate@?$allocator@USFrondVertex@@@std@@QAEXQAUSFrondVertex@@I@Z 100419a0 f i FrondEngine.obj
 0001:00040a90       ?deallocate@?$allocator@V?$vector@MV?$allocator@M@std@@@std@@@std@@QAEXQAV?$vector@MV?$allocator@M@std@@@2@I@Z 10041a90 f i FrondEngine.obj
 0001:00040b80       ?deallocate@?$allocator@V?$vector@USFrondGuide@@V?$allocator@USFrondGuide@@@std@@@std@@@std@@QAEXQAV?$vector@USFrondGuide@@V?$allocator@USFrondGuide@@@std@@@2@I@Z 10041b80 f i FrondEngine.obj
 0001:00040c70       ?deallocate@?$allocator@VCVec3@@@std@@QAEXQAVCVec3@@I@Z 10041c70 f i FrondEngine.obj
 0001:00040d60       ?end@?$vector@USFrondGuide@@V?$allocator@USFrondGuide@@@std@@@std@@QAE?AV?$_Vector_iterator@V?$_Vector_val@U?$_Simple_types@USFrondGuide@@@std@@@std@@@2@XZ 10041d60 f i FrondEngine.obj
 0001:00040de0       ?erase@?$vector@USFrondGuide@@V?$allocator@USFrondGuide@@@std@@@std@@QAE?AV?$_Vector_iterator@V?$_Vector_val@U?$_Simple_types@USFrondGuide@@@std@@@std@@@2@V?$_Vector_const_iterator@V?$_Vector_val@U?$_Simple_types@USFrondGuide@@@std@@@std@@@2@@Z 10041de0 f i FrondEngine.obj
 0001:00040fe0       ?insert@?$vector@USFrondGuide@@V?$allocator@USFrondGuide@@@std@@@std@@QAE?AV?$_Vector_iterator@V?$_Vector_val@U?$_Simple_types@USFrondGuide@@@std@@@std@@@2@V?$_Vector_const_iterator@V?$_Vector_val@U?$_Simple_types@USFrondGuide@@@std@@@std@@@2@ABUSFrondGuide@@@Z 10041fe0 f i FrondEngine.obj
 0001:000410d0       ?max_size@?$_Default_allocator_traits@V?$allocator@USFrondGuide@@@std@@@std@@SAIABV?$allocator@USFrondGuide@@@2@@Z 100420d0 f i FrondEngine.obj
 0001:000410f0       ?max_size@?$_Default_allocator_traits@V?$allocator@USFrondTexture@@@std@@@std@@SAIABV?$allocator@USFrondTexture@@@2@@Z 100420f0 f i FrondEngine.obj
 0001:00041110       ?max_size@?$_Default_allocator_traits@V?$allocator@USFrondVertex@@@std@@@std@@SAIABV?$allocator@USFrondVertex@@@2@@Z 10042110 f i FrondEngine.obj
 0001:00041130       ?max_size@?$_Default_allocator_traits@V?$allocator@V?$vector@MV?$allocator@M@std@@@std@@@std@@@std@@SAIABV?$allocator@V?$vector@MV?$allocator@M@std@@@std@@@2@@Z 10042130 f i FrondEngine.obj
 0001:00041150       ?max_size@?$_Default_allocator_traits@V?$allocator@V?$vector@USFrondGuide@@V?$allocator@USFrondGuide@@@std@@@std@@@std@@@std@@SAIABV?$allocator@V?$vector@USFrondGuide@@V?$allocator@USFrondGuide@@@std@@@std@@@2@@Z 10042150 f i FrondEngine.obj
 0001:00041170       ?max_size@?$_Default_allocator_traits@V?$allocator@VCVec3@@@std@@@std@@SAIABV?$allocator@VCVec3@@@2@@Z 10042170 f i FrondEngine.obj
 0001:00041190       ?max_size@?$vector@USFrondGuide@@V?$allocator@USFrondGuide@@@std@@@std@@QBEIXZ 10042190 f i FrondEngine.obj
 0001:00041220       ?max_size@?$vector@USFrondTexture@@V?$allocator@USFrondTexture@@@std@@@std@@QBEIXZ 10042220 f i FrondEngine.obj
 0001:000412b0       ?max_size@?$vector@USFrondVertex@@V?$allocator@USFrondVertex@@@std@@@std@@QBEIXZ 100422b0 f i FrondEngine.obj
 0001:00041340       ?max_size@?$vector@V?$vector@MV?$allocator@M@std@@@std@@V?$allocator@V?$vector@MV?$allocator@M@std@@@std@@@2@@std@@QBEIXZ 10042340 f i FrondEngine.obj
 0001:000413d0       ?max_size@?$vector@V?$vector@USFrondGuide@@V?$allocator@USFrondGuide@@@std@@@std@@V?$allocator@V?$vector@USFrondGuide@@V?$allocator@USFrondGuide@@@std@@@std@@@2@@std@@QBEIXZ 100423d0 f i FrondEngine.obj
 0001:00041460       ?max_size@?$vector@VCVec3@@V?$allocator@VCVec3@@@std@@@std@@QBEIXZ 10042460 f i FrondEngine.obj
 0001:000414f0       ?push_back@?$vector@MV?$allocator@M@std@@@std@@QAEX$$QAM@Z 100424f0 f i FrondEngine.obj
 0001:00041550       ?push_back@?$vector@MV?$allocator@M@std@@@std@@QAEXABM@Z 10042550 f i FrondEngine.obj
 0001:000415b0       ?push_back@?$vector@USFrondGuide@@V?$allocator@USFrondGuide@@@std@@@std@@QAEXABUSFrondGuide@@@Z 100425b0 f i FrondEngine.obj
 0001:00041610       ?push_back@?$vector@USFrondTexture@@V?$allocator@USFrondTexture@@@std@@@std@@QAEXABUSFrondTexture@@@Z 10042610 f i FrondEngine.obj
 0001:00041670       ?push_back@?$vector@USFrondVertex@@V?$allocator@USFrondVertex@@@std@@@std@@QAEXABUSFrondVertex@@@Z 10042670 f i FrondEngine.obj
 0001:000416d0       ?push_back@?$vector@V?$vector@MV?$allocator@M@std@@@std@@V?$allocator@V?$vector@MV?$allocator@M@std@@@std@@@2@@std@@QAEXABV?$vector@MV?$allocator@M@std@@@2@@Z 100426d0 f i FrondEngine.obj
 0001:00041730       ?push_back@?$vector@V?$vector@USFrondGuide@@V?$allocator@USFrondGuide@@@std@@@std@@V?$allocator@V?$vector@USFrondGuide@@V?$allocator@USFrondGuide@@@std@@@std@@@2@@std@@QAEXABV?$vector@USFrondGuide@@V?$allocator@USFrondGuide@@@std@@@2@@Z 10042730 f i FrondEngine.obj
 0001:00041790       ?push_back@?$vector@VCVec3@@V?$allocator@VCVec3@@@std@@@std@@QAEXABVCVec3@@@Z 10042790 f i FrondEngine.obj
 0001:000417f0       ?select_on_container_copy_construction@?$_Default_allocator_traits@V?$allocator@M@std@@@std@@SA?AV?$allocator@M@2@ABV32@@Z 100427f0 f i FrondEngine.obj
 0001:00041810       ?select_on_container_copy_construction@?$_Default_allocator_traits@V?$allocator@USFrondGuide@@@std@@@std@@SA?AV?$allocator@USFrondGuide@@@2@ABV32@@Z 10042810 f i FrondEngine.obj
 0001:00041830       ?select_on_container_copy_construction@?$_Default_allocator_traits@V?$allocator@USFrondVertex@@@std@@@std@@SA?AV?$allocator@USFrondVertex@@@2@ABV32@@Z 10042830 f i FrondEngine.obj
 0001:00041850       ?size@?$vector@MV?$allocator@M@std@@@std@@QBEIXZ 10042850 f i FrondEngine.obj
 0001:00041890       ?size@?$vector@USFrondGuide@@V?$allocator@USFrondGuide@@@std@@@std@@QBEIXZ 10042890 f i FrondEngine.obj
 0001:000418d0       ?size@?$vector@USFrondTexture@@V?$allocator@USFrondTexture@@@std@@@std@@QBEIXZ 100428d0 f i FrondEngine.obj
 0001:00041910       ?size@?$vector@USFrondVertex@@V?$allocator@USFrondVertex@@@std@@@std@@QBEIXZ 10042910 f i FrondEngine.obj
 0001:00041950       ?size@?$vector@V?$vector@USFrondGuide@@V?$allocator@USFrondGuide@@@std@@@std@@V?$allocator@V?$vector@USFrondGuide@@V?$allocator@USFrondGuide@@@std@@@std@@@2@@std@@QBEIXZ 10042950 f i FrondEngine.obj
 0001:00041990       ?size@?$vector@VCVec3@@V?$allocator@VCVec3@@@std@@@std@@QBEIXZ 10042990 f i FrondEngine.obj
 0001:000419d0       ___local_stdio_printf_options 100429d0 f i FrondEngine.obj
 0001:000419f0       __vsnprintf_l              100429f0 f i FrondEngine.obj
 0001:00041aa0       _atan2f                    10042aa0 f i FrondEngine.obj
 0001:00041b20       _vsprintf                  10042b20 f i FrondEngine.obj
 0001:00041b80       ??$?0$$V@?$_Compressed_pair@V?$allocator@E@std@@V?$_Vector_val@U?$_Simple_types@E@std@@@2@$00@std@@QAE@U_Zero_then_variadic_args_t@1@@Z 10042b80 f i IndexedGeometry.obj
 0001:00041be0       ??$?0$$V@?$_Compressed_pair@V?$allocator@G@std@@V?$_Vector_val@U?$_Simple_types@G@std@@@2@$00@std@@QAE@U_Zero_then_variadic_args_t@1@@Z 10042be0 f i IndexedGeometry.obj
 0001:00041c40       ??$?0$$V@?$_Compressed_pair@V?$allocator@K@std@@V?$_Vector_val@U?$_Simple_types@K@std@@@2@$00@std@@QAE@U_Zero_then_variadic_args_t@1@@Z 10042c40 f i IndexedGeometry.obj
 0001:00041ca0       ??$?0$$V@?$_Compressed_pair@V?$allocator@PAG@std@@V?$_Vector_val@U?$_Simple_types@PAG@std@@@2@$00@std@@QAE@U_Zero_then_variadic_args_t@1@@Z 10042ca0 f i IndexedGeometry.obj
 0001:00041d00       ??$?0$$V@?$_Compressed_pair@V?$allocator@V?$vector@GV?$allocator@G@std@@@std@@@std@@V?$_Vector_val@U?$_Simple_types@V?$vector@GV?$allocator@G@std@@@std@@@std@@@2@$00@std@@QAE@U_Zero_then_variadic_args_t@1@@Z 10042d00 f i IndexedGeometry.obj
 0001:00041d60       ??$?0$$V@?$_Compressed_pair@V?$allocator@V?$vector@PAGV?$allocator@PAG@std@@@std@@@std@@V?$_Vector_val@U?$_Simple_types@V?$vector@PAGV?$allocator@PAG@std@@@std@@@std@@@2@$00@std@@QAE@U_Zero_then_variadic_args_t@1@@Z 10042d60 f i IndexedGeometry.obj
 0001:00041dc0       ??$?0ABV?$allocator@H@std@@$$V@?$_Compressed_pair@V?$allocator@H@std@@V?$_Vector_val@U?$_Simple_types@H@std@@@2@$00@std@@QAE@U_One_then_variadic_args_t@1@ABV?$allocator@H@1@@Z 10042dc0 f i IndexedGeometry.obj
 0001:00041e30       ??$?0ABV?$allocator@V?$vector@GV?$allocator@G@std@@@std@@@std@@$$V@?$_Compressed_pair@V?$allocator@V?$vector@GV?$allocator@G@std@@@std@@@std@@V?$_Vector_val@U?$_Simple_types@V?$vector@GV?$allocator@G@std@@@std@@@std@@@2@$00@std@@QAE@U_One_then_variadic_args_t@1@ABV?$allocator@V?$vector@GV?$allocator@G@std@@@std@@@1@@Z 10042e30 f i IndexedGeometry.obj
 0001:00041ea0       ??$?0ABV?$allocator@V?$vector@PAGV?$allocator@PAG@std@@@std@@@std@@$$V@?$_Compressed_pair@V?$allocator@V?$vector@PAGV?$allocator@PAG@std@@@std@@@std@@V?$_Vector_val@U?$_Simple_types@V?$vector@PAGV?$allocator@PAG@std@@@std@@@std@@@2@$00@std@@QAE@U_One_then_variadic_args_t@1@ABV?$allocator@V?$vector@PAGV?$allocator@PAG@std@@@std@@@1@@Z 10042ea0 f i IndexedGeometry.obj
 0001:00041f10       ??$?0E@?$allocator@U_Container_proxy@std@@@std@@QAE@ABV?$allocator@E@1@@Z 10042f10 f i IndexedGeometry.obj
 0001:00041f40       ??$?0G@?$allocator@U_Container_proxy@std@@@std@@QAE@ABV?$allocator@G@1@@Z 10042f40 f i IndexedGeometry.obj
 0001:00041f70       ??$?0K@?$allocator@U_Container_proxy@std@@@std@@QAE@ABV?$allocator@K@1@@Z 10042f70 f i IndexedGeometry.obj
 0001:00041fa0       ??$?0PAG@?$allocator@U_Container_proxy@std@@@std@@QAE@ABV?$allocator@PAG@1@@Z 10042fa0 f i IndexedGeometry.obj
 0001:00041fd0       ??$?0V?$allocator@G@std@@$$V@?$_Compressed_pair@V?$allocator@G@std@@V?$_Vector_val@U?$_Simple_types@G@std@@@2@$00@std@@QAE@U_One_then_variadic_args_t@1@$$QAV?$allocator@G@1@@Z 10042fd0 f i IndexedGeometry.obj
 0001:00042040       ??$?0V?$allocator@G@std@@PAGPAGPAG@?$_Compressed_pair@V?$allocator@G@std@@V?$_Vector_val@U?$_Simple_types@G@std@@@2@$00@std@@QAE@U_One_then_variadic_args_t@1@$$QAV?$allocator@G@1@$$QAPAG22@Z 10043040 f i IndexedGeometry.obj
 0001:000420e0       ??$?0V?$allocator@PAG@std@@$$V@?$_Compressed_pair@V?$allocator@PAG@std@@V?$_Vector_val@U?$_Simple_types@PAG@std@@@2@$00@std@@QAE@U_One_then_variadic_args_t@1@$$QAV?$allocator@PAG@1@@Z 100430e0 f i IndexedGeometry.obj
 0001:00042150       ??$?0V?$allocator@PAG@std@@PAPAGPAPAGPAPAG@?$_Compressed_pair@V?$allocator@PAG@std@@V?$_Vector_val@U?$_Simple_types@PAG@std@@@2@$00@std@@QAE@U_One_then_variadic_args_t@1@$$QAV?$allocator@PAG@1@$$QAPAPAG22@Z 10043150 f i IndexedGeometry.obj
 0001:000421f0       ??$?0V?$vector@GV?$allocator@G@std@@@std@@@?$allocator@U_Container_proxy@std@@@std@@QAE@ABV?$allocator@V?$vector@GV?$allocator@G@std@@@std@@@1@@Z 100431f0 f i IndexedGeometry.obj
 0001:00042220       ??$?0V?$vector@PAGV?$allocator@PAG@std@@@std@@@?$allocator@U_Container_proxy@std@@@std@@QAE@ABV?$allocator@V?$vector@PAGV?$allocator@PAG@std@@@std@@@1@@Z 10043220 f i IndexedGeometry.obj
 0001:00042250       ??$_Allocate_at_least_helper@V?$allocator@G@std@@@std@@YAPAGAAV?$allocator@G@0@AAI@Z 10043250 f i IndexedGeometry.obj
 0001:000422a0       ??$_Allocate_at_least_helper@V?$allocator@K@std@@@std@@YAPAKAAV?$allocator@K@0@AAI@Z 100432a0 f i IndexedGeometry.obj
 0001:000422f0       ??$_Allocate_at_least_helper@V?$allocator@PAG@std@@@std@@YAPAPAGAAV?$allocator@PAG@0@AAI@Z 100432f0 f i IndexedGeometry.obj
 0001:00042340       ??$_Allocate_at_least_helper@V?$allocator@V?$vector@GV?$allocator@G@std@@@std@@@std@@@std@@YAPAV?$vector@GV?$allocator@G@std@@@0@AAV?$allocator@V?$vector@GV?$allocator@G@std@@@std@@@0@AAI@Z 10043340 f i IndexedGeometry.obj
 0001:00042390       ??$_Allocate_at_least_helper@V?$allocator@V?$vector@PAGV?$allocator@PAG@std@@@std@@@std@@@std@@YAPAV?$vector@PAGV?$allocator@PAG@std@@@0@AAV?$allocator@V?$vector@PAGV?$allocator@PAG@std@@@std@@@0@AAI@Z 10043390 f i IndexedGeometry.obj
 0001:000423e0       ??$_Assign_counted_range@PAG@?$vector@GV?$allocator@G@std@@@std@@AAEXPAGI@Z 100433e0 f i IndexedGeometry.obj
 0001:00042620       ??$_Assign_counted_range@PAH@?$vector@HV?$allocator@H@std@@@std@@AAEXPAHI@Z 10043620 f i IndexedGeometry.obj
 0001:00042860       ??$_Assign_counted_range@PAPAG@?$vector@PAGV?$allocator@PAG@std@@@std@@AAEXPAPAGI@Z 10043860 f i IndexedGeometry.obj
 0001:00042aa0       ??$_Assign_counted_range@PAV?$vector@GV?$allocator@G@std@@@std@@@?$vector@V?$vector@GV?$allocator@G@std@@@std@@V?$allocator@V?$vector@GV?$allocator@G@std@@@std@@@2@@std@@AAEXPAV?$vector@GV?$allocator@G@std@@@1@I@Z 10043aa0 f i IndexedGeometry.obj
 0001:00042cb0       ??$_Assign_counted_range@PAV?$vector@PAGV?$allocator@PAG@std@@@std@@@?$vector@V?$vector@PAGV?$allocator@PAG@std@@@std@@V?$allocator@V?$vector@PAGV?$allocator@PAG@std@@@std@@@2@@std@@AAEXPAV?$vector@PAGV?$allocator@PAG@std@@@1@I@Z 10043cb0 f i IndexedGeometry.obj
 0001:00042ec0       ??$_Construct_in_place@GG@std@@YAXAAG$$QAG@Z 10043ec0 f i IndexedGeometry.obj
 0001:00042f40       ??$_Construct_in_place@KABK@std@@YAXAAKABK@Z 10043f40 f i IndexedGeometry.obj
 0001:00042fc0       ??$_Construct_in_place@PAGABQAG@std@@YAXAAPAGABQAG@Z 10043fc0 f i IndexedGeometry.obj
 0001:00043040       ??$_Construct_n@$$V@?$vector@HV?$allocator@H@std@@@std@@AAEXI@Z 10044040 f i IndexedGeometry.obj
 0001:000431f0       ??$_Construct_n@$$V@?$vector@V?$vector@GV?$allocator@G@std@@@std@@V?$allocator@V?$vector@GV?$allocator@G@std@@@std@@@2@@std@@AAEXI@Z 100441f0 f i IndexedGeometry.obj
 0001:000433a0       ??$_Construct_n@$$V@?$vector@V?$vector@PAGV?$allocator@PAG@std@@@std@@V?$allocator@V?$vector@PAGV?$allocator@PAG@std@@@std@@@2@@std@@AAEXI@Z 100443a0 f i IndexedGeometry.obj
 0001:00043550       ??$_Construct_n@ABQAGABQAG@?$vector@GV?$allocator@G@std@@@std@@AAEXIABQAG0@Z 10044550 f i IndexedGeometry.obj
 0001:00043720       ??$_Construct_n@ABQAPAGABQAPAG@?$vector@PAGV?$allocator@PAG@std@@@std@@AAEXIABQAPAG0@Z 10044720 f i IndexedGeometry.obj
 0001:000438f0       ??$_Copy_memmove@PAGPAG@std@@YAPAGPAG00@Z 100448f0 f i IndexedGeometry.obj
 0001:000439b0       ??$_Copy_memmove@PAKPAK@std@@YAPAKPAK00@Z 100449b0 f i IndexedGeometry.obj
 0001:00043a70       ??$_Copy_memmove@PAPAGPAPAG@std@@YAPAPAGPAPAG00@Z 10044a70 f i IndexedGeometry.obj
 0001:00043b30       ??$_Copy_memmove_n@PAGPAG@std@@YAPAGPAGI0@Z 10044b30 f i IndexedGeometry.obj
 0001:00043ba0       ??$_Copy_memmove_n@PAHPAH@std@@YAPAHPAHI0@Z 10044ba0 f i IndexedGeometry.obj
 0001:00043c10       ??$_Copy_memmove_n@PAPAGPAPAG@std@@YAPAPAGPAPAGI0@Z 10044c10 f i IndexedGeometry.obj
 0001:00043c80       ??$_Copy_n_unchecked4@PAGIPAG@std@@YAPAGPAGI0@Z 10044c80 f i IndexedGeometry.obj
 0001:00043d20       ??$_Copy_n_unchecked4@PAHIPAH@std@@YAPAHPAHI0@Z 10044d20 f i IndexedGeometry.obj
 0001:00043db0       ??$_Copy_n_unchecked4@PAPAGIPAPAG@std@@YAPAPAGPAPAGI0@Z 10044db0 f i IndexedGeometry.obj
 0001:00043e40       ??$_Copy_n_unchecked4@PAV?$vector@GV?$allocator@G@std@@@std@@IPAV12@@std@@YAPAV?$vector@GV?$allocator@G@std@@@0@PAV10@I0@Z 10044e40 f i IndexedGeometry.obj
 0001:00043ec0       ??$_Copy_n_unchecked4@PAV?$vector@PAGV?$allocator@PAG@std@@@std@@IPAV12@@std@@YAPAV?$vector@PAGV?$allocator@PAG@std@@@0@PAV10@I0@Z 10044ec0 f i IndexedGeometry.obj
 0001:00043f40       ??$_Destroy_range@V?$allocator@G@std@@@std@@YAXPAGQAGAAV?$allocator@G@0@@Z 10044f40 f i IndexedGeometry.obj
 0001:00043f60       ??$_Destroy_range@V?$allocator@K@std@@@std@@YAXPAKQAKAAV?$allocator@K@0@@Z 10044f60 f i IndexedGeometry.obj
 0001:00043f80       ??$_Destroy_range@V?$allocator@PAG@std@@@std@@YAXPAPAGQAPAGAAV?$allocator@PAG@0@@Z 10044f80 f i IndexedGeometry.obj
 0001:00043fa0       ??$_Destroy_range@V?$allocator@V?$vector@GV?$allocator@G@std@@@std@@@std@@@std@@YAXPAV?$vector@GV?$allocator@G@std@@@0@QAV10@AAV?$allocator@V?$vector@GV?$allocator@G@std@@@std@@@0@@Z 10044fa0 f i IndexedGeometry.obj
 0001:00044050       ??$_Destroy_range@V?$allocator@V?$vector@PAGV?$allocator@PAG@std@@@std@@@std@@@std@@YAXPAV?$vector@PAGV?$allocator@PAG@std@@@0@QAV10@AAV?$allocator@V?$vector@PAGV?$allocator@PAG@std@@@std@@@0@@Z 10045050 f i IndexedGeometry.obj
 0001:00044100       ??$_Emplace_back@$$V@?$_Uninitialized_backout_al@V?$allocator@E@std@@@std@@QAEXXZ 10045100 f i IndexedGeometry.obj
 0001:00044180       ??$_Emplace_back@$$V@?$_Uninitialized_backout_al@V?$allocator@G@std@@@std@@QAEXXZ 10045180 f i IndexedGeometry.obj
 0001:00044200       ??$_Emplace_back@$$V@?$_Uninitialized_backout_al@V?$allocator@H@std@@@std@@QAEXXZ 10045200 f i IndexedGeometry.obj
 0001:00044280       ??$_Emplace_back@$$V@?$_Uninitialized_backout_al@V?$allocator@M@std@@@std@@QAEXXZ 10045280 f i IndexedGeometry.obj
 0001:00044300       ??$_Emplace_back@$$V@?$_Uninitialized_backout_al@V?$allocator@PAG@std@@@std@@QAEXXZ 10045300 f i IndexedGeometry.obj
 0001:00044380       ??$_Emplace_back@$$V@?$_Uninitialized_backout_al@V?$allocator@V?$vector@GV?$allocator@G@std@@@std@@@std@@@std@@QAEXXZ 10045380 f i IndexedGeometry.obj
 0001:00044400       ??$_Emplace_back@$$V@?$_Uninitialized_backout_al@V?$allocator@V?$vector@PAGV?$allocator@PAG@std@@@std@@@std@@@std@@QAEXXZ 10045400 f i IndexedGeometry.obj
 0001:00044480       ??$_Emplace_back@AAG@?$_Uninitialized_backout_al@V?$allocator@G@std@@@std@@QAEXAAG@Z 10045480 f i IndexedGeometry.obj
 0001:00044510       ??$_Emplace_back@AAH@?$_Uninitialized_backout_al@V?$allocator@H@std@@@std@@QAEXAAH@Z 10045510 f i IndexedGeometry.obj
 0001:000445a0       ??$_Emplace_back@AAPAG@?$_Uninitialized_backout_al@V?$allocator@PAG@std@@@std@@QAEXAAPAG@Z 100455a0 f i IndexedGeometry.obj
 0001:00044630       ??$_Emplace_back@AAV?$vector@GV?$allocator@G@std@@@std@@@?$_Uninitialized_backout_al@V?$allocator@V?$vector@GV?$allocator@G@std@@@std@@@std@@@std@@QAEXAAV?$vector@GV?$allocator@G@std@@@1@@Z 10045630 f i IndexedGeometry.obj
 0001:000446c0       ??$_Emplace_back@AAV?$vector@PAGV?$allocator@PAG@std@@@std@@@?$_Uninitialized_backout_al@V?$allocator@V?$vector@PAGV?$allocator@PAG@std@@@std@@@std@@@std@@QAEXAAV?$vector@PAGV?$allocator@PAG@std@@@1@@Z 100456c0 f i IndexedGeometry.obj
 0001:00044750       ??$_Emplace_back@G@?$_Uninitialized_backout_al@V?$allocator@G@std@@@std@@QAEX$$QAG@Z 10045750 f i IndexedGeometry.obj
 0001:000447e0       ??$_Emplace_back@K@?$_Uninitialized_backout_al@V?$allocator@K@std@@@std@@QAEX$$QAK@Z 100457e0 f i IndexedGeometry.obj
 0001:00044870       ??$_Emplace_back@PAG@?$_Uninitialized_backout_al@V?$allocator@PAG@std@@@std@@QAEX$$QAPAG@Z 10045870 f i IndexedGeometry.obj
 0001:00044900       ??$_Emplace_back@V?$vector@GV?$allocator@G@std@@@std@@@?$_Uninitialized_backout_al@V?$allocator@V?$vector@GV?$allocator@G@std@@@std@@@std@@@std@@QAEX$$QAV?$vector@GV?$allocator@G@std@@@1@@Z 10045900 f i IndexedGeometry.obj
 0001:00044990       ??$_Emplace_back@V?$vector@PAGV?$allocator@PAG@std@@@std@@@?$_Uninitialized_backout_al@V?$allocator@V?$vector@PAGV?$allocator@PAG@std@@@std@@@std@@@std@@QAEX$$QAV?$vector@PAGV?$allocator@PAG@std@@@1@@Z 10045990 f i IndexedGeometry.obj
 0001:00044a20       ??$_Emplace_back_with_unused_capacity@ABK@?$vector@KV?$allocator@K@std@@@std@@AAEAAKABK@Z 10045a20 f i IndexedGeometry.obj
 0001:00044ad0       ??$_Emplace_back_with_unused_capacity@ABQAG@?$vector@PAGV?$allocator@PAG@std@@@std@@AAEAAPAGABQAG@Z 10045ad0 f i IndexedGeometry.obj
 0001:00044b80       ??$_Emplace_back_with_unused_capacity@G@?$vector@GV?$allocator@G@std@@@std@@AAEAAG$$QAG@Z 10045b80 f i IndexedGeometry.obj
 0001:00044c30       ??$_Emplace_one_at_back@ABK@?$vector@KV?$allocator@K@std@@@std@@AAEAAKABK@Z 10045c30 f i IndexedGeometry.obj
 0001:00044ce0       ??$_Emplace_one_at_back@ABQAG@?$vector@PAGV?$allocator@PAG@std@@@std@@AAEAAPAGABQAG@Z 10045ce0 f i IndexedGeometry.obj
 0001:00044d90       ??$_Emplace_one_at_back@G@?$vector@GV?$allocator@G@std@@@std@@AAEAAG$$QAG@Z 10045d90 f i IndexedGeometry.obj
 0001:00044e40       ??$_Emplace_reallocate@ABK@?$vector@KV?$allocator@K@std@@@std@@AAEPAKQAKABK@Z 10045e40 f i IndexedGeometry.obj
 0001:00045160       ??$_Emplace_reallocate@ABQAG@?$vector@PAGV?$allocator@PAG@std@@@std@@AAEPAPAGQAPAGABQAG@Z 10046160 f i IndexedGeometry.obj
 0001:00045480       ??$_Emplace_reallocate@G@?$vector@GV?$allocator@G@std@@@std@@AAEPAGQAG$$QAG@Z 10046480 f i IndexedGeometry.obj
 0001:00045790       ??$_Get_size_of_n@$01@std@@YAII@Z 10046790 f i IndexedGeometry.obj
 0001:00045800       ??$_Get_unwrapped@ABQAG@std@@YA?A_TABQAG@Z 10046800 f i IndexedGeometry.obj
 0001:00045820       ??$_Get_unwrapped@ABQAK@std@@YA?A_TABQAK@Z 10046820 f i IndexedGeometry.obj
 0001:00045840       ??$_Get_unwrapped@ABQAPAG@std@@YA?A_TABQAPAG@Z 10046840 f i IndexedGeometry.obj
 0001:00045860       ??$_Get_unwrapped@ABQAV?$vector@GV?$allocator@G@std@@@std@@@std@@YA?A_TABQAV?$vector@GV?$allocator@G@std@@@0@@Z 10046860 f i IndexedGeometry.obj
 0001:00045880       ??$_Get_unwrapped@ABQAV?$vector@PAGV?$allocator@PAG@std@@@std@@@std@@YA?A_TABQAV?$vector@PAGV?$allocator@PAG@std@@@0@@Z 10046880 f i IndexedGeometry.obj
 0001:000458a0       ??$_Get_unwrapped@PAG@std@@YA?A_T$$QAPAG@Z 100468a0 f i IndexedGeometry.obj
 0001:000458c0       ??$_Get_unwrapped@PAH@std@@YA?A_T$$QAPAH@Z 100468c0 f i IndexedGeometry.obj
 0001:000458e0       ??$_Get_unwrapped@PAPAG@std@@YA?A_T$$QAPAPAG@Z 100468e0 f i IndexedGeometry.obj
 0001:00045900       ??$_Get_unwrapped@PAV?$vector@GV?$allocator@G@std@@@std@@@std@@YA?A_T$$QAPAV?$vector@GV?$allocator@G@std@@@0@@Z 10046900 f i IndexedGeometry.obj
 0001:00045920       ??$_Get_unwrapped@PAV?$vector@PAGV?$allocator@PAG@std@@@std@@@std@@YA?A_T$$QAPAV?$vector@PAGV?$allocator@PAG@std@@@0@@Z 10046920 f i IndexedGeometry.obj
 0001:00045940       ??$_Pocca@V?$allocator@G@std@@@std@@YAXAAV?$allocator@G@0@ABV10@@Z 10046940 f i IndexedGeometry.obj
 0001:00045960       ??$_Pocca@V?$allocator@H@std@@@std@@YAXAAV?$allocator@H@0@ABV10@@Z 10046960 f i IndexedGeometry.obj
 0001:00045980       ??$_Pocca@V?$allocator@PAG@std@@@std@@YAXAAV?$allocator@PAG@0@ABV10@@Z 10046980 f i IndexedGeometry.obj
 0001:000459a0       ??$_Pocca@V?$allocator@V?$vector@GV?$allocator@G@std@@@std@@@std@@@std@@YAXAAV?$allocator@V?$vector@GV?$allocator@G@std@@@std@@@0@ABV10@@Z 100469a0 f i IndexedGeometry.obj
 0001:000459c0       ??$_Pocca@V?$allocator@V?$vector@PAGV?$allocator@PAG@std@@@std@@@std@@@std@@YAXAAV?$allocator@V?$vector@PAGV?$allocator@PAG@std@@@std@@@0@ABV10@@Z 100469c0 f i IndexedGeometry.obj
 0001:000459e0       ??$_Resize@U_Value_init_tag@std@@@?$vector@EV?$allocator@E@std@@@std@@AAEXIABU_Value_init_tag@1@@Z 100469e0 f i IndexedGeometry.obj
 0001:00045b40       ??$_Resize@U_Value_init_tag@std@@@?$vector@GV?$allocator@G@std@@@std@@AAEXIABU_Value_init_tag@1@@Z 10046b40 f i IndexedGeometry.obj
 0001:00045ca0       ??$_Resize@U_Value_init_tag@std@@@?$vector@HV?$allocator@H@std@@@std@@AAEXIABU_Value_init_tag@1@@Z 10046ca0 f i IndexedGeometry.obj
 0001:00045e10       ??$_Resize@U_Value_init_tag@std@@@?$vector@MV?$allocator@M@std@@@std@@AAEXIABU_Value_init_tag@1@@Z 10046e10 f i IndexedGeometry.obj
 0001:00045f80       ??$_Resize@U_Value_init_tag@std@@@?$vector@PAGV?$allocator@PAG@std@@@std@@AAEXIABU_Value_init_tag@1@@Z 10046f80 f i IndexedGeometry.obj
 0001:000460f0       ??$_Resize@U_Value_init_tag@std@@@?$vector@V?$vector@GV?$allocator@G@std@@@std@@V?$allocator@V?$vector@GV?$allocator@G@std@@@std@@@2@@std@@AAEXIABU_Value_init_tag@1@@Z 100470f0 f i IndexedGeometry.obj
 0001:00046260       ??$_Resize@U_Value_init_tag@std@@@?$vector@V?$vector@PAGV?$allocator@PAG@std@@@std@@V?$allocator@V?$vector@PAGV?$allocator@PAG@std@@@std@@@2@@std@@AAEXIABU_Value_init_tag@1@@Z 10047260 f i IndexedGeometry.obj
 0001:000463d0       ??$_Resize_reallocate@U_Value_init_tag@std@@@?$vector@EV?$allocator@E@std@@@std@@AAEXIABU_Value_init_tag@1@@Z 100473d0 f i IndexedGeometry.obj
 0001:00046610       ??$_Resize_reallocate@U_Value_init_tag@std@@@?$vector@GV?$allocator@G@std@@@std@@AAEXIABU_Value_init_tag@1@@Z 10047610 f i IndexedGeometry.obj
 0001:00046850       ??$_Resize_reallocate@U_Value_init_tag@std@@@?$vector@HV?$allocator@H@std@@@std@@AAEXIABU_Value_init_tag@1@@Z 10047850 f i IndexedGeometry.obj
 0001:00046a90       ??$_Resize_reallocate@U_Value_init_tag@std@@@?$vector@MV?$allocator@M@std@@@std@@AAEXIABU_Value_init_tag@1@@Z 10047a90 f i IndexedGeometry.obj
 0001:00046cd0       ??$_Resize_reallocate@U_Value_init_tag@std@@@?$vector@PAGV?$allocator@PAG@std@@@std@@AAEXIABU_Value_init_tag@1@@Z 10047cd0 f i IndexedGeometry.obj
 0001:00046f10       ??$_Resize_reallocate@U_Value_init_tag@std@@@?$vector@V?$vector@GV?$allocator@G@std@@@std@@V?$allocator@V?$vector@GV?$allocator@G@std@@@std@@@2@@std@@AAEXIABU_Value_init_tag@1@@Z 10047f10 f i IndexedGeometry.obj
 0001:00047150       ??$_Resize_reallocate@U_Value_init_tag@std@@@?$vector@V?$vector@PAGV?$allocator@PAG@std@@@std@@V?$allocator@V?$vector@PAGV?$allocator@PAG@std@@@std@@@2@@std@@AAEXIABU_Value_init_tag@1@@Z 10048150 f i IndexedGeometry.obj
 0001:00047390       ??$_To_address@PAG@std@@YA?A_PABQAG@Z 10048390 f i IndexedGeometry.obj
 0001:000473b0       ??$_To_address@PAK@std@@YA?A_PABQAK@Z 100483b0 f i IndexedGeometry.obj
 0001:000473d0       ??$_To_address@PAPAG@std@@YA?A_PABQAPAG@Z 100483d0 f i IndexedGeometry.obj
 0001:000473f0       ??$_Unfancy@G@std@@YAPAGPAG@Z 100483f0 f i IndexedGeometry.obj
 0001:00047410       ??$_Unfancy@K@std@@YAPAKPAK@Z 10048410 f i IndexedGeometry.obj
 0001:00047430       ??$_Unfancy@PAG@std@@YAPAPAGPAPAG@Z 10048430 f i IndexedGeometry.obj
 0001:00047450       ??$_Unfancy@V?$vector@GV?$allocator@G@std@@@std@@@std@@YAPAV?$vector@GV?$allocator@G@std@@@0@PAV10@@Z 10048450 f i IndexedGeometry.obj
 0001:00047470       ??$_Unfancy@V?$vector@PAGV?$allocator@PAG@std@@@std@@@std@@YAPAV?$vector@PAGV?$allocator@PAG@std@@@0@PAV10@@Z 10048470 f i IndexedGeometry.obj
 0001:00047490       ??$_Uninitialized_copy@PAGPAGV?$allocator@G@std@@@std@@YAPAGPAG00AAV?$allocator@G@0@@Z 10048490 f i IndexedGeometry.obj
 0001:00047680       ??$_Uninitialized_copy@PAPAGPAPAGV?$allocator@PAG@std@@@std@@YAPAPAGPAPAG00AAV?$allocator@PAG@0@@Z 10048680 f i IndexedGeometry.obj
 0001:00047870       ??$_Uninitialized_copy_n@PAGV?$allocator@G@std@@@std@@YAPAGPAGI0AAV?$allocator@G@0@@Z 10048870 f i IndexedGeometry.obj
 0001:00047a00       ??$_Uninitialized_copy_n@PAHV?$allocator@H@std@@@std@@YAPAHPAHI0AAV?$allocator@H@0@@Z 10048a00 f i IndexedGeometry.obj
 0001:00047b90       ??$_Uninitialized_copy_n@PAPAGV?$allocator@PAG@std@@@std@@YAPAPAGPAPAGI0AAV?$allocator@PAG@0@@Z 10048b90 f i IndexedGeometry.obj
 0001:00047d20       ??$_Uninitialized_copy_n@PAV?$vector@GV?$allocator@G@std@@@std@@V?$allocator@V?$vector@GV?$allocator@G@std@@@std@@@2@@std@@YAPAV?$vector@GV?$allocator@G@std@@@0@PAV10@I0AAV?$allocator@V?$vector@GV?$allocator@G@std@@@std@@@0@@Z 10048d20 f i IndexedGeometry.obj
 0001:00047e70       ??$_Uninitialized_copy_n@PAV?$vector@PAGV?$allocator@PAG@std@@@std@@V?$allocator@V?$vector@PAGV?$allocator@PAG@std@@@std@@@2@@std@@YAPAV?$vector@PAGV?$allocator@PAG@std@@@0@PAV10@I0AAV?$allocator@V?$vector@PAGV?$allocator@PAG@std@@@std@@@0@@Z 10048e70 f i IndexedGeometry.obj
 0001:00047fc0       ??$_Uninitialized_move@PAGV?$allocator@G@std@@@std@@YAPAGQAG0PAGAAV?$allocator@G@0@@Z 10048fc0 f i IndexedGeometry.obj
 0001:00048150       ??$_Uninitialized_move@PAKV?$allocator@K@std@@@std@@YAPAKQAK0PAKAAV?$allocator@K@0@@Z 10049150 f i IndexedGeometry.obj
 0001:000482e0       ??$_Uninitialized_move@PAPAGV?$allocator@PAG@std@@@std@@YAPAPAGQAPAG0PAPAGAAV?$allocator@PAG@0@@Z 100492e0 f i IndexedGeometry.obj
 0001:00048470       ??$_Uninitialized_move@PAV?$vector@GV?$allocator@G@std@@@std@@V?$allocator@V?$vector@GV?$allocator@G@std@@@std@@@2@@std@@YAPAV?$vector@GV?$allocator@G@std@@@0@QAV10@0PAV10@AAV?$allocator@V?$vector@GV?$allocator@G@std@@@std@@@0@@Z 10049470 f i IndexedGeometry.obj
 0001:000485c0       ??$_Uninitialized_move@PAV?$vector@PAGV?$allocator@PAG@std@@@std@@V?$allocator@V?$vector@PAGV?$allocator@PAG@std@@@std@@@2@@std@@YAPAV?$vector@PAGV?$allocator@PAG@std@@@0@QAV10@0PAV10@AAV?$allocator@V?$vector@PAGV?$allocator@PAG@std@@@std@@@0@@Z 100495c0 f i IndexedGeometry.obj
 0001:00048710       ??$_Uninitialized_value_construct_n@V?$allocator@E@std@@@std@@YAPAEPAEIAAV?$allocator@E@0@@Z 10049710 f i IndexedGeometry.obj
 0001:00048860       ??$_Uninitialized_value_construct_n@V?$allocator@G@std@@@std@@YAPAGPAGIAAV?$allocator@G@0@@Z 10049860 f i IndexedGeometry.obj
 0001:000489b0       ??$_Uninitialized_value_construct_n@V?$allocator@H@std@@@std@@YAPAHPAHIAAV?$allocator@H@0@@Z 100499b0 f i IndexedGeometry.obj
 0001:00048b00       ??$_Uninitialized_value_construct_n@V?$allocator@M@std@@@std@@YAPAMPAMIAAV?$allocator@M@0@@Z 10049b00 f i IndexedGeometry.obj
 0001:00048c50       ??$_Uninitialized_value_construct_n@V?$allocator@PAG@std@@@std@@YAPAPAGPAPAGIAAV?$allocator@PAG@0@@Z 10049c50 f i IndexedGeometry.obj
 0001:00048da0       ??$_Uninitialized_value_construct_n@V?$allocator@V?$vector@GV?$allocator@G@std@@@std@@@std@@@std@@YAPAV?$vector@GV?$allocator@G@std@@@0@PAV10@IAAV?$allocator@V?$vector@GV?$allocator@G@std@@@std@@@0@@Z 10049da0 f i IndexedGeometry.obj
 0001:00048ec0       ??$_Uninitialized_value_construct_n@V?$allocator@V?$vector@PAGV?$allocator@PAG@std@@@std@@@std@@@std@@YAPAV?$vector@PAGV?$allocator@PAG@std@@@0@PAV10@IAAV?$allocator@V?$vector@PAGV?$allocator@PAG@std@@@std@@@0@@Z 10049ec0 f i IndexedGeometry.obj
 0001:00048fe0       ??$_Zero_range@PAE@std@@YAPAEQAE0@Z 10049fe0 f i IndexedGeometry.obj
 0001:00049060       ??$_Zero_range@PAG@std@@YAPAGQAG0@Z 1004a060 f i IndexedGeometry.obj
 0001:000490e0       ??$_Zero_range@PAH@std@@YAPAHQAH0@Z 1004a0e0 f i IndexedGeometry.obj
 0001:00049160       ??$_Zero_range@PAM@std@@YAPAMQAM0@Z 1004a160 f i IndexedGeometry.obj
 0001:000491e0       ??$_Zero_range@PAPAG@std@@YAPAPAGQAPAG0@Z 1004a1e0 f i IndexedGeometry.obj
 0001:00049260       ??$addressof@$$CBV?$vector@GV?$allocator@G@std@@@std@@@std@@YAPBV?$vector@GV?$allocator@G@std@@@0@ABV10@@Z 1004a260 f i IndexedGeometry.obj
 0001:00049280       ??$addressof@$$CBV?$vector@HV?$allocator@H@std@@@std@@@std@@YAPBV?$vector@HV?$allocator@H@std@@@0@ABV10@@Z 1004a280 f i IndexedGeometry.obj
 0001:000492a0       ??$addressof@$$CBV?$vector@PAGV?$allocator@PAG@std@@@std@@@std@@YAPBV?$vector@PAGV?$allocator@PAG@std@@@0@ABV10@@Z 1004a2a0 f i IndexedGeometry.obj
 0001:000492c0       ??$addressof@$$CBV?$vector@V?$vector@GV?$allocator@G@std@@@std@@V?$allocator@V?$vector@GV?$allocator@G@std@@@std@@@2@@std@@@std@@YAPBV?$vector@V?$vector@GV?$allocator@G@std@@@std@@V?$allocator@V?$vector@GV?$allocator@G@std@@@std@@@2@@0@ABV10@@Z 1004a2c0 f i IndexedGeometry.obj
 0001:000492e0       ??$addressof@$$CBV?$vector@V?$vector@PAGV?$allocator@PAG@std@@@std@@V?$allocator@V?$vector@PAGV?$allocator@PAG@std@@@std@@@2@@std@@@std@@YAPBV?$vector@V?$vector@PAGV?$allocator@PAG@std@@@std@@V?$allocator@V?$vector@PAGV?$allocator@PAG@std@@@std@@@2@@0@ABV10@@Z 1004a2e0 f i IndexedGeometry.obj
 0001:00049300       ??$addressof@G@std@@YAPAGAAG@Z 1004a300 f i IndexedGeometry.obj
 0001:00049320       ??$addressof@K@std@@YAPAKAAK@Z 1004a320 f i IndexedGeometry.obj
 0001:00049340       ??$addressof@PAG@std@@YAPAPAGAAPAG@Z 1004a340 f i IndexedGeometry.obj
 0001:00049360       ??$construct@E$$V@?$_Default_allocator_traits@V?$allocator@E@std@@@std@@SAXAAV?$allocator@E@1@QAE@Z 1004a360 f i IndexedGeometry.obj
 0001:000493f0       ??$construct@G$$V@?$_Default_allocator_traits@V?$allocator@G@std@@@std@@SAXAAV?$allocator@G@1@QAG@Z 1004a3f0 f i IndexedGeometry.obj
 0001:00049480       ??$construct@GAAG@?$_Default_allocator_traits@V?$allocator@G@std@@@std@@SAXAAV?$allocator@G@1@QAGAAG@Z 1004a480 f i IndexedGeometry.obj
 0001:00049500       ??$construct@GG@?$_Default_allocator_traits@V?$allocator@G@std@@@std@@SAXAAV?$allocator@G@1@QAG$$QAG@Z 1004a500 f i IndexedGeometry.obj
 0001:00049580       ??$construct@H$$V@?$_Default_allocator_traits@V?$allocator@H@std@@@std@@SAXAAV?$allocator@H@1@QAH@Z 1004a580 f i IndexedGeometry.obj
 0001:00049610       ??$construct@HAAH@?$_Default_allocator_traits@V?$allocator@H@std@@@std@@SAXAAV?$allocator@H@1@QAHAAH@Z 1004a610 f i IndexedGeometry.obj
 0001:00049680       ??$construct@KABK@?$_Default_allocator_traits@V?$allocator@K@std@@@std@@SAXAAV?$allocator@K@1@QAKABK@Z 1004a680 f i IndexedGeometry.obj
 0001:000496f0       ??$construct@KK@?$_Default_allocator_traits@V?$allocator@K@std@@@std@@SAXAAV?$allocator@K@1@QAK$$QAK@Z 1004a6f0 f i IndexedGeometry.obj
 0001:00049760       ??$construct@M$$V@?$_Default_allocator_traits@V?$allocator@M@std@@@std@@SAXAAV?$allocator@M@1@QAM@Z 1004a760 f i IndexedGeometry.obj
 0001:000497f0       ??$construct@PAG$$V@?$_Default_allocator_traits@V?$allocator@PAG@std@@@std@@SAXAAV?$allocator@PAG@1@QAPAG@Z 1004a7f0 f i IndexedGeometry.obj
 0001:00049880       ??$construct@PAGAAPAG@?$_Default_allocator_traits@V?$allocator@PAG@std@@@std@@SAXAAV?$allocator@PAG@1@QAPAGAAPAG@Z 1004a880 f i IndexedGeometry.obj
 0001:000498f0       ??$construct@PAGABQAG@?$_Default_allocator_traits@V?$allocator@PAG@std@@@std@@SAXAAV?$allocator@PAG@1@QAPAGABQAG@Z 1004a8f0 f i IndexedGeometry.obj
 0001:00049960       ??$construct@PAGPAG@?$_Default_allocator_traits@V?$allocator@PAG@std@@@std@@SAXAAV?$allocator@PAG@1@QAPAG$$QAPAG@Z 1004a960 f i IndexedGeometry.obj
 0001:000499d0       ??$construct@V?$vector@GV?$allocator@G@std@@@std@@$$V@?$_Default_allocator_traits@V?$allocator@V?$vector@GV?$allocator@G@std@@@std@@@std@@@std@@SAXAAV?$allocator@V?$vector@GV?$allocator@G@std@@@std@@@1@QAV?$vector@GV?$allocator@G@std@@@1@@Z 1004a9d0 f i IndexedGeometry.obj
 0001:00049a40       ??$construct@V?$vector@GV?$allocator@G@std@@@std@@AAV12@@?$_Default_allocator_traits@V?$allocator@V?$vector@GV?$allocator@G@std@@@std@@@std@@@std@@SAXAAV?$allocator@V?$vector@GV?$allocator@G@std@@@std@@@1@QAV?$vector@GV?$allocator@G@std@@@1@AAV31@@Z 1004aa40 f i IndexedGeometry.obj
 0001:00049ac0       ??$construct@V?$vector@GV?$allocator@G@std@@@std@@V12@@?$_Default_allocator_traits@V?$allocator@V?$vector@GV?$allocator@G@std@@@std@@@std@@@std@@SAXAAV?$allocator@V?$vector@GV?$allocator@G@std@@@std@@@1@QAV?$vector@GV?$allocator@G@std@@@1@$$QAV31@@Z 1004aac0 f i IndexedGeometry.obj
 0001:00049b40       ??$construct@V?$vector@PAGV?$allocator@PAG@std@@@std@@$$V@?$_Default_allocator_traits@V?$allocator@V?$vector@PAGV?$allocator@PAG@std@@@std@@@std@@@std@@SAXAAV?$allocator@V?$vector@PAGV?$allocator@PAG@std@@@std@@@1@QAV?$vector@PAGV?$allocator@PAG@std@@@1@@Z 1004ab40 f i IndexedGeometry.obj
 0001:00049bb0       ??$construct@V?$vector@PAGV?$allocator@PAG@std@@@std@@AAV12@@?$_Default_allocator_traits@V?$allocator@V?$vector@PAGV?$allocator@PAG@std@@@std@@@std@@@std@@SAXAAV?$allocator@V?$vector@PAGV?$allocator@PAG@std@@@std@@@1@QAV?$vector@PAGV?$allocator@PAG@std@@@1@AAV31@@Z 1004abb0 f i IndexedGeometry.obj
 0001:00049c30       ??$construct@V?$vector@PAGV?$allocator@PAG@std@@@std@@V12@@?$_Default_allocator_traits@V?$allocator@V?$vector@PAGV?$allocator@PAG@std@@@std@@@std@@@std@@SAXAAV?$allocator@V?$vector@PAGV?$allocator@PAG@std@@@std@@@1@QAV?$vector@PAGV?$allocator@PAG@std@@@1@$$QAV31@@Z 1004ac30 f i IndexedGeometry.obj
 0001:00049cb0       ??$destroy@V?$vector@GV?$allocator@G@std@@@std@@@?$_Default_allocator_traits@V?$allocator@V?$vector@GV?$allocator@G@std@@@std@@@std@@@std@@SAXAAV?$allocator@V?$vector@GV?$allocator@G@std@@@std@@@1@QAV?$vector@GV?$allocator@G@std@@@1@@Z 1004acb0 f i IndexedGeometry.obj
 0001:00049d00       ??$destroy@V?$vector@PAGV?$allocator@PAG@std@@@std@@@?$_Default_allocator_traits@V?$allocator@V?$vector@PAGV?$allocator@PAG@std@@@std@@@std@@@std@@SAXAAV?$allocator@V?$vector@PAGV?$allocator@PAG@std@@@std@@@1@QAV?$vector@PAGV?$allocator@PAG@std@@@1@@Z 1004ad00 f i IndexedGeometry.obj
 0001:00049d50       ??$exchange@PAG$$T@std@@YAPAGAAPAG$$QA$$T@Z 1004ad50 f i IndexedGeometry.obj
 0001:00049d90       ??$exchange@PAPAG$$T@std@@YAPAPAGAAPAPAG$$QA$$T@Z 1004ad90 f i IndexedGeometry.obj
 0001:00049dd0       ??$forward@AAG@std@@YAAAGAAG@Z 1004add0 f i IndexedGeometry.obj
 0001:00049df0       ??$forward@AAH@std@@YAAAHAAH@Z 1004adf0 f i IndexedGeometry.obj
 0001:00049e10       ??$forward@AAPAG@std@@YAAAPAGAAPAG@Z 1004ae10 f i IndexedGeometry.obj
 0001:00049e30       ??$forward@AAV?$vector@GV?$allocator@G@std@@@std@@@std@@YAAAV?$vector@GV?$allocator@G@std@@@0@AAV10@@Z 1004ae30 f i IndexedGeometry.obj
 0001:00049e50       ??$forward@AAV?$vector@PAGV?$allocator@PAG@std@@@std@@@std@@YAAAV?$vector@PAGV?$allocator@PAG@std@@@0@AAV10@@Z 1004ae50 f i IndexedGeometry.obj
 0001:00049e70       ??$forward@ABK@std@@YAABKABK@Z 1004ae70 f i IndexedGeometry.obj
 0001:00049e90       ??$forward@ABQAG@std@@YAABQAGABQAG@Z 1004ae90 f i IndexedGeometry.obj
 0001:00049eb0       ??$forward@ABQAPAG@std@@YAABQAPAGABQAPAG@Z 1004aeb0 f i IndexedGeometry.obj
 0001:00049ed0       ??$forward@ABV?$allocator@H@std@@@std@@YAABV?$allocator@H@0@ABV10@@Z 1004aed0 f i IndexedGeometry.obj
 0001:00049ef0       ??$forward@ABV?$allocator@V?$vector@GV?$allocator@G@std@@@std@@@std@@@std@@YAABV?$allocator@V?$vector@GV?$allocator@G@std@@@std@@@0@ABV10@@Z 1004aef0 f i IndexedGeometry.obj
 0001:00049f10       ??$forward@ABV?$allocator@V?$vector@PAGV?$allocator@PAG@std@@@std@@@std@@@std@@YAABV?$allocator@V?$vector@PAGV?$allocator@PAG@std@@@std@@@0@ABV10@@Z 1004af10 f i IndexedGeometry.obj
 0001:00049f30       ??$forward@G@std@@YA$$QAGAAG@Z 1004af30 f i IndexedGeometry.obj
 0001:00049f50       ??$forward@K@std@@YA$$QAKAAK@Z 1004af50 f i IndexedGeometry.obj
 0001:00049f70       ??$forward@PAG@std@@YA$$QAPAGAAPAG@Z 1004af70 f i IndexedGeometry.obj
 0001:00049f90       ??$forward@PAPAG@std@@YA$$QAPAPAGAAPAPAG@Z 1004af90 f i IndexedGeometry.obj
 0001:00049fb0       ??$forward@V?$allocator@G@std@@@std@@YA$$QAV?$allocator@G@0@AAV10@@Z 1004afb0 f i IndexedGeometry.obj
 0001:00049fd0       ??$forward@V?$allocator@PAG@std@@@std@@YA$$QAV?$allocator@PAG@0@AAV10@@Z 1004afd0 f i IndexedGeometry.obj
 0001:00049ff0       ??$forward@V?$vector@GV?$allocator@G@std@@@std@@@std@@YA$$QAV?$vector@GV?$allocator@G@std@@@0@AAV10@@Z 1004aff0 f i IndexedGeometry.obj
 0001:0004a010       ??$forward@V?$vector@PAGV?$allocator@PAG@std@@@std@@@std@@YA$$QAV?$vector@PAGV?$allocator@PAG@std@@@0@AAV10@@Z 1004b010 f i IndexedGeometry.obj
 0001:0004a030       ??$move@AAG@std@@YA$$QAGAAG@Z 1004b030 f i IndexedGeometry.obj
 0001:0004a050       ??$move@AAK@std@@YA$$QAKAAK@Z 1004b050 f i IndexedGeometry.obj
 0001:0004a070       ??$move@AAPAG@std@@YA$$QAPAGAAPAG@Z 1004b070 f i IndexedGeometry.obj
 0001:0004a090       ??$move@AAPAH@std@@YA$$QAPAHAAPAH@Z 1004b090 f i IndexedGeometry.obj
 0001:0004a0b0       ??$move@AAPAPAG@std@@YA$$QAPAPAGAAPAPAG@Z 1004b0b0 f i IndexedGeometry.obj
 0001:0004a0d0       ??$move@AAPAV?$vector@GV?$allocator@G@std@@@std@@@std@@YA$$QAPAV?$vector@GV?$allocator@G@std@@@0@AAPAV10@@Z 1004b0d0 f i IndexedGeometry.obj
 0001:0004a0f0       ??$move@AAPAV?$vector@PAGV?$allocator@PAG@std@@@std@@@std@@YA$$QAPAV?$vector@PAGV?$allocator@PAG@std@@@0@AAPAV10@@Z 1004b0f0 f i IndexedGeometry.obj
 0001:0004a110       ??$move@AAV?$allocator@G@std@@@std@@YA$$QAV?$allocator@G@0@AAV10@@Z 1004b110 f i IndexedGeometry.obj
 0001:0004a130       ??$move@AAV?$allocator@PAG@std@@@std@@YA$$QAV?$allocator@PAG@0@AAV10@@Z 1004b130 f i IndexedGeometry.obj
 0001:0004a150       ??$move@AAV?$vector@GV?$allocator@G@std@@@std@@@std@@YA$$QAV?$vector@GV?$allocator@G@std@@@0@AAV10@@Z 1004b150 f i IndexedGeometry.obj
 0001:0004a170       ??$move@AAV?$vector@PAGV?$allocator@PAG@std@@@std@@@std@@YA$$QAV?$vector@PAGV?$allocator@PAG@std@@@0@AAV10@@Z 1004b170 f i IndexedGeometry.obj
 0001:0004a190       ??0?$_Uninitialized_backout_al@V?$allocator@G@std@@@std@@QAE@PAGAAV?$allocator@G@1@@Z 1004b190 f i IndexedGeometry.obj
 0001:0004a1e0       ??0?$_Uninitialized_backout_al@V?$allocator@K@std@@@std@@QAE@PAKAAV?$allocator@K@1@@Z 1004b1e0 f i IndexedGeometry.obj
 0001:0004a230       ??0?$_Uninitialized_backout_al@V?$allocator@PAG@std@@@std@@QAE@PAPAGAAV?$allocator@PAG@1@@Z 1004b230 f i IndexedGeometry.obj
 0001:0004a280       ??0?$_Uninitialized_backout_al@V?$allocator@V?$vector@GV?$allocator@G@std@@@std@@@std@@@std@@QAE@PAV?$vector@GV?$allocator@G@std@@@1@AAV?$allocator@V?$vector@GV?$allocator@G@std@@@std@@@1@@Z 1004b280 f i IndexedGeometry.obj
 0001:0004a2d0       ??0?$_Uninitialized_backout_al@V?$allocator@V?$vector@PAGV?$allocator@PAG@std@@@std@@@std@@@std@@QAE@PAV?$vector@PAGV?$allocator@PAG@std@@@1@AAV?$allocator@V?$vector@PAGV?$allocator@PAG@std@@@std@@@1@@Z 1004b2d0 f i IndexedGeometry.obj
 0001:0004a320       ??0?$_Vector_val@U?$_Simple_types@E@std@@@std@@QAE@XZ 1004b320 f i IndexedGeometry.obj
 0001:0004a3a0       ??0?$_Vector_val@U?$_Simple_types@G@std@@@std@@QAE@PAG00@Z 1004b3a0 f i IndexedGeometry.obj
 0001:0004a420       ??0?$_Vector_val@U?$_Simple_types@G@std@@@std@@QAE@XZ 1004b420 f i IndexedGeometry.obj
 0001:0004a4a0       ??0?$_Vector_val@U?$_Simple_types@K@std@@@std@@QAE@XZ 1004b4a0 f i IndexedGeometry.obj
 0001:0004a520       ??0?$_Vector_val@U?$_Simple_types@PAG@std@@@std@@QAE@PAPAG00@Z 1004b520 f i IndexedGeometry.obj
 0001:0004a5a0       ??0?$_Vector_val@U?$_Simple_types@PAG@std@@@std@@QAE@XZ 1004b5a0 f i IndexedGeometry.obj
 0001:0004a620       ??0?$_Vector_val@U?$_Simple_types@V?$vector@GV?$allocator@G@std@@@std@@@std@@@std@@QAE@XZ 1004b620 f i IndexedGeometry.obj
 0001:0004a6a0       ??0?$_Vector_val@U?$_Simple_types@V?$vector@PAGV?$allocator@PAG@std@@@std@@@std@@@std@@QAE@XZ 1004b6a0 f i IndexedGeometry.obj
 0001:0004a720       ??0?$allocator@E@std@@QAE@XZ 1004b720 f i IndexedGeometry.obj
 0001:0004a740       ??0?$allocator@G@std@@QAE@XZ 1004b740 f i IndexedGeometry.obj
 0001:0004a760       ??0?$allocator@K@std@@QAE@XZ 1004b760 f i IndexedGeometry.obj
 0001:0004a780       ??0?$allocator@PAG@std@@QAE@XZ 1004b780 f i IndexedGeometry.obj
 0001:0004a7a0       ??0?$allocator@V?$vector@GV?$allocator@G@std@@@std@@@std@@QAE@XZ 1004b7a0 f i IndexedGeometry.obj
 0001:0004a7c0       ??0?$allocator@V?$vector@PAGV?$allocator@PAG@std@@@std@@@std@@QAE@XZ 1004b7c0 f i IndexedGeometry.obj
 0001:0004a7e0       ??0?$vector@EV?$allocator@E@std@@@std@@QAE@XZ 1004b7e0 f i IndexedGeometry.obj
 0001:0004a8a0       ??0?$vector@GV?$allocator@G@std@@@std@@QAE@$$QAV01@@Z 1004b8a0 f i IndexedGeometry.obj
 0001:0004aa30       ??0?$vector@GV?$allocator@G@std@@@std@@QAE@ABV01@@Z 1004ba30 f i IndexedGeometry.obj
 0001:0004aaf0       ??0?$vector@GV?$allocator@G@std@@@std@@QAE@XZ 1004baf0 f i IndexedGeometry.obj
 0001:0004abb0       ??0?$vector@HV?$allocator@H@std@@@std@@QAE@IABV?$allocator@H@1@@Z 1004bbb0 f i IndexedGeometry.obj
 0001:0004ac30       ??0?$vector@KV?$allocator@K@std@@@std@@QAE@XZ 1004bc30 f i IndexedGeometry.obj
 0001:0004acf0       ??0?$vector@PAGV?$allocator@PAG@std@@@std@@QAE@$$QAV01@@Z 1004bcf0 f i IndexedGeometry.obj
 0001:0004ae80       ??0?$vector@PAGV?$allocator@PAG@std@@@std@@QAE@ABV01@@Z 1004be80 f i IndexedGeometry.obj
 0001:0004af40       ??0?$vector@PAGV?$allocator@PAG@std@@@std@@QAE@XZ 1004bf40 f i IndexedGeometry.obj
 0001:0004b000       ??0?$vector@V?$vector@GV?$allocator@G@std@@@std@@V?$allocator@V?$vector@GV?$allocator@G@std@@@std@@@2@@std@@QAE@IABV?$allocator@V?$vector@GV?$allocator@G@std@@@std@@@1@@Z 1004c000 f i IndexedGeometry.obj
 0001:0004b080       ??0?$vector@V?$vector@GV?$allocator@G@std@@@std@@V?$allocator@V?$vector@GV?$allocator@G@std@@@std@@@2@@std@@QAE@XZ 1004c080 f i IndexedGeometry.obj
 0001:0004b140       ??0?$vector@V?$vector@PAGV?$allocator@PAG@std@@@std@@V?$allocator@V?$vector@PAGV?$allocator@PAG@std@@@std@@@2@@std@@QAE@IABV?$allocator@V?$vector@PAGV?$allocator@PAG@std@@@std@@@1@@Z 1004c140 f i IndexedGeometry.obj
 0001:0004b1c0       ??0?$vector@V?$vector@PAGV?$allocator@PAG@std@@@std@@V?$allocator@V?$vector@PAGV?$allocator@PAG@std@@@std@@@2@@std@@QAE@XZ 1004c1c0 f i IndexedGeometry.obj
 0001:0004b280       ??0CIndexedGeometry@@QAE@PAVCWindEngine@@_N@Z 1004c280 f   IndexedGeometry.obj
 0001:0004b560       ??1?$_Tidy_guard@V?$vector@GV?$allocator@G@std@@@std@@@std@@QAE@XZ 1004c560 f i IndexedGeometry.obj
 0001:0004b5c0       ??1?$_Tidy_guard@V?$vector@HV?$allocator@H@std@@@std@@@std@@QAE@XZ 1004c5c0 f i IndexedGeometry.obj
 0001:0004b620       ??1?$_Tidy_guard@V?$vector@PAGV?$allocator@PAG@std@@@std@@@std@@QAE@XZ 1004c620 f i IndexedGeometry.obj
 0001:0004b680       ??1?$_Tidy_guard@V?$vector@V?$vector@GV?$allocator@G@std@@@std@@V?$allocator@V?$vector@GV?$allocator@G@std@@@std@@@2@@std@@@std@@QAE@XZ 1004c680 f i IndexedGeometry.obj
 0001:0004b6e0       ??1?$_Tidy_guard@V?$vector@V?$vector@PAGV?$allocator@PAG@std@@@std@@V?$allocator@V?$vector@PAGV?$allocator@PAG@std@@@std@@@2@@std@@@std@@QAE@XZ 1004c6e0 f i IndexedGeometry.obj
 0001:0004b740       ??1?$_Uninitialized_backout_al@V?$allocator@G@std@@@std@@QAE@XZ 1004c740 f i IndexedGeometry.obj
 0001:0004b7b0       ??1?$_Uninitialized_backout_al@V?$allocator@K@std@@@std@@QAE@XZ 1004c7b0 f i IndexedGeometry.obj
 0001:0004b820       ??1?$_Uninitialized_backout_al@V?$allocator@PAG@std@@@std@@QAE@XZ 1004c820 f i IndexedGeometry.obj
 0001:0004b890       ??1?$_Uninitialized_backout_al@V?$allocator@V?$vector@GV?$allocator@G@std@@@std@@@std@@@std@@QAE@XZ 1004c890 f i IndexedGeometry.obj
 0001:0004b900       ??1?$_Uninitialized_backout_al@V?$allocator@V?$vector@PAGV?$allocator@PAG@std@@@std@@@std@@@std@@QAE@XZ 1004c900 f i IndexedGeometry.obj
 0001:0004b970       ??1?$vector@EV?$allocator@E@std@@@std@@QAE@XZ 1004c970 f i IndexedGeometry.obj
 0001:0004ba50       ??1?$vector@GV?$allocator@G@std@@@std@@QAE@XZ 1004ca50 f i IndexedGeometry.obj
 0001:0004bb30       ??1?$vector@KV?$allocator@K@std@@@std@@QAE@XZ 1004cb30 f i IndexedGeometry.obj
 0001:0004bc10       ??1?$vector@PAGV?$allocator@PAG@std@@@std@@QAE@XZ 1004cc10 f i IndexedGeometry.obj
 0001:0004bcf0       ??1?$vector@V?$vector@GV?$allocator@G@std@@@std@@V?$allocator@V?$vector@GV?$allocator@G@std@@@std@@@2@@std@@QAE@XZ 1004ccf0 f i IndexedGeometry.obj
 0001:0004bdd0       ??1?$vector@V?$vector@PAGV?$allocator@PAG@std@@@std@@V?$allocator@V?$vector@PAGV?$allocator@PAG@std@@@std@@@2@@std@@QAE@XZ 1004cdd0 f i IndexedGeometry.obj
 0001:0004beb0       ??1CIndexedGeometry@@QAE@XZ 1004ceb0 f   IndexedGeometry.obj
 0001:0004c060       ??1CRegion@@QAE@XZ         1004d060 f i IndexedGeometry.obj
 0001:0004c0c0       ??4?$vector@GV?$allocator@G@std@@@std@@QAEAAV01@ABV01@@Z 1004d0c0 f i IndexedGeometry.obj
 0001:0004c180       ??4?$vector@HV?$allocator@H@std@@@std@@QAEAAV01@ABV01@@Z 1004d180 f i IndexedGeometry.obj
 0001:0004c250       ??4?$vector@PAGV?$allocator@PAG@std@@@std@@QAEAAV01@ABV01@@Z 1004d250 f i IndexedGeometry.obj
 0001:0004c320       ??4?$vector@V?$vector@GV?$allocator@G@std@@@std@@V?$allocator@V?$vector@GV?$allocator@G@std@@@std@@@2@@std@@QAEAAV01@ABV01@@Z 1004d320 f i IndexedGeometry.obj
 0001:0004c3f0       ??4?$vector@V?$vector@PAGV?$allocator@PAG@std@@@std@@V?$allocator@V?$vector@PAGV?$allocator@PAG@std@@@std@@@2@@std@@QAEAAV01@ABV01@@Z 1004d3f0 f i IndexedGeometry.obj
 0001:0004c4c0       ??A?$vector@GV?$allocator@G@std@@@std@@QAEAAGI@Z 1004d4c0 f i IndexedGeometry.obj
 0001:0004c5b0       ??A?$vector@GV?$allocator@G@std@@@std@@QBEABGI@Z 1004d5b0 f i IndexedGeometry.obj
 0001:0004c6a0       ??A?$vector@HV?$allocator@H@std@@@std@@QBEABHI@Z 1004d6a0 f i IndexedGeometry.obj
 0001:0004c790       ??A?$vector@MV?$allocator@M@std@@@std@@QBEABMI@Z 1004d790 f i IndexedGeometry.obj
 0001:0004c880       ??A?$vector@PAGV?$allocator@PAG@std@@@std@@QAEAAPAGI@Z 1004d880 f i IndexedGeometry.obj
 0001:0004c970       ??A?$vector@PAGV?$allocator@PAG@std@@@std@@QBEABQAGI@Z 1004d970 f i IndexedGeometry.obj
 0001:0004ca60       ??A?$vector@V?$vector@GV?$allocator@G@std@@@std@@V?$allocator@V?$vector@GV?$allocator@G@std@@@std@@@2@@std@@QAEAAV?$vector@GV?$allocator@G@std@@@1@I@Z 1004da60 f i IndexedGeometry.obj
 0001:0004cb50       ??A?$vector@V?$vector@GV?$allocator@G@std@@@std@@V?$allocator@V?$vector@GV?$allocator@G@std@@@std@@@2@@std@@QBEABV?$vector@GV?$allocator@G@std@@@1@I@Z 1004db50 f i IndexedGeometry.obj
 0001:0004cc40       ??A?$vector@V?$vector@PAGV?$allocator@PAG@std@@@std@@V?$allocator@V?$vector@PAGV?$allocator@PAG@std@@@std@@@2@@std@@QAEAAV?$vector@PAGV?$allocator@PAG@std@@@1@I@Z 1004dc40 f i IndexedGeometry.obj
 0001:0004cd30       ??A?$vector@V?$vector@PAGV?$allocator@PAG@std@@@std@@V?$allocator@V?$vector@PAGV?$allocator@PAG@std@@@std@@@2@@std@@QBEABV?$vector@PAGV?$allocator@PAG@std@@@1@I@Z 1004dd30 f i IndexedGeometry.obj
 0001:0004ce20       ??DCVec3@@QBE?AV0@ABVCTransform@@@Z 1004de20 f i IndexedGeometry.obj
 0001:0004d0c0       ??_G?$vector@GV?$allocator@G@std@@@std@@QAEPAXI@Z 1004e0c0 f i IndexedGeometry.obj
 0001:0004d130       ??_G?$vector@PAGV?$allocator@PAG@std@@@std@@QAEPAXI@Z 1004e130 f i IndexedGeometry.obj
 0001:0004d1a0       ?AddStrip@CIndexedGeometry@@QAEXGPAGG@Z 1004e1a0 f   IndexedGeometry.obj
 0001:0004d410       ?AddVertexBinormal@CIndexedGeometry@@QAEXPBM@Z 1004e410 f   IndexedGeometry.obj
 0001:0004d5d0       ?AddVertexColor@CIndexedGeometry@@QAEXPBM@Z 1004e5d0 f   IndexedGeometry.obj
 0001:0004d710       ?AddVertexCoord@CIndexedGeometry@@QAEXPBM@Z 1004e710 f   IndexedGeometry.obj
 0001:0004d930       ?AddVertexNormal@CIndexedGeometry@@QAEXPBM@Z 1004e930 f   IndexedGeometry.obj
 0001:0004da70       ?AddVertexTangent@CIndexedGeometry@@QAEXPBM@Z 1004ea70 f   IndexedGeometry.obj
 0001:0004dc30       ?AddVertexTexCoord0@CIndexedGeometry@@QAEXPBMF@Z 1004ec30 f   IndexedGeometry.obj
 0001:0004df20       ?AddVertexTexCoord1@CIndexedGeometry@@QAEXPBM@Z 1004ef20 f   IndexedGeometry.obj
 0001:0004e090       ?AddVertexWind@CIndexedGeometry@@QAEXME@Z 1004f090 f   IndexedGeometry.obj
 0001:0004e1c0       ?Assign3d@@YAXPAMPBM@Z     1004f1c0 f i IndexedGeometry.obj
 0001:0004e240       ?ChangeTexCoord@CIndexedGeometry@@QAEXEPAM@Z 1004f240 f   IndexedGeometry.obj
 0001:0004e4c0       ?ColorFloatsToLong@CIndexedGeometry@@ABEKPBM@Z 1004f4c0 f i IndexedGeometry.obj
 0001:0004e560       ?CombineStrips@CIndexedGeometry@@QAEX_N@Z 1004f560 f   IndexedGeometry.obj
 0001:0004ee20       ?ComputeExtents@CIndexedGeometry@@QBEXAAVCRegion@@@Z 1004fe20 f   IndexedGeometry.obj
 0001:0004efb0       ?ComputeWindEffect@CIndexedGeometry@@QAE_NG@Z 1004ffb0 f   IndexedGeometry.obj
 0001:0004f5b0       ?DeleteIndexData@CIndexedGeometry@@AAEXXZ 100505b0 f   IndexedGeometry.obj
 0001:0004f700       ?DeleteLodStrip@CIndexedGeometry@@QAEXG@Z 10050700 f   IndexedGeometry.obj
 0001:0004f880       ?GetLocalMatrices@CWindEngine@@QAEXAAI0@Z 10050880 f i IndexedGeometry.obj
 0001:0004f8c0       ?GetMatrix@CWindMatrices@@QBEAAVCTransform@@G@Z 100508c0 f i IndexedGeometry.obj
 0001:0004f8f0       ?GetNumStrips@CIndexedGeometry@@QBEGF@Z 100508f0 f i IndexedGeometry.obj
 0001:0004fa20       ?GetOrigVertexCoord@CIndexedGeometry@@ABEPBMI@Z 10050a20 f   IndexedGeometry.obj
 0001:0004fb30       ?GetStrip@CIndexedGeometry@@QBEPAGGAAG@Z 10050b30 f   IndexedGeometry.obj
 0001:0004fd20       ?GetStripsPointer@CIndexedGeometry@@QBEPAPAGG@Z 10050d20 f   IndexedGeometry.obj
 0001:0004fe50       ?GetTriangleCount@CIndexedGeometry@@QBEIG@Z 10050e50 f   IndexedGeometry.obj
 0001:0004ff50       ?GetVertexCoord@CIndexedGeometry@@QBEPBMI@Z 10050f50 f   IndexedGeometry.obj
 0001:00050060       ?GetVertexTexCoord0@CIndexedGeometry@@QBEPBMI@Z 10051060 f   IndexedGeometry.obj
 0001:00050170       ?GetWindMatrix@CWindEngine@@SAAAVCTransform@@G@Z 10051170 f i IndexedGeometry.obj
 0001:000501c0       ?IsValid@CIndexedGeometry@@QBE_NXZ 100511c0 f i IndexedGeometry.obj
 0001:000501f0       ?ResetStripCounter@CIndexedGeometry@@QAEXG@Z 100511f0 f   IndexedGeometry.obj
 0001:00050270       ?SetNumLodLevels@CIndexedGeometry@@QAEXG@Z 10051270 f   IndexedGeometry.obj
 0001:00050370       ?Transform@CIndexedGeometry@@QAEXABVCTransform@@@Z 10051370 f   IndexedGeometry.obj
 0001:000505e0       ?Validate@CIndexedGeometry@@QAEXXZ 100515e0 f i IndexedGeometry.obj
 0001:00050610       ?_Buy_nonzero@?$vector@GV?$allocator@G@std@@@std@@AAEXI@Z 10051610 f i IndexedGeometry.obj
 0001:00050680       ?_Buy_nonzero@?$vector@HV?$allocator@H@std@@@std@@AAEXI@Z 10051680 f i IndexedGeometry.obj
 0001:000506f0       ?_Buy_nonzero@?$vector@PAGV?$allocator@PAG@std@@@std@@AAEXI@Z 100516f0 f i IndexedGeometry.obj
 0001:00050760       ?_Buy_nonzero@?$vector@V?$vector@GV?$allocator@G@std@@@std@@V?$allocator@V?$vector@GV?$allocator@G@std@@@std@@@2@@std@@AAEXI@Z 10051760 f i IndexedGeometry.obj
 0001:000507d0       ?_Buy_nonzero@?$vector@V?$vector@PAGV?$allocator@PAG@std@@@std@@V?$allocator@V?$vector@PAGV?$allocator@PAG@std@@@std@@@2@@std@@AAEXI@Z 100517d0 f i IndexedGeometry.obj
 0001:00050840       ?_Buy_raw@?$vector@GV?$allocator@G@std@@@std@@AAEXI@Z 10051840 f i IndexedGeometry.obj
 0001:000508f0       ?_Buy_raw@?$vector@HV?$allocator@H@std@@@std@@AAEXI@Z 100518f0 f i IndexedGeometry.obj
 0001:000509a0       ?_Buy_raw@?$vector@PAGV?$allocator@PAG@std@@@std@@AAEXI@Z 100519a0 f i IndexedGeometry.obj
 0001:00050a50       ?_Buy_raw@?$vector@V?$vector@GV?$allocator@G@std@@@std@@V?$allocator@V?$vector@GV?$allocator@G@std@@@std@@@2@@std@@AAEXI@Z 10051a50 f i IndexedGeometry.obj
 0001:00050b00       ?_Buy_raw@?$vector@V?$vector@PAGV?$allocator@PAG@std@@@std@@V?$allocator@V?$vector@PAGV?$allocator@PAG@std@@@std@@@2@@std@@AAEXI@Z 10051b00 f i IndexedGeometry.obj
 0001:00050bb0       ?_Calculate_growth@?$vector@GV?$allocator@G@std@@@std@@ABEII@Z 10051bb0 f i IndexedGeometry.obj
 0001:00050c50       ?_Calculate_growth@?$vector@KV?$allocator@K@std@@@std@@ABEII@Z 10051c50 f i IndexedGeometry.obj
 0001:00050cf0       ?_Calculate_growth@?$vector@PAGV?$allocator@PAG@std@@@std@@ABEII@Z 10051cf0 f i IndexedGeometry.obj
 0001:00050d90       ?_Calculate_growth@?$vector@V?$vector@GV?$allocator@G@std@@@std@@V?$allocator@V?$vector@GV?$allocator@G@std@@@std@@@2@@std@@ABEII@Z 10051d90 f i IndexedGeometry.obj
 0001:00050e30       ?_Calculate_growth@?$vector@V?$vector@PAGV?$allocator@PAG@std@@@std@@V?$allocator@V?$vector@PAGV?$allocator@PAG@std@@@std@@@2@@std@@ABEII@Z 10051e30 f i IndexedGeometry.obj
 0001:00050ed0       ?_Change_array@?$vector@GV?$allocator@G@std@@@std@@AAEXQAGII@Z 10051ed0 f i IndexedGeometry.obj
 0001:00050fd0       ?_Change_array@?$vector@KV?$allocator@K@std@@@std@@AAEXQAKII@Z 10051fd0 f i IndexedGeometry.obj
 0001:000510d0       ?_Change_array@?$vector@PAGV?$allocator@PAG@std@@@std@@AAEXQAPAGII@Z 100520d0 f i IndexedGeometry.obj
 0001:000511d0       ?_Change_array@?$vector@V?$vector@GV?$allocator@G@std@@@std@@V?$allocator@V?$vector@GV?$allocator@G@std@@@std@@@2@@std@@AAEXQAV?$vector@GV?$allocator@G@std@@@2@II@Z 100521d0 f i IndexedGeometry.obj
 0001:000512d0       ?_Change_array@?$vector@V?$vector@PAGV?$allocator@PAG@std@@@std@@V?$allocator@V?$vector@PAGV?$allocator@PAG@std@@@std@@@2@@std@@AAEXQAV?$vector@PAGV?$allocator@PAG@std@@@2@II@Z 100522d0 f i IndexedGeometry.obj
 0001:000513d0       ?_Clear_and_reserve_geometric@?$vector@GV?$allocator@G@std@@@std@@AAEXI@Z 100523d0 f i IndexedGeometry.obj
 0001:00051500       ?_Clear_and_reserve_geometric@?$vector@HV?$allocator@H@std@@@std@@AAEXI@Z 10052500 f i IndexedGeometry.obj
 0001:00051630       ?_Clear_and_reserve_geometric@?$vector@PAGV?$allocator@PAG@std@@@std@@AAEXI@Z 10052630 f i IndexedGeometry.obj
 0001:00051760       ?_Clear_and_reserve_geometric@?$vector@V?$vector@GV?$allocator@G@std@@@std@@V?$allocator@V?$vector@GV?$allocator@G@std@@@std@@@2@@std@@AAEXI@Z 10052760 f i IndexedGeometry.obj
 0001:00051890       ?_Clear_and_reserve_geometric@?$vector@V?$vector@PAGV?$allocator@PAG@std@@@std@@V?$allocator@V?$vector@PAGV?$allocator@PAG@std@@@std@@@2@@std@@AAEXI@Z 10052890 f i IndexedGeometry.obj
 0001:000519c0       ?_Get_first@?$_Compressed_pair@V?$allocator@G@std@@V?$_Vector_val@U?$_Simple_types@G@std@@@2@$00@std@@QAEAAV?$allocator@G@2@XZ 100529c0 f i IndexedGeometry.obj
 0001:000519e0       ?_Get_first@?$_Compressed_pair@V?$allocator@G@std@@V?$_Vector_val@U?$_Simple_types@G@std@@@2@$00@std@@QBEABV?$allocator@G@2@XZ 100529e0 f i IndexedGeometry.obj
 0001:00051a00       ?_Get_first@?$_Compressed_pair@V?$allocator@K@std@@V?$_Vector_val@U?$_Simple_types@K@std@@@2@$00@std@@QAEAAV?$allocator@K@2@XZ 10052a00 f i IndexedGeometry.obj
 0001:00051a20       ?_Get_first@?$_Compressed_pair@V?$allocator@K@std@@V?$_Vector_val@U?$_Simple_types@K@std@@@2@$00@std@@QBEABV?$allocator@K@2@XZ 10052a20 f i IndexedGeometry.obj
 0001:00051a40       ?_Get_first@?$_Compressed_pair@V?$allocator@PAG@std@@V?$_Vector_val@U?$_Simple_types@PAG@std@@@2@$00@std@@QAEAAV?$allocator@PAG@2@XZ 10052a40 f i IndexedGeometry.obj
 0001:00051a60       ?_Get_first@?$_Compressed_pair@V?$allocator@PAG@std@@V?$_Vector_val@U?$_Simple_types@PAG@std@@@2@$00@std@@QBEABV?$allocator@PAG@2@XZ 10052a60 f i IndexedGeometry.obj
 0001:00051a80       ?_Get_first@?$_Compressed_pair@V?$allocator@V?$vector@GV?$allocator@G@std@@@std@@@std@@V?$_Vector_val@U?$_Simple_types@V?$vector@GV?$allocator@G@std@@@std@@@std@@@2@$00@std@@QAEAAV?$allocator@V?$vector@GV?$allocator@G@std@@@std@@@2@XZ 10052a80 f i IndexedGeometry.obj
 0001:00051aa0       ?_Get_first@?$_Compressed_pair@V?$allocator@V?$vector@GV?$allocator@G@std@@@std@@@std@@V?$_Vector_val@U?$_Simple_types@V?$vector@GV?$allocator@G@std@@@std@@@std@@@2@$00@std@@QBEABV?$allocator@V?$vector@GV?$allocator@G@std@@@std@@@2@XZ 10052aa0 f i IndexedGeometry.obj
 0001:00051ac0       ?_Get_first@?$_Compressed_pair@V?$allocator@V?$vector@PAGV?$allocator@PAG@std@@@std@@@std@@V?$_Vector_val@U?$_Simple_types@V?$vector@PAGV?$allocator@PAG@std@@@std@@@std@@@2@$00@std@@QAEAAV?$allocator@V?$vector@PAGV?$allocator@PAG@std@@@std@@@2@XZ 10052ac0 f i IndexedGeometry.obj
 0001:00051ae0       ?_Get_first@?$_Compressed_pair@V?$allocator@V?$vector@PAGV?$allocator@PAG@std@@@std@@@std@@V?$_Vector_val@U?$_Simple_types@V?$vector@PAGV?$allocator@PAG@std@@@std@@@std@@@2@$00@std@@QBEABV?$allocator@V?$vector@PAGV?$allocator@PAG@std@@@std@@@2@XZ 10052ae0 f i IndexedGeometry.obj
 0001:00051b00       ?_Getal@?$vector@GV?$allocator@G@std@@@std@@AAEAAV?$allocator@G@2@XZ 10052b00 f i IndexedGeometry.obj
 0001:00051b50       ?_Getal@?$vector@GV?$allocator@G@std@@@std@@ABEABV?$allocator@G@2@XZ 10052b50 f i IndexedGeometry.obj
 0001:00051ba0       ?_Getal@?$vector@KV?$allocator@K@std@@@std@@AAEAAV?$allocator@K@2@XZ 10052ba0 f i IndexedGeometry.obj
 0001:00051bf0       ?_Getal@?$vector@KV?$allocator@K@std@@@std@@ABEABV?$allocator@K@2@XZ 10052bf0 f i IndexedGeometry.obj
 0001:00051c40       ?_Getal@?$vector@PAGV?$allocator@PAG@std@@@std@@AAEAAV?$allocator@PAG@2@XZ 10052c40 f i IndexedGeometry.obj
 0001:00051c90       ?_Getal@?$vector@PAGV?$allocator@PAG@std@@@std@@ABEABV?$allocator@PAG@2@XZ 10052c90 f i IndexedGeometry.obj
 0001:00051ce0       ?_Getal@?$vector@V?$vector@GV?$allocator@G@std@@@std@@V?$allocator@V?$vector@GV?$allocator@G@std@@@std@@@2@@std@@AAEAAV?$allocator@V?$vector@GV?$allocator@G@std@@@std@@@2@XZ 10052ce0 f i IndexedGeometry.obj
 0001:00051d30       ?_Getal@?$vector@V?$vector@GV?$allocator@G@std@@@std@@V?$allocator@V?$vector@GV?$allocator@G@std@@@std@@@2@@std@@ABEABV?$allocator@V?$vector@GV?$allocator@G@std@@@std@@@2@XZ 10052d30 f i IndexedGeometry.obj
 0001:00051d80       ?_Getal@?$vector@V?$vector@PAGV?$allocator@PAG@std@@@std@@V?$allocator@V?$vector@PAGV?$allocator@PAG@std@@@std@@@2@@std@@AAEAAV?$allocator@V?$vector@PAGV?$allocator@PAG@std@@@std@@@2@XZ 10052d80 f i IndexedGeometry.obj
 0001:00051dd0       ?_Getal@?$vector@V?$vector@PAGV?$allocator@PAG@std@@@std@@V?$allocator@V?$vector@PAGV?$allocator@PAG@std@@@std@@@2@@std@@ABEABV?$allocator@V?$vector@PAGV?$allocator@PAG@std@@@std@@@2@XZ 10052dd0 f i IndexedGeometry.obj
 0001:00051e20       ?_Orphan_range@?$vector@GV?$allocator@G@std@@@std@@ABEXPAG0@Z 10052e20 f i IndexedGeometry.obj
 0001:00051e80       ?_Orphan_range@?$vector@KV?$allocator@K@std@@@std@@ABEXPAK0@Z 10052e80 f i IndexedGeometry.obj
 0001:00051ee0       ?_Orphan_range@?$vector@PAGV?$allocator@PAG@std@@@std@@ABEXPAPAG0@Z 10052ee0 f i IndexedGeometry.obj
 0001:00051f40       ?_Orphan_range@?$vector@V?$vector@GV?$allocator@G@std@@@std@@V?$allocator@V?$vector@GV?$allocator@G@std@@@std@@@2@@std@@ABEXPAV?$vector@GV?$allocator@G@std@@@2@0@Z 10052f40 f i IndexedGeometry.obj
 0001:00051fa0       ?_Orphan_range@?$vector@V?$vector@PAGV?$allocator@PAG@std@@@std@@V?$allocator@V?$vector@PAGV?$allocator@PAG@std@@@std@@@2@@std@@ABEXPAV?$vector@PAGV?$allocator@PAG@std@@@2@0@Z 10052fa0 f i IndexedGeometry.obj
 0001:00052000       ?_Orphan_range_locked@?$vector@GV?$allocator@G@std@@@std@@ABEXPAG0@Z 10053000 f i IndexedGeometry.obj
 0001:00052110       ?_Orphan_range_locked@?$vector@KV?$allocator@K@std@@@std@@ABEXPAK0@Z 10053110 f i IndexedGeometry.obj
 0001:00052220       ?_Orphan_range_locked@?$vector@PAGV?$allocator@PAG@std@@@std@@ABEXPAPAG0@Z 10053220 f i IndexedGeometry.obj
 0001:00052330       ?_Orphan_range_locked@?$vector@V?$vector@GV?$allocator@G@std@@@std@@V?$allocator@V?$vector@GV?$allocator@G@std@@@std@@@2@@std@@ABEXPAV?$vector@GV?$allocator@G@std@@@2@0@Z 10053330 f i IndexedGeometry.obj
 0001:00052440       ?_Orphan_range_locked@?$vector@V?$vector@PAGV?$allocator@PAG@std@@@std@@V?$allocator@V?$vector@PAGV?$allocator@PAG@std@@@std@@@2@@std@@ABEXPAV?$vector@PAGV?$allocator@PAG@std@@@2@0@Z 10053440 f i IndexedGeometry.obj
 0001:00052550       ?_Orphan_range_unlocked@?$vector@GV?$allocator@G@std@@@std@@ABEXPAG0@Z 10053550 f i IndexedGeometry.obj
 0001:000525e0       ?_Orphan_range_unlocked@?$vector@KV?$allocator@K@std@@@std@@ABEXPAK0@Z 100535e0 f i IndexedGeometry.obj
 0001:00052670       ?_Orphan_range_unlocked@?$vector@PAGV?$allocator@PAG@std@@@std@@ABEXPAPAG0@Z 10053670 f i IndexedGeometry.obj
 0001:00052700       ?_Orphan_range_unlocked@?$vector@V?$vector@GV?$allocator@G@std@@@std@@V?$allocator@V?$vector@GV?$allocator@G@std@@@std@@@2@@std@@ABEXPAV?$vector@GV?$allocator@G@std@@@2@0@Z 10053700 f i IndexedGeometry.obj
 0001:00052790       ?_Orphan_range_unlocked@?$vector@V?$vector@PAGV?$allocator@PAG@std@@@std@@V?$allocator@V?$vector@PAGV?$allocator@PAG@std@@@std@@@2@@std@@ABEXPAV?$vector@PAGV?$allocator@PAG@std@@@2@0@Z 10053790 f i IndexedGeometry.obj
 0001:00052820       ?_Release@?$_Uninitialized_backout_al@V?$allocator@G@std@@@std@@QAEPAGXZ 10053820 f i IndexedGeometry.obj
 0001:00052850       ?_Release@?$_Uninitialized_backout_al@V?$allocator@K@std@@@std@@QAEPAKXZ 10053850 f i IndexedGeometry.obj
 0001:00052880       ?_Release@?$_Uninitialized_backout_al@V?$allocator@PAG@std@@@std@@QAEPAPAGXZ 10053880 f i IndexedGeometry.obj
 0001:000528b0       ?_Release@?$_Uninitialized_backout_al@V?$allocator@V?$vector@GV?$allocator@G@std@@@std@@@std@@@std@@QAEPAV?$vector@GV?$allocator@G@std@@@2@XZ 100538b0 f i IndexedGeometry.obj
 0001:000528e0       ?_Release@?$_Uninitialized_backout_al@V?$allocator@V?$vector@PAGV?$allocator@PAG@std@@@std@@@std@@@std@@QAEPAV?$vector@PAGV?$allocator@PAG@std@@@2@XZ 100538e0 f i IndexedGeometry.obj
 0001:00052910       ?_Tidy@?$vector@EV?$allocator@E@std@@@std@@AAEXXZ 10053910 f i IndexedGeometry.obj
 0001:00052a40       ?_Tidy@?$vector@GV?$allocator@G@std@@@std@@AAEXXZ 10053a40 f i IndexedGeometry.obj
 0001:00052b70       ?_Tidy@?$vector@KV?$allocator@K@std@@@std@@AAEXXZ 10053b70 f i IndexedGeometry.obj
 0001:00052ca0       ?_Tidy@?$vector@PAGV?$allocator@PAG@std@@@std@@AAEXXZ 10053ca0 f i IndexedGeometry.obj
 0001:00052dd0       ?_Tidy@?$vector@V?$vector@GV?$allocator@G@std@@@std@@V?$allocator@V?$vector@GV?$allocator@G@std@@@std@@@2@@std@@AAEXXZ 10053dd0 f i IndexedGeometry.obj
 0001:00052f00       ?_Tidy@?$vector@V?$vector@PAGV?$allocator@PAG@std@@@std@@V?$allocator@V?$vector@PAGV?$allocator@PAG@std@@@std@@@2@@std@@AAEXXZ 10053f00 f i IndexedGeometry.obj
 0001:00053030       ?_Xlength@?$vector@GV?$allocator@G@std@@@std@@CAXXZ 10054030 f i IndexedGeometry.obj
 0001:00053080       ?_Xlength@?$vector@KV?$allocator@K@std@@@std@@CAXXZ 10054080 f i IndexedGeometry.obj
 0001:000530d0       ?_Xlength@?$vector@PAGV?$allocator@PAG@std@@@std@@CAXXZ 100540d0 f i IndexedGeometry.obj
 0001:00053120       ?_Xlength@?$vector@V?$vector@GV?$allocator@G@std@@@std@@V?$allocator@V?$vector@GV?$allocator@G@std@@@std@@@2@@std@@CAXXZ 10054120 f i IndexedGeometry.obj
 0001:00053170       ?_Xlength@?$vector@V?$vector@PAGV?$allocator@PAG@std@@@std@@V?$allocator@V?$vector@PAGV?$allocator@PAG@std@@@std@@@2@@std@@CAXXZ 10054170 f i IndexedGeometry.obj
 0001:000531c0       ?allocate@?$allocator@G@std@@QAEPAGI@Z 100541c0 f i IndexedGeometry.obj
 0001:00053220       ?allocate@?$allocator@K@std@@QAEPAKI@Z 10054220 f i IndexedGeometry.obj
 0001:00053280       ?allocate@?$allocator@PAG@std@@QAEPAPAGI@Z 10054280 f i IndexedGeometry.obj
 0001:000532e0       ?allocate@?$allocator@V?$vector@GV?$allocator@G@std@@@std@@@std@@QAEPAV?$vector@GV?$allocator@G@std@@@2@I@Z 100542e0 f i IndexedGeometry.obj
 0001:00053340       ?allocate@?$allocator@V?$vector@PAGV?$allocator@PAG@std@@@std@@@std@@QAEPAV?$vector@PAGV?$allocator@PAG@std@@@2@I@Z 10054340 f i IndexedGeometry.obj
 0001:000533a0       ?capacity@?$vector@GV?$allocator@G@std@@@std@@QBEIXZ 100543a0 f i IndexedGeometry.obj
 0001:000533e0       ?capacity@?$vector@KV?$allocator@K@std@@@std@@QBEIXZ 100543e0 f i IndexedGeometry.obj
 0001:00053420       ?capacity@?$vector@PAGV?$allocator@PAG@std@@@std@@QBEIXZ 10054420 f i IndexedGeometry.obj
 0001:00053460       ?capacity@?$vector@V?$vector@GV?$allocator@G@std@@@std@@V?$allocator@V?$vector@GV?$allocator@G@std@@@std@@@2@@std@@QBEIXZ 10054460 f i IndexedGeometry.obj
 0001:000534a0       ?capacity@?$vector@V?$vector@PAGV?$allocator@PAG@std@@@std@@V?$allocator@V?$vector@PAGV?$allocator@PAG@std@@@std@@@2@@std@@QBEIXZ 100544a0 f i IndexedGeometry.obj
 0001:000534e0       ?clear@?$vector@GV?$allocator@G@std@@@std@@QAEXXZ 100544e0 f i IndexedGeometry.obj
 0001:00053590       ?clear@?$vector@PAGV?$allocator@PAG@std@@@std@@QAEXXZ 10054590 f i IndexedGeometry.obj
 0001:00053640       ?clear@?$vector@V?$vector@GV?$allocator@G@std@@@std@@V?$allocator@V?$vector@GV?$allocator@G@std@@@std@@@2@@std@@QAEXXZ 10054640 f i IndexedGeometry.obj
 0001:000536f0       ?clear@?$vector@V?$vector@PAGV?$allocator@PAG@std@@@std@@V?$allocator@V?$vector@PAGV?$allocator@PAG@std@@@std@@@2@@std@@QAEXXZ 100546f0 f i IndexedGeometry.obj
 0001:000537a0       ?deallocate@?$allocator@G@std@@QAEXQAGI@Z 100547a0 f i IndexedGeometry.obj
 0001:00053890       ?deallocate@?$allocator@K@std@@QAEXQAKI@Z 10054890 f i IndexedGeometry.obj
 0001:00053980       ?deallocate@?$allocator@PAG@std@@QAEXQAPAGI@Z 10054980 f i IndexedGeometry.obj
 0001:00053a70       ?deallocate@?$allocator@V?$vector@GV?$allocator@G@std@@@std@@@std@@QAEXQAV?$vector@GV?$allocator@G@std@@@2@I@Z 10054a70 f i IndexedGeometry.obj
 0001:00053b60       ?deallocate@?$allocator@V?$vector@PAGV?$allocator@PAG@std@@@std@@@std@@QAEXQAV?$vector@PAGV?$allocator@PAG@std@@@2@I@Z 10054b60 f i IndexedGeometry.obj
 0001:00053c50       ?empty@?$vector@MV?$allocator@M@std@@@std@@QBE_NXZ 10054c50 f i IndexedGeometry.obj
 0001:00053cb0       ?empty@?$vector@PAGV?$allocator@PAG@std@@@std@@QBE_NXZ 10054cb0 f i IndexedGeometry.obj
 0001:00053d10       ?max_size@?$_Default_allocator_traits@V?$allocator@G@std@@@std@@SAIABV?$allocator@G@2@@Z 10054d10 f i IndexedGeometry.obj
 0001:00053d30       ?max_size@?$_Default_allocator_traits@V?$allocator@K@std@@@std@@SAIABV?$allocator@K@2@@Z 10054d30 f i IndexedGeometry.obj
 0001:00053d50       ?max_size@?$_Default_allocator_traits@V?$allocator@PAG@std@@@std@@SAIABV?$allocator@PAG@2@@Z 10054d50 f i IndexedGeometry.obj
 0001:00053d70       ?max_size@?$_Default_allocator_traits@V?$allocator@V?$vector@GV?$allocator@G@std@@@std@@@std@@@std@@SAIABV?$allocator@V?$vector@GV?$allocator@G@std@@@std@@@2@@Z 10054d70 f i IndexedGeometry.obj
 0001:00053d90       ?max_size@?$_Default_allocator_traits@V?$allocator@V?$vector@PAGV?$allocator@PAG@std@@@std@@@std@@@std@@SAIABV?$allocator@V?$vector@PAGV?$allocator@PAG@std@@@std@@@2@@Z 10054d90 f i IndexedGeometry.obj
 0001:00053db0       ?max_size@?$vector@GV?$allocator@G@std@@@std@@QBEIXZ 10054db0 f i IndexedGeometry.obj
 0001:00053e40       ?max_size@?$vector@KV?$allocator@K@std@@@std@@QBEIXZ 10054e40 f i IndexedGeometry.obj
 0001:00053ed0       ?max_size@?$vector@PAGV?$allocator@PAG@std@@@std@@QBEIXZ 10054ed0 f i IndexedGeometry.obj
 0001:00053f60       ?max_size@?$vector@V?$vector@GV?$allocator@G@std@@@std@@V?$allocator@V?$vector@GV?$allocator@G@std@@@std@@@2@@std@@QBEIXZ 10054f60 f i IndexedGeometry.obj
 0001:00053ff0       ?max_size@?$vector@V?$vector@PAGV?$allocator@PAG@std@@@std@@V?$allocator@V?$vector@PAGV?$allocator@PAG@std@@@std@@@2@@std@@QBEIXZ 10054ff0 f i IndexedGeometry.obj
 0001:00054080       ?push_back@?$vector@GV?$allocator@G@std@@@std@@QAEX$$QAG@Z 10055080 f i IndexedGeometry.obj
 0001:000540e0       ?push_back@?$vector@KV?$allocator@K@std@@@std@@QAEXABK@Z 100550e0 f i IndexedGeometry.obj
 0001:00054140       ?push_back@?$vector@PAGV?$allocator@PAG@std@@@std@@QAEXABQAG@Z 10055140 f i IndexedGeometry.obj
 0001:000541a0       ?resize@?$vector@EV?$allocator@E@std@@@std@@QAEXI@Z 100551a0 f i IndexedGeometry.obj
 0001:00054200       ?resize@?$vector@GV?$allocator@G@std@@@std@@QAEXI@Z 10055200 f i IndexedGeometry.obj
 0001:00054260       ?resize@?$vector@HV?$allocator@H@std@@@std@@QAEXI@Z 10055260 f i IndexedGeometry.obj
 0001:000542c0       ?resize@?$vector@MV?$allocator@M@std@@@std@@QAEXI@Z 100552c0 f i IndexedGeometry.obj
 0001:00054320       ?resize@?$vector@PAGV?$allocator@PAG@std@@@std@@QAEXI@Z 10055320 f i IndexedGeometry.obj
 0001:00054380       ?resize@?$vector@V?$vector@GV?$allocator@G@std@@@std@@V?$allocator@V?$vector@GV?$allocator@G@std@@@std@@@2@@std@@QAEXI@Z 10055380 f i IndexedGeometry.obj
 0001:000543e0       ?resize@?$vector@V?$vector@PAGV?$allocator@PAG@std@@@std@@V?$allocator@V?$vector@PAGV?$allocator@PAG@std@@@std@@@2@@std@@QAEXI@Z 100553e0 f i IndexedGeometry.obj
 0001:00054440       ?select_on_container_copy_construction@?$_Default_allocator_traits@V?$allocator@G@std@@@std@@SA?AV?$allocator@G@2@ABV32@@Z 10055440 f i IndexedGeometry.obj
 0001:00054460       ?select_on_container_copy_construction@?$_Default_allocator_traits@V?$allocator@PAG@std@@@std@@SA?AV?$allocator@PAG@2@ABV32@@Z 10055460 f i IndexedGeometry.obj
 0001:00054480       ?size@?$vector@PAGV?$allocator@PAG@std@@@std@@QBEIXZ 10055480 f i IndexedGeometry.obj
 0001:000544c0       ?size@?$vector@V?$vector@PAGV?$allocator@PAG@std@@@std@@V?$allocator@V?$vector@PAGV?$allocator@PAG@std@@@std@@@2@@std@@QBEIXZ 100554c0 f i IndexedGeometry.obj
 0001:00054500       ??0CLeafGeometry@@QAE@PAVCWindEngine@@@Z 10055500 f   LeafGeometry.obj
 0001:00054680       ??0CVec3@@QAE@MM@Z         10055680 f i LeafGeometry.obj
 0001:000546f0       ??0SLodGeometry@CLeafGeometry@@QAE@XZ 100556f0 f   LeafGeometry.obj
 0001:00054760       ??1CLeafGeometry@@QAE@XZ   10055760 f   LeafGeometry.obj
 0001:000548a0       ??1SLodGeometry@CLeafGeometry@@QAE@XZ 100558a0 f   LeafGeometry.obj
 0001:00054b20       ??A?$vector@USIdvLeafTexture@@V?$allocator@USIdvLeafTexture@@@std@@@std@@QBEABUSIdvLeafTexture@@I@Z 10055b20 f i LeafGeometry.obj
 0001:00054c20       ??_ESLodGeometry@CLeafGeometry@@QAEPAXI@Z 10055c20 f i LeafGeometry.obj
 0001:00054d30       ?ComputeExtents@CLeafGeometry@@QBEXAAVCRegion@@@Z 10055d30 f   LeafGeometry.obj
 0001:000558b0       ?ComputeWindEffect@CLeafGeometry@@AAEXG@Z 100568b0 f   LeafGeometry.obj
 0001:00055c40       ?GetAltTextureIndex@CBillboardLeaf@@QBEHXZ 10056c40 f i LeafGeometry.obj
 0001:00055c70       ?GetAngle@CBillboardLeaf@@QBEHXZ 10056c70 f i LeafGeometry.obj
 0001:00055ca0       ?GetBinormal@CBillboardLeaf@@QBEABVCVec3@@XZ 10056ca0 f i LeafGeometry.obj
 0001:00055cd0       ?GetColorLong@CBillboardLeaf@@QBEKXZ 10056cd0 f i LeafGeometry.obj
 0001:00055d00       ?GetLeafBillboardTable@CLeafGeometry@@QBEPBMAAI@Z 10056d00 f   LeafGeometry.obj
 0001:00055e10       ?GetLeafWindMethod@CWindEngine@@QBE?AW4EWindMethod@CSpeedTreeRT@@XZ 10056e10 f i LeafGeometry.obj
 0001:00055e40       ?GetNormal@CBillboardLeaf@@QBEABVCVec3@@XZ 10056e40 f i LeafGeometry.obj
 0001:00055e70       ?GetTangent@CBillboardLeaf@@QBEABVCVec3@@XZ 10056e70 f i LeafGeometry.obj
 0001:00055ea0       ?GetTextureCoords@CLeafGeometry@@QBEXIPAM@Z 10056ea0 f   LeafGeometry.obj
 0001:00055f30       ?GetWeight@CBillboardLeaf@@QBEMXZ 10056f30 f i LeafGeometry.obj
 0001:00055f60       ?GetWindGroup@CBillboardLeaf@@QBEEXZ 10056f60 f i LeafGeometry.obj
 0001:00055f90       ?Init@CLeafGeometry@@QAEXGPBV?$vector@PAVCBillboardLeaf@@V?$allocator@PAVCBillboardLeaf@@@std@@@std@@ABUSIdvLeafInfo@@@Z 10056f90 f   LeafGeometry.obj
 0001:000562e0       ?InitLods@CLeafGeometry@@AAEXGPBV?$vector@PAVCBillboardLeaf@@V?$allocator@PAVCBillboardLeaf@@@std@@@std@@@Z 100572e0 f   LeafGeometry.obj
 0001:00056e20       ?Invalidate@CLeafGeometry@@QAEXXZ 10057e20 f   LeafGeometry.obj
 0001:00056eb0       ?Invalidate@SLodGeometry@CLeafGeometry@@QAEXXZ 10057eb0 f i LeafGeometry.obj
 0001:00056ee0       ?IsValid@SLodGeometry@CLeafGeometry@@QBE_NXZ 10057ee0 f i LeafGeometry.obj
 0001:00056f10       ?SetTextureCoords@CLeafGeometry@@QAEXIPBM@Z 10057f10 f   LeafGeometry.obj
 0001:00057280       ?Transform@CLeafGeometry@@QAEXABVCTransform@@@Z 10058280 f   LeafGeometry.obj
 0001:000575d0       ?Update@CLeafGeometry@@QAEXAAUSLeaf@SGeometry@CSpeedTreeRT@@GMMM@Z 100585d0 f   LeafGeometry.obj
 0001:00058070       ?UsingExternalRockAngles@CWindEngine@@QBE_NXZ 10059070 f i LeafGeometry.obj
 0001:000580c0       ?Validate@SLodGeometry@CLeafGeometry@@QAEXXZ 100590c0 f i LeafGeometry.obj
 0001:000580f0       ??$?0$$V@?$_Compressed_pair@V?$allocator@USIdvLeafTexture@@@std@@V?$_Vector_val@U?$_Simple_types@USIdvLeafTexture@@@std@@@2@$00@std@@QAE@U_Zero_then_variadic_args_t@1@@Z 100590f0 f i LeafInfo.obj
 0001:00058150       ??$?0USIdvLeafTexture@@@?$allocator@U_Container_proxy@std@@@std@@QAE@ABV?$allocator@USIdvLeafTexture@@@1@@Z 10059150 f i LeafInfo.obj
 0001:00058180       ??$_Allocate_at_least_helper@V?$allocator@USIdvLeafTexture@@@std@@@std@@YAPAUSIdvLeafTexture@@AAV?$allocator@USIdvLeafTexture@@@0@AAI@Z 10059180 f i LeafInfo.obj
 0001:000581d0       ??$_Destroy_range@V?$allocator@USIdvLeafTexture@@@std@@@std@@YAXPAUSIdvLeafTexture@@QAU1@AAV?$allocator@USIdvLeafTexture@@@0@@Z 100591d0 f i LeafInfo.obj
 0001:00058280       ??$_Emplace_back@$$V@?$_Uninitialized_backout_al@V?$allocator@USIdvLeafTexture@@@std@@@std@@QAEXXZ 10059280 f i LeafInfo.obj
 0001:00058300       ??$_Emplace_back@USIdvLeafTexture@@@?$_Uninitialized_backout_al@V?$allocator@USIdvLeafTexture@@@std@@@std@@QAEX$$QAUSIdvLeafTexture@@@Z 10059300 f i LeafInfo.obj
 0001:00058390       ??$_Get_size_of_n@$0FE@@std@@YAII@Z 10059390 f i LeafInfo.obj
 0001:000583f0       ??$_Get_unwrapped@ABQAUSIdvLeafTexture@@@std@@YA?A_TABQAUSIdvLeafTexture@@@Z 100593f0 f i LeafInfo.obj
 0001:00058410       ??$_Resize@U_Value_init_tag@std@@@?$vector@USIdvLeafTexture@@V?$allocator@USIdvLeafTexture@@@std@@@std@@AAEXIABU_Value_init_tag@1@@Z 10059410 f i LeafInfo.obj
 0001:00058580       ??$_Resize_reallocate@U_Value_init_tag@std@@@?$vector@USIdvLeafTexture@@V?$allocator@USIdvLeafTexture@@@std@@@std@@AAEXIABU_Value_init_tag@1@@Z 10059580 f i LeafInfo.obj
 0001:000587c0       ??$_Unfancy@USIdvLeafTexture@@@std@@YAPAUSIdvLeafTexture@@PAU1@@Z 100597c0 f i LeafInfo.obj
 0001:000587e0       ??$_Uninitialized_move@PAUSIdvLeafTexture@@V?$allocator@USIdvLeafTexture@@@std@@@std@@YAPAUSIdvLeafTexture@@QAU1@0PAU1@AAV?$allocator@USIdvLeafTexture@@@0@@Z 100597e0 f i LeafInfo.obj
 0001:00058930       ??$_Uninitialized_value_construct_n@V?$allocator@USIdvLeafTexture@@@std@@@std@@YAPAUSIdvLeafTexture@@PAU1@IAAV?$allocator@USIdvLeafTexture@@@0@@Z 10059930 f i LeafInfo.obj
 0001:00058a50       ??$construct@USIdvLeafTexture@@$$V@?$_Default_allocator_traits@V?$allocator@USIdvLeafTexture@@@std@@@std@@SAXAAV?$allocator@USIdvLeafTexture@@@1@QAUSIdvLeafTexture@@@Z 10059a50 f i LeafInfo.obj
 0001:00058ac0       ??$construct@USIdvLeafTexture@@U1@@?$_Default_allocator_traits@V?$allocator@USIdvLeafTexture@@@std@@@std@@SAXAAV?$allocator@USIdvLeafTexture@@@1@QAUSIdvLeafTexture@@$$QAU3@@Z 10059ac0 f i LeafInfo.obj
 0001:00058b40       ??$destroy@USIdvLeafTexture@@@?$_Default_allocator_traits@V?$allocator@USIdvLeafTexture@@@std@@@std@@SAXAAV?$allocator@USIdvLeafTexture@@@1@QAUSIdvLeafTexture@@@Z 10059b40 f i LeafInfo.obj
 0001:00058b90       ??$forward@USIdvLeafTexture@@@std@@YA$$QAUSIdvLeafTexture@@AAU1@@Z 10059b90 f i LeafInfo.obj
 0001:00058bb0       ??$move@AAUSIdvLeafTexture@@@std@@YA$$QAUSIdvLeafTexture@@AAU1@@Z 10059bb0 f i LeafInfo.obj
 0001:00058bd0       ??0?$_Uninitialized_backout_al@V?$allocator@USIdvLeafTexture@@@std@@@std@@QAE@PAUSIdvLeafTexture@@AAV?$allocator@USIdvLeafTexture@@@1@@Z 10059bd0 f i LeafInfo.obj
 0001:00058c20       ??0?$_Vector_val@U?$_Simple_types@USIdvLeafTexture@@@std@@@std@@QAE@XZ 10059c20 f i LeafInfo.obj
 0001:00058ca0       ??0?$allocator@USIdvLeafTexture@@@std@@QAE@XZ 10059ca0 f i LeafInfo.obj
 0001:00058cc0       ??0?$vector@USIdvLeafTexture@@V?$allocator@USIdvLeafTexture@@@std@@@std@@QAE@XZ 10059cc0 f i LeafInfo.obj
 0001:00058d80       ??0SIdvLeafInfo@@QAE@XZ    10059d80 f   LeafInfo.obj
 0001:00058e90       ??0SIdvLeafTexture@@QAE@$$QAU0@@Z 10059e90 f i LeafInfo.obj
 0001:00058fa0       ??0SIdvLeafTexture@@QAE@XZ 10059fa0 f i LeafInfo.obj
 0001:00059130       ??1?$_Uninitialized_backout_al@V?$allocator@USIdvLeafTexture@@@std@@@std@@QAE@XZ 1005a130 f i LeafInfo.obj
 0001:000591a0       ??1?$vector@USIdvLeafTexture@@V?$allocator@USIdvLeafTexture@@@std@@@std@@QAE@XZ 1005a1a0 f i LeafInfo.obj
 0001:00059280       ??1SIdvLeafInfo@@QAE@XZ    1005a280 f   LeafInfo.obj
 0001:000593c0       ??1SIdvLeafTexture@@QAE@XZ 1005a3c0 f i LeafInfo.obj
 0001:00059410       ??4SIdvLeafTexture@@QAEAAU0@ABU0@@Z 1005a410 f i LeafInfo.obj
 0001:00059520       ??_GSIdvLeafTexture@@QAEPAXI@Z 1005a520 f i LeafInfo.obj
 0001:00059590       ?InitTables@SIdvLeafInfo@@QAEXH@Z 1005a590 f   LeafInfo.obj
 0001:00059960       ?Parse@SIdvLeafInfo@@QAEXAAVCTreeFileAccess@@@Z 1005a960 f   LeafInfo.obj
 0001:00059fc0       ?Save@SIdvLeafInfo@@QBEXAAVCTreeFileAccess@@@Z 1005afc0 f   LeafInfo.obj
 0001:0005a480       ?_Calculate_growth@?$vector@USIdvLeafTexture@@V?$allocator@USIdvLeafTexture@@@std@@@std@@ABEII@Z 1005b480 f i LeafInfo.obj
 0001:0005a520       ?_Change_array@?$vector@USIdvLeafTexture@@V?$allocator@USIdvLeafTexture@@@std@@@std@@AAEXQAUSIdvLeafTexture@@II@Z 1005b520 f i LeafInfo.obj
 0001:0005a620       ?_Get_first@?$_Compressed_pair@V?$allocator@USIdvLeafTexture@@@std@@V?$_Vector_val@U?$_Simple_types@USIdvLeafTexture@@@std@@@2@$00@std@@QAEAAV?$allocator@USIdvLeafTexture@@@2@XZ 1005b620 f i LeafInfo.obj
 0001:0005a640       ?_Get_first@?$_Compressed_pair@V?$allocator@USIdvLeafTexture@@@std@@V?$_Vector_val@U?$_Simple_types@USIdvLeafTexture@@@std@@@2@$00@std@@QBEABV?$allocator@USIdvLeafTexture@@@2@XZ 1005b640 f i LeafInfo.obj
 0001:0005a660       ?_Getal@?$vector@USIdvLeafTexture@@V?$allocator@USIdvLeafTexture@@@std@@@std@@AAEAAV?$allocator@USIdvLeafTexture@@@2@XZ 1005b660 f i LeafInfo.obj
 0001:0005a6b0       ?_Getal@?$vector@USIdvLeafTexture@@V?$allocator@USIdvLeafTexture@@@std@@@std@@ABEABV?$allocator@USIdvLeafTexture@@@2@XZ 1005b6b0 f i LeafInfo.obj
 0001:0005a700       ?_Orphan_range@?$vector@USIdvLeafTexture@@V?$allocator@USIdvLeafTexture@@@std@@@std@@ABEXPAUSIdvLeafTexture@@0@Z 1005b700 f i LeafInfo.obj
 0001:0005a760       ?_Orphan_range_locked@?$vector@USIdvLeafTexture@@V?$allocator@USIdvLeafTexture@@@std@@@std@@ABEXPAUSIdvLeafTexture@@0@Z 1005b760 f i LeafInfo.obj
 0001:0005a870       ?_Orphan_range_unlocked@?$vector@USIdvLeafTexture@@V?$allocator@USIdvLeafTexture@@@std@@@std@@ABEXPAUSIdvLeafTexture@@0@Z 1005b870 f i LeafInfo.obj
 0001:0005a900       ?_Release@?$_Uninitialized_backout_al@V?$allocator@USIdvLeafTexture@@@std@@@std@@QAEPAUSIdvLeafTexture@@XZ 1005b900 f i LeafInfo.obj
 0001:0005a930       ?_Tidy@?$vector@USIdvLeafTexture@@V?$allocator@USIdvLeafTexture@@@std@@@std@@AAEXXZ 1005b930 f i LeafInfo.obj
 0001:0005aa70       ?_Xlength@?$vector@USIdvLeafTexture@@V?$allocator@USIdvLeafTexture@@@std@@@std@@CAXXZ 1005ba70 f i LeafInfo.obj
 0001:0005aac0       ?allocate@?$allocator@USIdvLeafTexture@@@std@@QAEPAUSIdvLeafTexture@@I@Z 1005bac0 f i LeafInfo.obj
 0001:0005ab20       ?capacity@?$vector@USIdvLeafTexture@@V?$allocator@USIdvLeafTexture@@@std@@@std@@QBEIXZ 1005bb20 f i LeafInfo.obj
 0001:0005ab60       ?clear@?$vector@USIdvLeafTexture@@V?$allocator@USIdvLeafTexture@@@std@@@std@@QAEXXZ 1005bb60 f i LeafInfo.obj
 0001:0005ac10       ?deallocate@?$allocator@USIdvLeafTexture@@@std@@QAEXQAUSIdvLeafTexture@@I@Z 1005bc10 f i LeafInfo.obj
 0001:0005ad00       ?max_size@?$_Default_allocator_traits@V?$allocator@USIdvLeafTexture@@@std@@@std@@SAIABV?$allocator@USIdvLeafTexture@@@2@@Z 1005bd00 f i LeafInfo.obj
 0001:0005ad20       ?max_size@?$vector@USIdvLeafTexture@@V?$allocator@USIdvLeafTexture@@@std@@@std@@QBEIXZ 1005bd20 f i LeafInfo.obj
 0001:0005adb0       ?resize@?$vector@USIdvLeafTexture@@V?$allocator@USIdvLeafTexture@@@std@@@std@@QAEXI@Z 1005bdb0 f i LeafInfo.obj
 0001:0005ae10       ??$?0$$V@?$_Compressed_pair@V?$allocator@USLodEntry@CLeafLodEngine@@@std@@V?$_Vector_val@U?$_Simple_types@USLodEntry@CLeafLodEngine@@@std@@@2@$00@std@@QAE@U_Zero_then_variadic_args_t@1@@Z 1005be10 f i LeafLod.obj
 0001:0005ae70       ??$?0ABV?$allocator@I@std@@$$V@?$_Compressed_pair@V?$allocator@I@std@@V?$_Vector_val@U?$_Simple_types@I@std@@@2@$00@std@@QAE@U_One_then_variadic_args_t@1@ABV?$allocator@I@1@@Z 1005be70 f i LeafLod.obj
 0001:0005aee0       ??$?0I@?$allocator@U_Container_proxy@std@@@std@@QAE@ABV?$allocator@I@1@@Z 1005bee0 f i LeafLod.obj
 0001:0005af10       ??$?0USLodEntry@CLeafLodEngine@@@?$allocator@U_Container_proxy@std@@@std@@QAE@ABV?$allocator@USLodEntry@CLeafLodEngine@@@1@@Z 1005bf10 f i LeafLod.obj
 0001:0005af40       ??$?0V?$allocator@PAVCBillboardLeaf@@@std@@$$V@?$_Compressed_pair@V?$allocator@PAVCBillboardLeaf@@@std@@V?$_Vector_val@U?$_Simple_types@PAVCBillboardLeaf@@@std@@@2@$00@std@@QAE@U_One_then_variadic_args_t@1@$$QAV?$allocator@PAVCBillboardLeaf@@@1@@Z 1005bf40 f i LeafLod.obj
 0001:0005afb0       ??$?0V?$allocator@PAVCBillboardLeaf@@@std@@PAPAVCBillboardLeaf@@PAPAV2@PAPAV2@@?$_Compressed_pair@V?$allocator@PAVCBillboardLeaf@@@std@@V?$_Vector_val@U?$_Simple_types@PAVCBillboardLeaf@@@std@@@2@$00@std@@QAE@U_One_then_variadic_args_t@1@$$QAV?$allocator@PAVCBillboardLeaf@@@1@$$QAPAPAVCBillboardLeaf@@22@Z 1005bfb0 f i LeafLod.obj
 0001:0005b050       ??$?0_N@?$allocator@I@std@@QAE@ABV?$allocator@_N@1@@Z 1005c050 f i LeafLod.obj
 0001:0005b080       ??$_Adl_verify_range@V?$_Vb_iterator@U?$_Wrap_alloc@V?$allocator@I@std@@@std@@@std@@V12@@std@@YAXABV?$_Vb_iterator@U?$_Wrap_alloc@V?$allocator@I@std@@@std@@@0@0@Z 1005c080 f i LeafLod.obj
 0001:0005b0d0       ??$_Allocate_at_least_helper@V?$allocator@I@std@@@std@@YAPAIAAV?$allocator@I@0@AAI@Z 1005c0d0 f i LeafLod.obj
 0001:0005b120       ??$_Allocate_at_least_helper@V?$allocator@USLodEntry@CLeafLodEngine@@@std@@@std@@YAPAUSLodEntry@CLeafLodEngine@@AAV?$allocator@USLodEntry@CLeafLodEngine@@@0@AAI@Z 1005c120 f i LeafLod.obj
 0001:0005b170       ??$_Construct_in_place@USLodEntry@CLeafLodEngine@@ABU12@@std@@YAXAAUSLodEntry@CLeafLodEngine@@ABU12@@Z 1005c170 f i LeafLod.obj
 0001:0005b200       ??$_Construct_n@ABI@?$vector@IV?$allocator@I@std@@@std@@AAEXIABI@Z 1005c200 f i LeafLod.obj
 0001:0005b3b0       ??$_Construct_n@ABQAPAVCBillboardLeaf@@ABQAPAV1@@?$vector@PAVCBillboardLeaf@@V?$allocator@PAVCBillboardLeaf@@@std@@@std@@AAEXIABQAPAVCBillboardLeaf@@0@Z 1005c3b0 f i LeafLod.obj
 0001:0005b580       ??$_Copy_memmove@PAIPAI@std@@YAPAIPAI00@Z 1005c580 f i LeafLod.obj
 0001:0005b640       ??$_Copy_memmove@PAUSLodEntry@CLeafLodEngine@@PAU12@@std@@YAPAUSLodEntry@CLeafLodEngine@@PAU12@00@Z 1005c640 f i LeafLod.obj
 0001:0005b700       ??$_Destroy_range@V?$allocator@I@std@@@std@@YAXPAIQAIAAV?$allocator@I@0@@Z 1005c700 f i LeafLod.obj
 0001:0005b720       ??$_Destroy_range@V?$allocator@USLodEntry@CLeafLodEngine@@@std@@@std@@YAXPAUSLodEntry@CLeafLodEngine@@QAU12@AAV?$allocator@USLodEntry@CLeafLodEngine@@@0@@Z 1005c720 f i LeafLod.obj
 0001:0005b740       ??$_Emplace_back@AAPAVCBillboardLeaf@@@?$_Uninitialized_backout_al@V?$allocator@PAVCBillboardLeaf@@@std@@@std@@QAEXAAPAVCBillboardLeaf@@@Z 1005c740 f i LeafLod.obj
 0001:0005b7d0       ??$_Emplace_back@ABI@?$_Uninitialized_backout_al@V?$allocator@I@std@@@std@@QAEXABI@Z 1005c7d0 f i LeafLod.obj
 0001:0005b860       ??$_Emplace_back@USLodEntry@CLeafLodEngine@@@?$_Uninitialized_backout_al@V?$allocator@USLodEntry@CLeafLodEngine@@@std@@@std@@QAEX$$QAUSLodEntry@CLeafLodEngine@@@Z 1005c860 f i LeafLod.obj
 0001:0005b8f0       ??$_Emplace_back_with_unused_capacity@ABUSLodEntry@CLeafLodEngine@@@?$vector@USLodEntry@CLeafLodEngine@@V?$allocator@USLodEntry@CLeafLodEngine@@@std@@@std@@AAEAAUSLodEntry@CLeafLodEngine@@ABU23@@Z 1005c8f0 f i LeafLod.obj
 0001:0005b9a0       ??$_Emplace_one_at_back@ABUSLodEntry@CLeafLodEngine@@@?$vector@USLodEntry@CLeafLodEngine@@V?$allocator@USLodEntry@CLeafLodEngine@@@std@@@std@@AAEAAUSLodEntry@CLeafLodEngine@@ABU23@@Z 1005c9a0 f i LeafLod.obj
 0001:0005ba50       ??$_Emplace_reallocate@ABUSLodEntry@CLeafLodEngine@@@?$vector@USLodEntry@CLeafLodEngine@@V?$allocator@USLodEntry@CLeafLodEngine@@@std@@@std@@AAEPAUSLodEntry@CLeafLodEngine@@QAU23@ABU23@@Z 1005ca50 f i LeafLod.obj
 0001:0005bd70       ??$_Fill_vbool@V?$_Vb_iterator@U?$_Wrap_alloc@V?$allocator@I@std@@@std@@@std@@@std@@YAXV?$_Vb_iterator@U?$_Wrap_alloc@V?$allocator@I@std@@@std@@@0@V10@_N@Z 1005cd70 f i LeafLod.obj
 0001:0005bfc0       ??$_Fill_zero_memset@PAI@std@@YAXPAII@Z 1005cfc0 f i LeafLod.obj
 0001:0005c020       ??$_Get_unwrapped@ABQAUSLodEntry@CLeafLodEngine@@@std@@YA?A_TABQAUSLodEntry@CLeafLodEngine@@@Z 1005d020 f i LeafLod.obj
 0001:0005c040       ??$_Get_unwrapped@PAPAVCBillboardLeaf@@@std@@YA?A_T$$QAPAPAVCBillboardLeaf@@@Z 1005d040 f i LeafLod.obj
 0001:0005c060       ??$_Is_all_bits_zero@I@std@@YA_NABI@Z 1005d060 f i LeafLod.obj
 0001:0005c120       ??$_Move_unchecked@PAIPAI@std@@YAPAIPAI00@Z 1005d120 f i LeafLod.obj
 0001:0005c1c0       ??$_Pocma@V?$allocator@PAVCBillboardLeaf@@@std@@@std@@YAXAAV?$allocator@PAVCBillboardLeaf@@@0@0@Z 1005d1c0 f i LeafLod.obj
 0001:0005c210       ??$_To_address@PAI@std@@YA?A_PABQAI@Z 1005d210 f i LeafLod.obj
 0001:0005c230       ??$_To_address@PAUSLodEntry@CLeafLodEngine@@@std@@YA?A_PABQAUSLodEntry@CLeafLodEngine@@@Z 1005d230 f i LeafLod.obj
 0001:0005c250       ??$_Unfancy@I@std@@YAPAIPAI@Z 1005d250 f i LeafLod.obj
 0001:0005c270       ??$_Unfancy@USLodEntry@CLeafLodEngine@@@std@@YAPAUSLodEntry@CLeafLodEngine@@PAU12@@Z 1005d270 f i LeafLod.obj
 0001:0005c290       ??$_Unfancy_maybe_null@I@std@@YAPAIPAI@Z 1005d290 f i LeafLod.obj
 0001:0005c2b0       ??$_Uninitialized_copy@PAPAVCBillboardLeaf@@PAPAV1@V?$allocator@PAVCBillboardLeaf@@@std@@@std@@YAPAPAVCBillboardLeaf@@PAPAV1@00AAV?$allocator@PAVCBillboardLeaf@@@0@@Z 1005d2b0 f i LeafLod.obj
 0001:0005c4a0       ??$_Uninitialized_fill_n@V?$allocator@I@std@@@std@@YAPAIPAIIABIAAV?$allocator@I@0@@Z 1005d4a0 f i LeafLod.obj
 0001:0005c600       ??$_Uninitialized_move@PAUSLodEntry@CLeafLodEngine@@V?$allocator@USLodEntry@CLeafLodEngine@@@std@@@std@@YAPAUSLodEntry@CLeafLodEngine@@QAU12@0PAU12@AAV?$allocator@USLodEntry@CLeafLodEngine@@@0@@Z 1005d600 f i LeafLod.obj
 0001:0005c790       ??$addressof@USLodEntry@CLeafLodEngine@@@std@@YAPAUSLodEntry@CLeafLodEngine@@AAU12@@Z 1005d790 f i LeafLod.obj
 0001:0005c7b0       ??$addressof@V?$_Vector_val@U?$_Simple_types@I@std@@@std@@@std@@YAPAV?$_Vector_val@U?$_Simple_types@I@std@@@0@AAV10@@Z 1005d7b0 f i LeafLod.obj
 0001:0005c7d0       ??$addressof@V?$_Vector_val@U?$_Simple_types@PAVCBillboardLeaf@@@std@@@std@@@std@@YAPAV?$_Vector_val@U?$_Simple_types@PAVCBillboardLeaf@@@std@@@0@AAV10@@Z 1005d7d0 f i LeafLod.obj
 0001:0005c7f0       ??$addressof@V?$_Vector_val@U?$_Simple_types@USLodEntry@CLeafLodEngine@@@std@@@std@@@std@@YAPAV?$_Vector_val@U?$_Simple_types@USLodEntry@CLeafLodEngine@@@std@@@0@AAV10@@Z 1005d7f0 f i LeafLod.obj
 0001:0005c810       ??$addressof@V?$vector@PAVCBillboardLeaf@@V?$allocator@PAVCBillboardLeaf@@@std@@@std@@@std@@YAPAV?$vector@PAVCBillboardLeaf@@V?$allocator@PAVCBillboardLeaf@@@std@@@0@AAV10@@Z 1005d810 f i LeafLod.obj
 0001:0005c830       ??$construct@IABI@?$_Default_allocator_traits@V?$allocator@I@std@@@std@@SAXAAV?$allocator@I@1@QAIABI@Z 1005d830 f i LeafLod.obj
 0001:0005c8a0       ??$construct@PAVCBillboardLeaf@@AAPAV1@@?$_Default_allocator_traits@V?$allocator@PAVCBillboardLeaf@@@std@@@std@@SAXAAV?$allocator@PAVCBillboardLeaf@@@1@QAPAVCBillboardLeaf@@AAPAV3@@Z 1005d8a0 f i LeafLod.obj
 0001:0005c910       ??$construct@USLodEntry@CLeafLodEngine@@ABU12@@?$_Default_allocator_traits@V?$allocator@USLodEntry@CLeafLodEngine@@@std@@@std@@SAXAAV?$allocator@USLodEntry@CLeafLodEngine@@@1@QAUSLodEntry@CLeafLodEngine@@ABU34@@Z 1005d910 f i LeafLod.obj
 0001:0005c990       ??$construct@USLodEntry@CLeafLodEngine@@U12@@?$_Default_allocator_traits@V?$allocator@USLodEntry@CLeafLodEngine@@@std@@@std@@SAXAAV?$allocator@USLodEntry@CLeafLodEngine@@@1@QAUSLodEntry@CLeafLodEngine@@$$QAU34@@Z 1005d990 f i LeafLod.obj
 0001:0005ca10       ??$exchange@PAPAVCBillboardLeaf@@$$T@std@@YAPAPAVCBillboardLeaf@@AAPAPAV1@$$QA$$T@Z 1005da10 f i LeafLod.obj
 0001:0005ca50       ??$fill@V?$_Vb_iterator@U?$_Wrap_alloc@V?$allocator@I@std@@@std@@@std@@_N@std@@YAXV?$_Vb_iterator@U?$_Wrap_alloc@V?$allocator@I@std@@@std@@@0@0AB_N@Z 1005da50 f i LeafLod.obj
 0001:0005cb50       ??$forward@AAPAVCBillboardLeaf@@@std@@YAAAPAVCBillboardLeaf@@AAPAV1@@Z 1005db50 f i LeafLod.obj
 0001:0005cb70       ??$forward@ABI@std@@YAABIABI@Z 1005db70 f i LeafLod.obj
 0001:0005cb90       ??$forward@ABQAPAVCBillboardLeaf@@@std@@YAABQAPAVCBillboardLeaf@@ABQAPAV1@@Z 1005db90 f i LeafLod.obj
 0001:0005cbb0       ??$forward@ABUSLodEntry@CLeafLodEngine@@@std@@YAABUSLodEntry@CLeafLodEngine@@ABU12@@Z 1005dbb0 f i LeafLod.obj
 0001:0005cbd0       ??$forward@ABV?$allocator@I@std@@@std@@YAABV?$allocator@I@0@ABV10@@Z 1005dbd0 f i LeafLod.obj
 0001:0005cbf0       ??$forward@PAPAVCBillboardLeaf@@@std@@YA$$QAPAPAVCBillboardLeaf@@AAPAPAV1@@Z 1005dbf0 f i LeafLod.obj
 0001:0005cc10       ??$forward@USLodEntry@CLeafLodEngine@@@std@@YA$$QAUSLodEntry@CLeafLodEngine@@AAU12@@Z 1005dc10 f i LeafLod.obj
 0001:0005cc30       ??$forward@V?$allocator@PAVCBillboardLeaf@@@std@@@std@@YA$$QAV?$allocator@PAVCBillboardLeaf@@@0@AAV10@@Z 1005dc30 f i LeafLod.obj
 0001:0005cc50       ??$move@AAI@std@@YA$$QAIAAI@Z 1005dc50 f i LeafLod.obj
 0001:0005cc70       ??$move@AAPAPAVCBillboardLeaf@@@std@@YA$$QAPAPAVCBillboardLeaf@@AAPAPAV1@@Z 1005dc70 f i LeafLod.obj
 0001:0005cc90       ??$move@AAUSLodEntry@CLeafLodEngine@@@std@@YA$$QAUSLodEntry@CLeafLodEngine@@AAU12@@Z 1005dc90 f i LeafLod.obj
 0001:0005ccb0       ??$move@AAV?$allocator@PAVCBillboardLeaf@@@std@@@std@@YA$$QAV?$allocator@PAVCBillboardLeaf@@@0@AAV10@@Z 1005dcb0 f i LeafLod.obj
 0001:0005ccd0       ??0?$_Uninitialized_backout_al@V?$allocator@I@std@@@std@@QAE@PAIAAV?$allocator@I@1@@Z 1005dcd0 f i LeafLod.obj
 0001:0005cd20       ??0?$_Uninitialized_backout_al@V?$allocator@USLodEntry@CLeafLodEngine@@@std@@@std@@QAE@PAUSLodEntry@CLeafLodEngine@@AAV?$allocator@USLodEntry@CLeafLodEngine@@@1@@Z 1005dd20 f i LeafLod.obj
 0001:0005cd70       ??0?$_Vb_const_iterator@U?$_Wrap_alloc@V?$allocator@I@std@@@std@@@std@@QAE@$$QAV01@@Z 1005dd70 f i LeafLod.obj
 0001:0005cdd0       ??0?$_Vb_const_iterator@U?$_Wrap_alloc@V?$allocator@I@std@@@std@@@std@@QAE@ABV01@@Z 1005ddd0 f i LeafLod.obj
 0001:0005ce30       ??0?$_Vb_const_iterator@U?$_Wrap_alloc@V?$allocator@I@std@@@std@@@std@@QAE@PBIPBU_Container_base12@1@@Z 1005de30 f i LeafLod.obj
 0001:0005ce90       ??0?$_Vb_iter_base@U?$_Wrap_alloc@V?$allocator@I@std@@@std@@@std@@QAE@$$QAV01@@Z 1005de90 f i LeafLod.obj
 0001:0005cf10       ??0?$_Vb_iter_base@U?$_Wrap_alloc@V?$allocator@I@std@@@std@@@std@@QAE@ABV01@@Z 1005df10 f i LeafLod.obj
 0001:0005cf90       ??0?$_Vb_iter_base@U?$_Wrap_alloc@V?$allocator@I@std@@@std@@@std@@QAE@PBIIPBU_Container_base12@1@@Z 1005df90 f i LeafLod.obj
 0001:0005d010       ??0?$_Vb_iterator@U?$_Wrap_alloc@V?$allocator@I@std@@@std@@@std@@QAE@$$QAV01@@Z 1005e010 f i LeafLod.obj
 0001:0005d070       ??0?$_Vb_iterator@U?$_Wrap_alloc@V?$allocator@I@std@@@std@@@std@@QAE@ABV01@@Z 1005e070 f i LeafLod.obj
 0001:0005d0d0       ??0?$_Vb_iterator@U?$_Wrap_alloc@V?$allocator@I@std@@@std@@@std@@QAE@PBIPBU_Container_base12@1@@Z 1005e0d0 f i LeafLod.obj
 0001:0005d130       ??0?$_Vb_reference@U?$_Wrap_alloc@V?$allocator@I@std@@@std@@@std@@QAE@ABV?$_Vb_iter_base@U?$_Wrap_alloc@V?$allocator@I@std@@@std@@@1@@Z 1005e130 f i LeafLod.obj
 0001:0005d1a0       ??0?$_Vb_val@V?$allocator@_N@std@@@std@@QAE@IAB_NABV?$allocator@_N@1@@Z 1005e1a0 f i LeafLod.obj
 0001:0005d2e0       ??0?$_Vector_const_iterator@V?$_Vector_val@U?$_Simple_types@I@std@@@std@@@std@@QAE@$$QAV01@@Z 1005e2e0 f i LeafLod.obj
 0001:0005d350       ??0?$_Vector_const_iterator@V?$_Vector_val@U?$_Simple_types@I@std@@@std@@@std@@QAE@ABV01@@Z 1005e350 f i LeafLod.obj
 0001:0005d3c0       ??0?$_Vector_const_iterator@V?$_Vector_val@U?$_Simple_types@I@std@@@std@@@std@@QAE@PAIPBU_Container_base12@1@@Z 1005e3c0 f i LeafLod.obj
 0001:0005d430       ??0?$_Vector_const_iterator@V?$_Vector_val@U?$_Simple_types@PAVCBillboardLeaf@@@std@@@std@@@std@@QAE@$$QAV01@@Z 1005e430 f i LeafLod.obj
 0001:0005d4a0       ??0?$_Vector_const_iterator@V?$_Vector_val@U?$_Simple_types@PAVCBillboardLeaf@@@std@@@std@@@std@@QAE@ABV01@@Z 1005e4a0 f i LeafLod.obj
 0001:0005d510       ??0?$_Vector_const_iterator@V?$_Vector_val@U?$_Simple_types@PAVCBillboardLeaf@@@std@@@std@@@std@@QAE@PAPAVCBillboardLeaf@@PBU_Container_base12@1@@Z 1005e510 f i LeafLod.obj
 0001:0005d580       ??0?$_Vector_const_iterator@V?$_Vector_val@U?$_Simple_types@USLodEntry@CLeafLodEngine@@@std@@@std@@@std@@QAE@PAUSLodEntry@CLeafLodEngine@@PBU_Container_base12@1@@Z 1005e580 f i LeafLod.obj
 0001:0005d5f0       ??0?$_Vector_iterator@V?$_Vector_val@U?$_Simple_types@I@std@@@std@@@std@@QAE@$$QAV01@@Z 1005e5f0 f i LeafLod.obj
 0001:0005d650       ??0?$_Vector_iterator@V?$_Vector_val@U?$_Simple_types@I@std@@@std@@@std@@QAE@ABV01@@Z 1005e650 f i LeafLod.obj
 0001:0005d6b0       ??0?$_Vector_iterator@V?$_Vector_val@U?$_Simple_types@I@std@@@std@@@std@@QAE@PAIPBU_Container_base12@1@@Z 1005e6b0 f i LeafLod.obj
 0001:0005d710       ??0?$_Vector_iterator@V?$_Vector_val@U?$_Simple_types@PAVCBillboardLeaf@@@std@@@std@@@std@@QAE@$$QAV01@@Z 1005e710 f i LeafLod.obj
 0001:0005d770       ??0?$_Vector_iterator@V?$_Vector_val@U?$_Simple_types@PAVCBillboardLeaf@@@std@@@std@@@std@@QAE@ABV01@@Z 1005e770 f i LeafLod.obj
 0001:0005d7d0       ??0?$_Vector_iterator@V?$_Vector_val@U?$_Simple_types@PAVCBillboardLeaf@@@std@@@std@@@std@@QAE@PAPAVCBillboardLeaf@@PBU_Container_base12@1@@Z 1005e7d0 f i LeafLod.obj
 0001:0005d830       ??0?$_Vector_iterator@V?$_Vector_val@U?$_Simple_types@USLodEntry@CLeafLodEngine@@@std@@@std@@@std@@QAE@PAUSLodEntry@CLeafLodEngine@@PBU_Container_base12@1@@Z 1005e830 f i LeafLod.obj
 0001:0005d890       ??0?$_Vector_val@U?$_Simple_types@I@std@@@std@@QAE@XZ 1005e890 f i LeafLod.obj
 0001:0005d910       ??0?$_Vector_val@U?$_Simple_types@PAVCBillboardLeaf@@@std@@@std@@QAE@PAPAVCBillboardLeaf@@00@Z 1005e910 f i LeafLod.obj
 0001:0005d990       ??0?$_Vector_val@U?$_Simple_types@USLodEntry@CLeafLodEngine@@@std@@@std@@QAE@XZ 1005e990 f i LeafLod.obj
 0001:0005da10       ??0?$allocator@USLodEntry@CLeafLodEngine@@@std@@QAE@XZ 1005ea10 f i LeafLod.obj
 0001:0005da30       ??0?$allocator@_N@std@@QAE@XZ 1005ea30 f i LeafLod.obj
 0001:0005da50       ??0?$vector@IV?$allocator@I@std@@@std@@QAE@IABIABV?$allocator@I@1@@Z 1005ea50 f i LeafLod.obj
 0001:0005dad0       ??0?$vector@PAVCBillboardLeaf@@V?$allocator@PAVCBillboardLeaf@@@std@@@std@@QAE@$$QAV01@@Z 1005ead0 f i LeafLod.obj
 0001:0005dc60       ??0?$vector@PAVCBillboardLeaf@@V?$allocator@PAVCBillboardLeaf@@@std@@@std@@QAE@ABV01@@Z 1005ec60 f i LeafLod.obj
 0001:0005dd20       ??0?$vector@USLodEntry@CLeafLodEngine@@V?$allocator@USLodEntry@CLeafLodEngine@@@std@@@std@@QAE@XZ 1005ed20 f i LeafLod.obj
 0001:0005dde0       ??0?$vector@_NV?$allocator@_N@std@@@std@@QAE@IABV?$allocator@_N@1@@Z 1005ede0 f i LeafLod.obj
 0001:0005deb0       ??0CLeafLodEngine@@QAE@ABUSIdvLeafInfo@@MMM@Z 1005eeb0 f   LeafLod.obj
 0001:0005df40       ??0SLodEntry@CLeafLodEngine@@QAE@PBVCBillboardLeaf@@@Z 1005ef40 f i LeafLod.obj
 0001:0005df80       ??1?$_Tidy_guard@V?$vector@IV?$allocator@I@std@@@std@@@std@@QAE@XZ 1005ef80 f i LeafLod.obj
 0001:0005dfe0       ??1?$_Tidy_guard@V?$vector@PAVCBillboardLeaf@@V?$allocator@PAVCBillboardLeaf@@@std@@@std@@@std@@QAE@XZ 1005efe0 f i LeafLod.obj
 0001:0005e040       ??1?$_Uninitialized_backout_al@V?$allocator@I@std@@@std@@QAE@XZ 1005f040 f i LeafLod.obj
 0001:0005e0b0       ??1?$_Uninitialized_backout_al@V?$allocator@USLodEntry@CLeafLodEngine@@@std@@@std@@QAE@XZ 1005f0b0 f i LeafLod.obj
 0001:0005e120       ??1?$_Vb_const_iterator@U?$_Wrap_alloc@V?$allocator@I@std@@@std@@@std@@QAE@XZ 1005f120 f i LeafLod.obj
 0001:0005e170       ??1?$_Vb_iter_base@U?$_Wrap_alloc@V?$allocator@I@std@@@std@@@std@@QAE@XZ 1005f170 f i LeafLod.obj
 0001:0005e1c0       ??1?$_Vb_iterator@U?$_Wrap_alloc@V?$allocator@I@std@@@std@@@std@@QAE@XZ 1005f1c0 f i LeafLod.obj
 0001:0005e210       ??1?$_Vb_reference@U?$_Wrap_alloc@V?$allocator@I@std@@@std@@@std@@QAE@XZ 1005f210 f i LeafLod.obj
 0001:0005e260       ??1?$_Vb_val@V?$allocator@_N@std@@@std@@QAE@XZ 1005f260 f i LeafLod.obj
 0001:0005e350       ??1?$_Vector_const_iterator@V?$_Vector_val@U?$_Simple_types@I@std@@@std@@@std@@QAE@XZ 1005f350 f i LeafLod.obj
 0001:0005e3a0       ??1?$_Vector_const_iterator@V?$_Vector_val@U?$_Simple_types@PAVCBillboardLeaf@@@std@@@std@@@std@@QAE@XZ 1005f3a0 f i LeafLod.obj
 0001:0005e3f0       ??1?$_Vector_const_iterator@V?$_Vector_val@U?$_Simple_types@USLodEntry@CLeafLodEngine@@@std@@@std@@@std@@QAE@XZ 1005f3f0 f i LeafLod.obj
 0001:0005e440       ??1?$_Vector_iterator@V?$_Vector_val@U?$_Simple_types@I@std@@@std@@@std@@QAE@XZ 1005f440 f i LeafLod.obj
 0001:0005e490       ??1?$_Vector_iterator@V?$_Vector_val@U?$_Simple_types@PAVCBillboardLeaf@@@std@@@std@@@std@@QAE@XZ 1005f490 f i LeafLod.obj
 0001:0005e4e0       ??1?$_Vector_iterator@V?$_Vector_val@U?$_Simple_types@USLodEntry@CLeafLodEngine@@@std@@@std@@@std@@QAE@XZ 1005f4e0 f i LeafLod.obj
 0001:0005e530       ??1?$vector@IV?$allocator@I@std@@@std@@QAE@XZ 1005f530 f i LeafLod.obj
 0001:0005e610       ??1?$vector@_NV?$allocator@_N@std@@@std@@QAE@XZ 1005f610 f i LeafLod.obj
 0001:0005e660       ??4?$_Vb_reference@U?$_Wrap_alloc@V?$allocator@I@std@@@std@@@std@@QAEAAV01@_N@Z 1005f660 f i LeafLod.obj
 0001:0005e720       ??4?$vector@PAVCBillboardLeaf@@V?$allocator@PAVCBillboardLeaf@@@std@@@std@@QAEAAV01@$$QAV01@@Z 1005f720 f i LeafLod.obj
 0001:0005e7e0       ??8?$_Vb_const_iterator@U?$_Wrap_alloc@V?$allocator@I@std@@@std@@@std@@QBE_NABV01@@Z 1005f7e0 f i LeafLod.obj
 0001:0005e880       ??8?$_Vector_const_iterator@V?$_Vector_val@U?$_Simple_types@PAVCBillboardLeaf@@@std@@@std@@@std@@QBE_NABV01@@Z 1005f880 f i LeafLod.obj
 0001:0005e910       ??8?$_Vector_const_iterator@V?$_Vector_val@U?$_Simple_types@USLodEntry@CLeafLodEngine@@@std@@@std@@@std@@QBE_NABV01@@Z 1005f910 f i LeafLod.obj
 0001:0005e9a0       ??9?$_Vector_const_iterator@V?$_Vector_val@U?$_Simple_types@PAVCBillboardLeaf@@@std@@@std@@@std@@QBE_NABV01@@Z 1005f9a0 f i LeafLod.obj
 0001:0005ea20       ??9?$_Vector_const_iterator@V?$_Vector_val@U?$_Simple_types@USLodEntry@CLeafLodEngine@@@std@@@std@@@std@@QBE_NABV01@@Z 1005fa20 f i LeafLod.obj
 0001:0005eaa0       ??A?$vector@IV?$allocator@I@std@@@std@@QAEAAII@Z 1005faa0 f i LeafLod.obj
 0001:0005eb90       ??A?$vector@_NV?$allocator@_N@std@@@std@@QAE?AV?$_Vb_reference@U?$_Wrap_alloc@V?$allocator@I@std@@@std@@@1@I@Z 1005fb90 f i LeafLod.obj
 0001:0005ecd0       ??B?$_Vb_reference@U?$_Wrap_alloc@V?$allocator@I@std@@@std@@@std@@QBE_NXZ 1005fcd0 f i LeafLod.obj
 0001:0005ed50       ??C?$_Vector_iterator@V?$_Vector_val@U?$_Simple_types@USLodEntry@CLeafLodEngine@@@std@@@std@@@std@@QBEPAUSLodEntry@CLeafLodEngine@@XZ 1005fd50 f i LeafLod.obj
 0001:0005ef50       ??D?$_Vb_iterator@U?$_Wrap_alloc@V?$allocator@I@std@@@std@@@std@@QBE?AV?$_Vb_reference@U?$_Wrap_alloc@V?$allocator@I@std@@@std@@@1@XZ 1005ff50 f i LeafLod.obj
 0001:0005f0d0       ??D?$_Vector_const_iterator@V?$_Vector_val@U?$_Simple_types@PAVCBillboardLeaf@@@std@@@std@@@std@@QBEABQAVCBillboardLeaf@@XZ 100600d0 f i LeafLod.obj
 0001:0005f2c0       ??D?$_Vector_iterator@V?$_Vector_val@U?$_Simple_types@PAVCBillboardLeaf@@@std@@@std@@@std@@QBEAAPAVCBillboardLeaf@@XZ 100602c0 f i LeafLod.obj
 0001:0005f310       ??E?$_Vector_const_iterator@V?$_Vector_val@U?$_Simple_types@PAVCBillboardLeaf@@@std@@@std@@@std@@QAEAAV01@XZ 10060310 f i LeafLod.obj
 0001:0005f500       ??E?$_Vector_const_iterator@V?$_Vector_val@U?$_Simple_types@USLodEntry@CLeafLodEngine@@@std@@@std@@@std@@QAEAAV01@XZ 10060500 f i LeafLod.obj
 0001:0005f6f0       ??E?$_Vector_iterator@V?$_Vector_val@U?$_Simple_types@PAVCBillboardLeaf@@@std@@@std@@@std@@QAEAAV01@XZ 100606f0 f i LeafLod.obj
 0001:0005f740       ??E?$_Vector_iterator@V?$_Vector_val@U?$_Simple_types@USLodEntry@CLeafLodEngine@@@std@@@std@@@std@@QAEAAV01@XZ 10060740 f i LeafLod.obj
 0001:0005f790       ??G?$_Vector_const_iterator@V?$_Vector_val@U?$_Simple_types@PAVCBillboardLeaf@@@std@@@std@@@std@@QBEHABV01@@Z 10060790 f i LeafLod.obj
 0001:0005f800       ??H?$_Vb_iterator@U?$_Wrap_alloc@V?$allocator@I@std@@@std@@@std@@QBE?AV01@H@Z 10060800 f i LeafLod.obj
 0001:0005f8c0       ??H?$_Vector_iterator@V?$_Vector_val@U?$_Simple_types@I@std@@@std@@@std@@QBE?AV01@H@Z 100608c0 f i LeafLod.obj
 0001:0005f980       ??H?$_Vector_iterator@V?$_Vector_val@U?$_Simple_types@PAVCBillboardLeaf@@@std@@@std@@@std@@QBE?AV01@H@Z 10060980 f i LeafLod.obj
 0001:0005fa40       ??M?$_Vb_const_iterator@U?$_Wrap_alloc@V?$allocator@I@std@@@std@@@std@@QBE_NABV01@@Z 10060a40 f i LeafLod.obj
 0001:0005faf0       ??N?$_Vb_const_iterator@U?$_Wrap_alloc@V?$allocator@I@std@@@std@@@std@@QBE_NABV01@@Z 10060af0 f i LeafLod.obj
 0001:0005fb70       ??Y?$_Vb_const_iterator@U?$_Wrap_alloc@V?$allocator@I@std@@@std@@@std@@QAEAAV01@H@Z 10060b70 f i LeafLod.obj
 0001:0005fe50       ??Y?$_Vb_iterator@U?$_Wrap_alloc@V?$allocator@I@std@@@std@@@std@@QAEAAV01@H@Z 10060e50 f i LeafLod.obj
 0001:0005feb0       ??Y?$_Vector_const_iterator@V?$_Vector_val@U?$_Simple_types@I@std@@@std@@@std@@QAEAAV01@H@Z 10060eb0 f i LeafLod.obj
 0001:0005ff20       ??Y?$_Vector_const_iterator@V?$_Vector_val@U?$_Simple_types@PAVCBillboardLeaf@@@std@@@std@@@std@@QAEAAV01@H@Z 10060f20 f i LeafLod.obj
 0001:0005ff90       ??Y?$_Vector_iterator@V?$_Vector_val@U?$_Simple_types@I@std@@@std@@@std@@QAEAAV01@H@Z 10060f90 f i LeafLod.obj
 0001:0005fff0       ??Y?$_Vector_iterator@V?$_Vector_val@U?$_Simple_types@PAVCBillboardLeaf@@@std@@@std@@@std@@QAEAAV01@H@Z 10060ff0 f i LeafLod.obj
 0001:00060050       ?BuildNewLeaves@CLeafLodEngine@@AAE?AV?$vector@PAVCBillboardLeaf@@V?$allocator@PAVCBillboardLeaf@@@std@@@std@@XZ 10061050 f   LeafLod.obj
 0001:00060500       ?ComputeNextLevel@CLeafLodEngine@@QAE?AV?$vector@PAVCBillboardLeaf@@V?$allocator@PAVCBillboardLeaf@@@std@@@std@@V23@@Z 10061500 f   LeafLod.obj
 0001:00060690       ?FindPairs@CLeafLodEngine@@AAEXV?$vector@PAVCBillboardLeaf@@V?$allocator@PAVCBillboardLeaf@@@std@@@std@@@Z 10061690 f   LeafLod.obj
 0001:00060c00       ?GetTextureIndex@CBillboardLeaf@@QBEHXZ 10061c00 f i LeafLod.obj
 0001:00060c30       ?_Advance@?$_Vb_iter_base@U?$_Wrap_alloc@V?$allocator@I@std@@@std@@@std@@QAEXI@Z 10061c30 f i LeafLod.obj
 0001:00060ca0       ?_Buy_nonzero@?$vector@IV?$allocator@I@std@@@std@@AAEXI@Z 10061ca0 f i LeafLod.obj
 0001:00060d10       ?_Buy_nonzero@?$vector@PAVCBillboardLeaf@@V?$allocator@PAVCBillboardLeaf@@@std@@@std@@AAEXI@Z 10061d10 f i LeafLod.obj
 0001:00060d80       ?_Buy_raw@?$vector@IV?$allocator@I@std@@@std@@AAEXI@Z 10061d80 f i LeafLod.obj
 0001:00060e30       ?_Buy_raw@?$vector@PAVCBillboardLeaf@@V?$allocator@PAVCBillboardLeaf@@@std@@@std@@AAEXI@Z 10061e30 f i LeafLod.obj
 0001:00060ee0       ?_Calculate_growth@?$vector@USLodEntry@CLeafLodEngine@@V?$allocator@USLodEntry@CLeafLodEngine@@@std@@@std@@ABEII@Z 10061ee0 f i LeafLod.obj
 0001:00060f80       ?_Change_array@?$vector@USLodEntry@CLeafLodEngine@@V?$allocator@USLodEntry@CLeafLodEngine@@@std@@@std@@AAEXQAUSLodEntry@CLeafLodEngine@@II@Z 10061f80 f i LeafLod.obj
 0001:00061080       ?_Compat@?$_Vb_const_iterator@U?$_Wrap_alloc@V?$allocator@I@std@@@std@@@std@@QBEXABV12@@Z 10062080 f i LeafLod.obj
 0001:00061160       ?_Compat@?$_Vector_const_iterator@V?$_Vector_val@U?$_Simple_types@PAVCBillboardLeaf@@@std@@@std@@@std@@QBEXABV12@@Z 10062160 f i LeafLod.obj
 0001:00061240       ?_Compat@?$_Vector_const_iterator@V?$_Vector_val@U?$_Simple_types@USLodEntry@CLeafLodEngine@@@std@@@std@@@std@@QBEXABV12@@Z 10062240 f i LeafLod.obj
 0001:00061320       ?_Get_first@?$_Compressed_pair@V?$allocator@I@std@@V?$_Vector_val@U?$_Simple_types@I@std@@@2@$00@std@@QAEAAV?$allocator@I@2@XZ 10062320 f i LeafLod.obj
 0001:00061340       ?_Get_first@?$_Compressed_pair@V?$allocator@I@std@@V?$_Vector_val@U?$_Simple_types@I@std@@@2@$00@std@@QBEABV?$allocator@I@2@XZ 10062340 f i LeafLod.obj
 0001:00061360       ?_Get_first@?$_Compressed_pair@V?$allocator@USLodEntry@CLeafLodEngine@@@std@@V?$_Vector_val@U?$_Simple_types@USLodEntry@CLeafLodEngine@@@std@@@2@$00@std@@QAEAAV?$allocator@USLodEntry@CLeafLodEngine@@@2@XZ 10062360 f i LeafLod.obj
 0001:00061380       ?_Get_first@?$_Compressed_pair@V?$allocator@USLodEntry@CLeafLodEngine@@@std@@V?$_Vector_val@U?$_Simple_types@USLodEntry@CLeafLodEngine@@@std@@@2@$00@std@@QBEABV?$allocator@USLodEntry@CLeafLodEngine@@@2@XZ 10062380 f i LeafLod.obj
 0001:000613a0       ?_Getal@?$_Vb_val@V?$allocator@_N@std@@@std@@QAEAAV?$allocator@I@2@XZ 100623a0 f i LeafLod.obj
 0001:000613f0       ?_Getal@?$vector@IV?$allocator@I@std@@@std@@AAEAAV?$allocator@I@2@XZ 100623f0 f i LeafLod.obj
 0001:00061440       ?_Getal@?$vector@IV?$allocator@I@std@@@std@@ABEABV?$allocator@I@2@XZ 10062440 f i LeafLod.obj
 0001:00061490       ?_Getal@?$vector@USLodEntry@CLeafLodEngine@@V?$allocator@USLodEntry@CLeafLodEngine@@@std@@@std@@AAEAAV?$allocator@USLodEntry@CLeafLodEngine@@@2@XZ 10062490 f i LeafLod.obj
 0001:000614e0       ?_Getal@?$vector@USLodEntry@CLeafLodEngine@@V?$allocator@USLodEntry@CLeafLodEngine@@@std@@@std@@ABEABV?$allocator@USLodEntry@CLeafLodEngine@@@2@XZ 100624e0 f i LeafLod.obj
 0001:00061530       ?_Getptr@?$_Vb_reference@U?$_Wrap_alloc@V?$allocator@I@std@@@std@@@std@@QBEPBIXZ 10062530 f i LeafLod.obj
 0001:000616a0       ?_Mask@?$_Vb_reference@U?$_Wrap_alloc@V?$allocator@I@std@@@std@@@std@@IBEIXZ 100626a0 f i LeafLod.obj
 0001:000616d0       ?_Nw@?$_Vb_val@V?$allocator@_N@std@@@std@@SAII@Z 100626d0 f i LeafLod.obj
 0001:00061700       ?_Orphan_range@?$vector@IV?$allocator@I@std@@@std@@ABEXPAI0@Z 10062700 f i LeafLod.obj
 0001:00061760       ?_Orphan_range@?$vector@USLodEntry@CLeafLodEngine@@V?$allocator@USLodEntry@CLeafLodEngine@@@std@@@std@@ABEXPAUSLodEntry@CLeafLodEngine@@0@Z 10062760 f i LeafLod.obj
 0001:000617c0       ?_Orphan_range_locked@?$vector@IV?$allocator@I@std@@@std@@ABEXPAI0@Z 100627c0 f i LeafLod.obj
 0001:000618d0       ?_Orphan_range_locked@?$vector@USLodEntry@CLeafLodEngine@@V?$allocator@USLodEntry@CLeafLodEngine@@@std@@@std@@ABEXPAUSLodEntry@CLeafLodEngine@@0@Z 100628d0 f i LeafLod.obj
 0001:000619e0       ?_Orphan_range_unlocked@?$vector@IV?$allocator@I@std@@@std@@ABEXPAI0@Z 100629e0 f i LeafLod.obj
 0001:00061a70       ?_Orphan_range_unlocked@?$vector@USLodEntry@CLeafLodEngine@@V?$allocator@USLodEntry@CLeafLodEngine@@@std@@@std@@ABEXPAUSLodEntry@CLeafLodEngine@@0@Z 10062a70 f i LeafLod.obj
 0001:00061b00       ?_Release@?$_Uninitialized_backout_al@V?$allocator@I@std@@@std@@QAEPAIXZ 10062b00 f i LeafLod.obj
 0001:00061b30       ?_Release@?$_Uninitialized_backout_al@V?$allocator@USLodEntry@CLeafLodEngine@@@std@@@std@@QAEPAUSLodEntry@CLeafLodEngine@@XZ 10062b30 f i LeafLod.obj
 0001:00061b60       ?_Take_contents@?$_Vector_val@U?$_Simple_types@PAVCBillboardLeaf@@@std@@@std@@QAEXAAV12@@Z 10062b60 f i LeafLod.obj
 0001:00061c10       ?_Tidy@?$vector@IV?$allocator@I@std@@@std@@AAEXXZ 10062c10 f i LeafLod.obj
 0001:00061d40       ?_Total_off@?$_Vb_iter_base@U?$_Wrap_alloc@V?$allocator@I@std@@@std@@@std@@QBEHPBV?$vector@_NV?$allocator@_N@std@@@2@@Z 10062d40 f i LeafLod.obj
 0001:00061db0       ?_Trim@?$vector@_NV?$allocator@_N@std@@@std@@QAEXI@Z 10062db0 f i LeafLod.obj
 0001:00061fa0       ?_Verify_offset@?$_Vector_const_iterator@V?$_Vector_val@U?$_Simple_types@I@std@@@std@@@std@@QBEXH@Z 10062fa0 f i LeafLod.obj
 0001:00062230       ?_Verify_offset@?$_Vector_const_iterator@V?$_Vector_val@U?$_Simple_types@PAVCBillboardLeaf@@@std@@@std@@@std@@QBEXH@Z 10063230 f i LeafLod.obj
 0001:000624c0       ?_Verify_range@std@@YAXABV?$_Vb_const_iterator@U?$_Wrap_alloc@V?$allocator@I@std@@@std@@@1@0@Z 100634c0 f i LeafLod.obj
 0001:00062590       ?_Xlen@?$vector@_NV?$allocator@_N@std@@@std@@SAXXZ 10063590 f i LeafLod.obj
 0001:000625e0       ?_Xlength@?$vector@IV?$allocator@I@std@@@std@@CAXXZ 100635e0 f i LeafLod.obj
 0001:00062630       ?_Xlength@?$vector@USLodEntry@CLeafLodEngine@@V?$allocator@USLodEntry@CLeafLodEngine@@@std@@@std@@CAXXZ 10063630 f i LeafLod.obj
 0001:00062680       ?allocate@?$allocator@I@std@@QAEPAII@Z 10063680 f i LeafLod.obj
 0001:000626e0       ?allocate@?$allocator@USLodEntry@CLeafLodEngine@@@std@@QAEPAUSLodEntry@CLeafLodEngine@@I@Z 100636e0 f i LeafLod.obj
 0001:00062740       ?begin@?$vector@IV?$allocator@I@std@@@std@@QAE?AV?$_Vector_iterator@V?$_Vector_val@U?$_Simple_types@I@std@@@std@@@2@XZ 10063740 f i LeafLod.obj
 0001:000627c0       ?begin@?$vector@PAVCBillboardLeaf@@V?$allocator@PAVCBillboardLeaf@@@std@@@std@@QAE?AV?$_Vector_iterator@V?$_Vector_val@U?$_Simple_types@PAVCBillboardLeaf@@@std@@@std@@@2@XZ 100637c0 f i LeafLod.obj
 0001:00062840       ?begin@?$vector@USLodEntry@CLeafLodEngine@@V?$allocator@USLodEntry@CLeafLodEngine@@@std@@@std@@QAE?AV?$_Vector_iterator@V?$_Vector_val@U?$_Simple_types@USLodEntry@CLeafLodEngine@@@std@@@std@@@2@XZ 10063840 f i LeafLod.obj
 0001:000628c0       ?begin@?$vector@_NV?$allocator@_N@std@@@std@@QAE?AV?$_Vb_iterator@U?$_Wrap_alloc@V?$allocator@I@std@@@std@@@2@XZ 100638c0 f i LeafLod.obj
 0001:00062930       ?capacity@?$vector@USLodEntry@CLeafLodEngine@@V?$allocator@USLodEntry@CLeafLodEngine@@@std@@@std@@QBEIXZ 10063930 f i LeafLod.obj
 0001:00062970       ?data@?$vector@IV?$allocator@I@std@@@std@@QAEPAIXZ 10063970 f i LeafLod.obj
 0001:000629d0       ?data@?$vector@IV?$allocator@I@std@@@std@@QBEPBIXZ 100639d0 f i LeafLod.obj
 0001:00062a30       ?deallocate@?$allocator@I@std@@QAEXQAII@Z 10063a30 f i LeafLod.obj
 0001:00062b20       ?deallocate@?$allocator@USLodEntry@CLeafLodEngine@@@std@@QAEXQAUSLodEntry@CLeafLodEngine@@I@Z 10063b20 f i LeafLod.obj
 0001:00062c10       ?end@?$vector@IV?$allocator@I@std@@@std@@QAE?AV?$_Vector_iterator@V?$_Vector_val@U?$_Simple_types@I@std@@@std@@@2@XZ 10063c10 f i LeafLod.obj
 0001:00062c90       ?end@?$vector@PAVCBillboardLeaf@@V?$allocator@PAVCBillboardLeaf@@@std@@@std@@QAE?AV?$_Vector_iterator@V?$_Vector_val@U?$_Simple_types@PAVCBillboardLeaf@@@std@@@std@@@2@XZ 10063c90 f i LeafLod.obj
 0001:00062d10       ?end@?$vector@USLodEntry@CLeafLodEngine@@V?$allocator@USLodEntry@CLeafLodEngine@@@std@@@std@@QAE?AV?$_Vector_iterator@V?$_Vector_val@U?$_Simple_types@USLodEntry@CLeafLodEngine@@@std@@@std@@@2@XZ 10063d10 f i LeafLod.obj
 0001:00062d90       ?end@?$vector@_NV?$allocator@_N@std@@@std@@QAE?AV?$_Vb_iterator@U?$_Wrap_alloc@V?$allocator@I@std@@@std@@@2@XZ 10063d90 f i LeafLod.obj
 0001:00062e10       ?erase@?$vector@IV?$allocator@I@std@@@std@@QAE?AV?$_Vector_iterator@V?$_Vector_val@U?$_Simple_types@I@std@@@std@@@2@V?$_Vector_const_iterator@V?$_Vector_val@U?$_Simple_types@I@std@@@std@@@2@0@Z 10063e10 f i LeafLod.obj
 0001:00063040       ?max_size@?$_Default_allocator_traits@V?$allocator@I@std@@@std@@SAIABV?$allocator@I@2@@Z 10064040 f i LeafLod.obj
 0001:00063060       ?max_size@?$_Default_allocator_traits@V?$allocator@USLodEntry@CLeafLodEngine@@@std@@@std@@SAIABV?$allocator@USLodEntry@CLeafLodEngine@@@2@@Z 10064060 f i LeafLod.obj
 0001:00063080       ?max_size@?$vector@IV?$allocator@I@std@@@std@@QBEIXZ 10064080 f i LeafLod.obj
 0001:00063110       ?max_size@?$vector@USLodEntry@CLeafLodEngine@@V?$allocator@USLodEntry@CLeafLodEngine@@@std@@@std@@QBEIXZ 10064110 f i LeafLod.obj
 0001:000631a0       ?max_size@?$vector@_NV?$allocator@_N@std@@@std@@QBEIXZ 100641a0 f i LeafLod.obj
 0001:00063220       ?push_back@?$vector@USLodEntry@CLeafLodEngine@@V?$allocator@USLodEntry@CLeafLodEngine@@@std@@@std@@QAEXABUSLodEntry@CLeafLodEngine@@@Z 10064220 f i LeafLod.obj
 0001:00063280       ?select_on_container_copy_construction@?$_Default_allocator_traits@V?$allocator@PAVCBillboardLeaf@@@std@@@std@@SA?AV?$allocator@PAVCBillboardLeaf@@@2@ABV32@@Z 10064280 f i LeafLod.obj
 0001:000632a0       ?size@?$vector@IV?$allocator@I@std@@@std@@QBEIXZ 100642a0 f i LeafLod.obj
 0001:000632e0       ??0ExtReal@@QAE@ABW4EXT_REAL_CODE@@@Z 100642e0 f i ExtendedReal.obj
 0001:00063320       ??0ExtReal@@QAE@M@Z        10064320 f i ExtendedReal.obj
 0001:00063360       ??6@YAAAV?$basic_ostream@DU?$char_traits@D@std@@@std@@AAV01@ABVExtReal@@@Z 10064360 f   ExtendedReal.obj
 0001:00063470       ??DExtReal@@QBE?AV0@ABV0@@Z 10064470 f   ExtendedReal.obj
 0001:000636f0       ??GExtReal@@QBE?AV0@ABV0@@Z 100646f0 f   ExtendedReal.obj
 0001:000638d0       ??GExtReal@@QBE?AV0@XZ     100648d0 f   ExtendedReal.obj
 0001:00063a50       ??HExtReal@@QBE?AV0@ABV0@@Z 10064a50 f   ExtendedReal.obj
 0001:00063c30       ??0CIdvRandom@@QAE@XZ      10064c30 f   IdvRandom.obj
 0001:00063c90       ??0Random@@QAE@XZ          10064c90 f i IdvRandom.obj
 0001:00063cc0       ??0Uniform@@QAE@XZ         10064cc0 f i IdvRandom.obj
 0001:00063d20       ??1CIdvRandom@@QAE@XZ      10064d20 f   IdvRandom.obj
 0001:00063d40       ??1Random@@UAE@XZ          10064d40 f i IdvRandom.obj
 0001:00063d70       ??1Uniform@@UAE@XZ         10064d70 f i IdvRandom.obj
 0001:00063dc0       ??_ERandom@@UAEPAXI@Z      10064dc0 f i IdvRandom.obj
 0001:00063dc0       ??_GRandom@@UAEPAXI@Z      10064dc0 f i IdvRandom.obj
 0001:00063e30       ??_EUniform@@UAEPAXI@Z     10064e30 f i IdvRandom.obj
 0001:00063e30       ??_GUniform@@UAEPAXI@Z     10064e30 f i IdvRandom.obj
 0001:00063ea0       ?Density@Uniform@@UBEMM@Z  10064ea0 f i IdvRandom.obj
 0001:00063f10       ?GetNormal@CIdvRandom@@QAENNN@Z 10064f10 f   IdvRandom.obj
 0001:00063fa0       ?GetNormal@CIdvRandom@@QAENXZ 10064fa0 f   IdvRandom.obj
 0001:00063ff0       ?GetSeed@CIdvRandom@@QBEJXZ 10064ff0 f   IdvRandom.obj
 0001:00064040       ?GetUniform@CIdvRandom@@QAEMMM@Z 10065040 f   IdvRandom.obj
 0001:000640e0       ?Mean@Random@@UBE?AVExtReal@@XZ 100650e0 f i IdvRandom.obj
 0001:00064150       ?Mean@Uniform@@UBE?AVExtReal@@XZ 10065150 f i IdvRandom.obj
 0001:000641c0       ?Next@Uniform@@UAEMXZ      100651c0 f i IdvRandom.obj
 0001:00064210       ?Reseed@CIdvRandom@@QAEXJ@Z 10065210 f   IdvRandom.obj
 0001:00064340       ?Variance@Random@@UBE?AVExtReal@@XZ 10065340 f i IdvRandom.obj
 0001:000643b0       ?Variance@Uniform@@UBE?AVExtReal@@XZ 100653b0 f i IdvRandom.obj
 0001:00064420       ?nelems@Random@@UBEHXZ     10065420 f i IdvRandom.obj
 0001:00064450       ?tDelete@Random@@UAEXXZ    10065450 f i IdvRandom.obj
 0001:000644d0       ??0Normal@@QAE@XZ          100654d0 f   RobertDavies_Random.obj
 0001:00064610       ??0PosGen@@QAE@XZ          10065610 f   RobertDavies_Random.obj
 0001:000646a0       ??0SymGen@@QAE@XZ          100656a0 f i RobertDavies_Random.obj
 0001:00064700       ??0logic_error@std@@QAE@ABV01@@Z 10065700 f i RobertDavies_Random.obj
 0001:00064770       ??0logic_error@std@@QAE@PBD@Z 10065770 f i RobertDavies_Random.obj
 0001:000647e0       ??0runtime_error@std@@QAE@PBD@Z 100657e0 f i RobertDavies_Random.obj
 0001:00064850       ??1Normal@@UAE@XZ          10065850 f   RobertDavies_Random.obj
 0001:000648d0       ??1PosGen@@UAE@XZ          100658d0 f   RobertDavies_Random.obj
 0001:00064980       ??1SymGen@@UAE@XZ          10065980 f i RobertDavies_Random.obj
 0001:000649d0       ??1logic_error@std@@UAE@XZ 100659d0 f i RobertDavies_Random.obj
 0001:00064a20       ??_ENormal@@UAEPAXI@Z      10065a20 f i RobertDavies_Random.obj
 0001:00064a20       ??_GNormal@@UAEPAXI@Z      10065a20 f i RobertDavies_Random.obj
 0001:00064a90       ??_EPosGen@@UAEPAXI@Z      10065a90 f i RobertDavies_Random.obj
 0001:00064a90       ??_GPosGen@@UAEPAXI@Z      10065a90 f i RobertDavies_Random.obj
 0001:00064b00       ??_ESymGen@@UAEPAXI@Z      10065b00 f i RobertDavies_Random.obj
 0001:00064b00       ??_GSymGen@@UAEPAXI@Z      10065b00 f i RobertDavies_Random.obj
 0001:00064b70       ??_Elogic_error@std@@UAEPAXI@Z 10065b70 f i RobertDavies_Random.obj
 0001:00064b70       ??_Glogic_error@std@@UAEPAXI@Z 10065b70 f i RobertDavies_Random.obj
 0001:00064be0       ?Build@PosGen@@IAEX_N@Z    10065be0 f   RobertDavies_Random.obj
 0001:00064e20       ?Density@Normal@@UBEMM@Z   10065e20 f   RobertDavies_Random.obj
 0001:00064f10       ?Density@Random@@UBEMM@Z   10065f10 f   RobertDavies_Random.obj
 0001:00064f50       ?Get@Random@@SANXZ         10065f50 f   RobertDavies_Random.obj
 0001:00064f90       ?GetSeed@Random@@SAJXZ     10065f90 f   RobertDavies_Random.obj
 0001:00064fc0       ?Mean@Normal@@UBE?AVExtReal@@XZ 10065fc0 f i RobertDavies_Random.obj
 0001:00065020       ?Mean@PosGen@@UBE?AVExtReal@@XZ 10066020 f i RobertDavies_Random.obj
 0001:00065090       ?Name@Normal@@UAEPADXZ     10066090 f   RobertDavies_Random.obj
 0001:000650c0       ?Name@PosGen@@UAEPADXZ     100660c0 f   RobertDavies_Random.obj
 0001:000650f0       ?Name@Random@@UAEPADXZ     100660f0 f   RobertDavies_Random.obj
 0001:00065120       ?Name@SymGen@@UAEPADXZ     10066120 f   RobertDavies_Random.obj
 0001:00065150       ?Name@Uniform@@UAEPADXZ    10066150 f   RobertDavies_Random.obj
 0001:00065180       ?Next@PosGen@@UAEMXZ       10066180 f   RobertDavies_Random.obj
 0001:00065310       ?Next@Random@@UAEMXZ       10066310 f   RobertDavies_Random.obj
 0001:00065410       ?Next@SymGen@@UAEMXZ       10066410 f   RobertDavies_Random.obj
 0001:00065600       ?Raw@Random@@CAMXZ         10066600 f   RobertDavies_Random.obj
 0001:000656b0       ?Set@Random@@SAXN@Z        100666b0 f   RobertDavies_Random.obj
 0001:00065790       ?SetLong@Random@@SAXJ@Z    10066790 f   RobertDavies_Random.obj
 0001:00065820       ?Variance@Normal@@UBE?AVExtReal@@XZ 10066820 f i RobertDavies_Random.obj
 0001:00065890       ?Variance@PosGen@@UBE?AVExtReal@@XZ 10066890 f i RobertDavies_Random.obj
 0001:00065900       ?exp@@YAMM@Z               10066900 f i RobertDavies_Random.obj
 0001:00065950       ?fabs@@YAMM@Z              10066950 f i RobertDavies_Random.obj
 0001:000659a0       ?ln_gamma@@YAMM@Z          100669a0 f   RobertDavies_Random.obj
 0001:00065c40       ?load@Random@@UAEXPAHPAMPAPAV1@@Z 10066c40 f   RobertDavies_Random.obj
 0001:00065cb0       ?log@@YAMM@Z               10066cb0 f i RobertDavies_Random.obj
 0001:00065d00       ?sin@@YAMM@Z               10066d00 f i RobertDavies_Random.obj
 0001:00065d50       _expf                      10066d50 f i RobertDavies_Random.obj
 0001:00065dc0       _logf                      10066dc0 f i RobertDavies_Random.obj
 0001:00065e30       ??$?0$$V@?$_Compressed_pair@V?$allocator@U?$_Tree_node@U?$pair@$$CBV?$basic_string@DU?$char_traits@D@std@@V?$allocator@D@2@@std@@PAVCIdvBezierSpline@@@std@@PAX@std@@@std@@V?$_Tree_val@U?$_Tree_simple_types@U?$pair@$$CBV?$basic_string@DU?$char_traits@D@std@@V?$allocator@D@2@@std@@PAVCIdvBezierSpline@@@std@@@std@@@2@$00@std@@QAE@U_Zero_then_variadic_args_t@1@@Z 10066e30 f i IdvSpline.obj
 0001:00065e90       ??$?0$$V@?$_Compressed_pair@V?$allocator@VCVec@@@std@@V?$_Vector_val@U?$_Simple_types@VCVec@@@std@@@2@$00@std@@QAE@U_Zero_then_variadic_args_t@1@@Z 10066e90 f i IdvSpline.obj
 0001:00065ef0       ??$?0ABQAU?$_Tree_node@U?$pair@$$CBV?$basic_string@DU?$char_traits@D@std@@V?$allocator@D@2@@std@@PAVCIdvBezierSpline@@@std@@PAX@std@@_N$0A@@?$pair@PAU?$_Tree_node@U?$pair@$$CBV?$basic_string@DU?$char_traits@D@std@@V?$allocator@D@2@@std@@PAVCIdvBezierSpline@@@std@@PAX@std@@_N@std@@QAE@ABQAU?$_Tree_node@U?$pair@$$CBV?$basic_string@DU?$char_traits@D@std@@V?$allocator@D@2@@std@@PAVCIdvBezierSpline@@@std@@PAX@1@$$QA_N@Z 10066ef0 f i IdvSpline.obj
 0001:00065f70       ??$?0ABU?$less@V?$basic_string@DU?$char_traits@D@std@@V?$allocator@D@2@@std@@@std@@U_Zero_then_variadic_args_t@1@@?$_Compressed_pair@U?$less@V?$basic_string@DU?$char_traits@D@std@@V?$allocator@D@2@@std@@@std@@V?$_Compressed_pair@V?$allocator@U?$_Tree_node@U?$pair@$$CBV?$basic_string@DU?$char_traits@D@std@@V?$allocator@D@2@@std@@PAVCIdvBezierSpline@@@std@@PAX@std@@@std@@V?$_Tree_val@U?$_Tree_simple_types@U?$pair@$$CBV?$basic_string@DU?$char_traits@D@std@@V?$allocator@D@2@@std@@PAVCIdvBezierSpline@@@std@@@std@@@2@$00@2@$00@std@@QAE@U_One_then_variadic_args_t@1@ABU?$less@V?$basic_string@DU?$char_traits@D@std@@V?$allocator@D@2@@std@@@1@$$QAU_Zero_then_variadic_args_t@1@@Z 10066f70 f i IdvSpline.obj
 0001:00065ff0       ??$?0ABUpiecewise_construct_t@std@@V?$tuple@ABV?$basic_string@DU?$char_traits@D@std@@V?$allocator@D@2@@std@@@1@V?$tuple@$$V@1@@?$_Tree_temp_node@V?$allocator@U?$_Tree_node@U?$pair@$$CBV?$basic_string@DU?$char_traits@D@std@@V?$allocator@D@2@@std@@PAVCIdvBezierSpline@@@std@@PAX@std@@@std@@@std@@QAE@AAV?$allocator@U?$_Tree_node@U?$pair@$$CBV?$basic_string@DU?$char_traits@D@std@@V?$allocator@D@2@@std@@PAVCIdvBezierSpline@@@std@@PAX@std@@@1@PAU?$_Tree_node@U?$pair@$$CBV?$basic_string@DU?$char_traits@D@std@@V?$allocator@D@2@@std@@PAVCIdvBezierSpline@@@std@@PAX@1@ABUpiecewise_construct_t@1@$$QAV?$tuple@ABV?$basic_string@DU?$char_traits@D@std@@V?$allocator@D@2@@std@@@1@$$QAV?$tuple@$$V@1@@Z 10066ff0 f i IdvSpline.obj
 0001:00066150       ??$?0ABV?$basic_string@DU?$char_traits@D@std@@V?$allocator@D@2@@std@@$$Z$$V@?$pair@$$CBV?$basic_string@DU?$char_traits@D@std@@V?$allocator@D@2@@std@@PAVCIdvBezierSpline@@@std@@QAE@Upiecewise_construct_t@1@V?$tuple@ABV?$basic_string@DU?$char_traits@D@std@@V?$allocator@D@2@@std@@@1@V?$tuple@$$V@1@@Z 10067150 f i IdvSpline.obj
 0001:000661e0       ??$?0ABV?$basic_string@DU?$char_traits@D@std@@V?$allocator@D@2@@std@@$0A@@?$tuple@ABV?$basic_string@DU?$char_traits@D@std@@V?$allocator@D@2@@std@@@std@@QAE@ABV?$basic_string@DU?$char_traits@D@std@@V?$allocator@D@2@@1@@Z 100671e0 f i IdvSpline.obj
 0001:00066280       ??$?0ABV?$basic_string@DU?$char_traits@D@std@@V?$allocator@D@2@@std@@@?$_Tuple_val@ABV?$basic_string@DU?$char_traits@D@std@@V?$allocator@D@2@@std@@@std@@QAE@ABV?$basic_string@DU?$char_traits@D@std@@V?$allocator@D@2@@1@@Z 10067280 f i IdvSpline.obj
 0001:000662e0       ??$?0PAU?$_Tree_node@U?$pair@$$CBV?$basic_string@DU?$char_traits@D@std@@V?$allocator@D@2@@std@@PAVCIdvBezierSpline@@@std@@PAX@std@@_N$0A@@?$pair@PAU?$_Tree_node@U?$pair@$$CBV?$basic_string@DU?$char_traits@D@std@@V?$allocator@D@2@@std@@PAVCIdvBezierSpline@@@std@@PAX@std@@_N@std@@QAE@$$QAPAU?$_Tree_node@U?$pair@$$CBV?$basic_string@DU?$char_traits@D@std@@V?$allocator@D@2@@std@@PAVCIdvBezierSpline@@@std@@PAX@1@$$QA_N@Z 100672e0 f i IdvSpline.obj
 0001:00066360       ??$?0U?$_Tree_node@U?$pair@$$CBV?$basic_string@DU?$char_traits@D@std@@V?$allocator@D@2@@std@@PAVCIdvBezierSpline@@@std@@PAX@std@@@?$allocator@U_Container_proxy@std@@@std@@QAE@ABV?$allocator@U?$_Tree_node@U?$pair@$$CBV?$basic_string@DU?$char_traits@D@std@@V?$allocator@D@2@@std@@PAVCIdvBezierSpline@@@std@@PAX@std@@@1@@Z 10067360 f i IdvSpline.obj
 0001:00066390       ??$?0U_Exact_args_t@std@@$0A@@?$tuple@$$V@std@@QAE@U_Exact_args_t@1@@Z 10067390 f i IdvSpline.obj
 0001:000663c0       ??$?0U_Exact_args_t@std@@ABV?$basic_string@DU?$char_traits@D@std@@V?$allocator@D@2@@1@$$V$0A@@?$tuple@ABV?$basic_string@DU?$char_traits@D@std@@V?$allocator@D@2@@std@@@std@@QAE@U_Exact_args_t@1@ABV?$basic_string@DU?$char_traits@D@std@@V?$allocator@D@2@@1@@Z 100673c0 f i IdvSpline.obj
 0001:00066440       ??$?0V?$tuple@ABV?$basic_string@DU?$char_traits@D@std@@V?$allocator@D@2@@std@@@std@@V?$tuple@$$V@1@$0A@$$Z$S@?$pair@$$CBV?$basic_string@DU?$char_traits@D@std@@V?$allocator@D@2@@std@@PAVCIdvBezierSpline@@@std@@QAE@AAV?$tuple@ABV?$basic_string@DU?$char_traits@D@std@@V?$allocator@D@2@@std@@@1@AAV?$tuple@$$V@1@U?$integer_sequence@I$0A@@1@U?$integer_sequence@I$S@1@@Z 10067440 f i IdvSpline.obj
 0001:000664c0       ??$?0VCVec@@@?$allocator@U_Container_proxy@std@@@std@@QAE@ABV?$allocator@VCVec@@@1@@Z 100674c0 f i IdvSpline.obj
 0001:000664f0       ??$?MDU?$char_traits@D@std@@V?$allocator@D@1@@std@@YA_NABV?$basic_string@DU?$char_traits@D@std@@V?$allocator@D@2@@0@0@Z 100674f0 f i IdvSpline.obj
 0001:00066570       ??$_Buyheadnode@V?$allocator@U?$_Tree_node@U?$pair@$$CBV?$basic_string@DU?$char_traits@D@std@@V?$allocator@D@2@@std@@PAVCIdvBezierSpline@@@std@@PAX@std@@@std@@@?$_Tree_node@U?$pair@$$CBV?$basic_string@DU?$char_traits@D@std@@V?$allocator@D@2@@std@@PAVCIdvBezierSpline@@@std@@PAX@std@@SAPAU01@AAV?$allocator@U?$_Tree_node@U?$pair@$$CBV?$basic_string@DU?$char_traits@D@std@@V?$allocator@D@2@@std@@PAVCIdvBezierSpline@@@std@@PAX@std@@@1@@Z 10067570 f i IdvSpline.obj
 0001:00066650       ??$_Construct_in_place@PAU?$_Tree_node@U?$pair@$$CBV?$basic_string@DU?$char_traits@D@std@@V?$allocator@D@2@@std@@PAVCIdvBezierSpline@@@std@@PAX@std@@AAPAU12@@std@@YAXAAPAU?$_Tree_node@U?$pair@$$CBV?$basic_string@DU?$char_traits@D@std@@V?$allocator@D@2@@std@@PAVCIdvBezierSpline@@@std@@PAX@0@0@Z 10067650 f i IdvSpline.obj
 0001:000666d0       ??$_Construct_in_place@PAU?$_Tree_node@U?$pair@$$CBV?$basic_string@DU?$char_traits@D@std@@V?$allocator@D@2@@std@@PAVCIdvBezierSpline@@@std@@PAX@std@@ABQAU12@@std@@YAXAAPAU?$_Tree_node@U?$pair@$$CBV?$basic_string@DU?$char_traits@D@std@@V?$allocator@D@2@@std@@PAVCIdvBezierSpline@@@std@@PAX@0@ABQAU10@@Z 100676d0 f i IdvSpline.obj
 0001:00066750       ??$_Construct_in_place@VCVec@@ABV1@@std@@YAXAAVCVec@@ABV1@@Z 10067750 f i IdvSpline.obj
 0001:000667f0       ??$_Construct_in_place@VCVec@@V1@@std@@YAXAAVCVec@@$$QAV1@@Z 100677f0 f i IdvSpline.obj
 0001:00066890       ??$_Debug_lt_pred@ABU?$less@V?$basic_string@DU?$char_traits@D@std@@V?$allocator@D@2@@std@@@std@@ABV?$basic_string@DU?$char_traits@D@std@@V?$allocator@D@2@@2@ABV32@$0A@@std@@YA_NABU?$less@V?$basic_string@DU?$char_traits@D@std@@V?$allocator@D@2@@std@@@0@ABV?$basic_string@DU?$char_traits@D@std@@V?$allocator@D@2@@0@1@Z 10067890 f i IdvSpline.obj
 0001:00066990       ??$_Destroy_in_place@PAU?$_Tree_node@U?$pair@$$CBV?$basic_string@DU?$char_traits@D@std@@V?$allocator@D@2@@std@@PAVCIdvBezierSpline@@@std@@PAX@std@@@std@@YAXAAPAU?$_Tree_node@U?$pair@$$CBV?$basic_string@DU?$char_traits@D@std@@V?$allocator@D@2@@std@@PAVCIdvBezierSpline@@@std@@PAX@0@@Z 10067990 f i IdvSpline.obj
 0001:000669b0       ??$_Emplace_back@$$V@?$_Uninitialized_backout_al@V?$allocator@VCVec@@@std@@@std@@QAEXXZ 100679b0 f i IdvSpline.obj
 0001:00066a30       ??$_Emplace_back@VCVec@@@?$_Uninitialized_backout_al@V?$allocator@VCVec@@@std@@@std@@QAEX$$QAVCVec@@@Z 10067a30 f i IdvSpline.obj
 0001:00066ac0       ??$_Emplace_back_with_unused_capacity@ABVCVec@@@?$vector@VCVec@@V?$allocator@VCVec@@@std@@@std@@AAEAAVCVec@@ABV2@@Z 10067ac0 f i IdvSpline.obj
 0001:00066b70       ??$_Emplace_back_with_unused_capacity@VCVec@@@?$vector@VCVec@@V?$allocator@VCVec@@@std@@@std@@AAEAAVCVec@@$$QAV2@@Z 10067b70 f i IdvSpline.obj
 0001:00066c20       ??$_Emplace_one_at_back@ABVCVec@@@?$vector@VCVec@@V?$allocator@VCVec@@@std@@@std@@AAEAAVCVec@@ABV2@@Z 10067c20 f i IdvSpline.obj
 0001:00066cd0       ??$_Emplace_one_at_back@VCVec@@@?$vector@VCVec@@V?$allocator@VCVec@@@std@@@std@@AAEAAVCVec@@$$QAV2@@Z 10067cd0 f i IdvSpline.obj
 0001:00066d80       ??$_Emplace_reallocate@ABVCVec@@@?$vector@VCVec@@V?$allocator@VCVec@@@std@@@std@@AAEPAVCVec@@QAV2@ABV2@@Z 10067d80 f i IdvSpline.obj
 0001:000670a0       ??$_Emplace_reallocate@VCVec@@@?$vector@VCVec@@V?$allocator@VCVec@@@std@@@std@@AAEPAVCVec@@QAV2@$$QAV2@@Z 100680a0 f i IdvSpline.obj
 0001:000673c0       ??$_Erase_head@V?$allocator@U?$_Tree_node@U?$pair@$$CBV?$basic_string@DU?$char_traits@D@std@@V?$allocator@D@2@@std@@PAVCIdvBezierSpline@@@std@@PAX@std@@@std@@@?$_Tree_val@U?$_Tree_simple_types@U?$pair@$$CBV?$basic_string@DU?$char_traits@D@std@@V?$allocator@D@2@@std@@PAVCIdvBezierSpline@@@std@@@std@@@std@@QAEXAAV?$allocator@U?$_Tree_node@U?$pair@$$CBV?$basic_string@DU?$char_traits@D@std@@V?$allocator@D@2@@std@@PAVCIdvBezierSpline@@@std@@PAX@std@@@1@@Z 100683c0 f i IdvSpline.obj
 0001:00067450       ??$_Erase_tree@V?$allocator@U?$_Tree_node@U?$pair@$$CBV?$basic_string@DU?$char_traits@D@std@@V?$allocator@D@2@@std@@PAVCIdvBezierSpline@@@std@@PAX@std@@@std@@@?$_Tree_val@U?$_Tree_simple_types@U?$pair@$$CBV?$basic_string@DU?$char_traits@D@std@@V?$allocator@D@2@@std@@PAVCIdvBezierSpline@@@std@@@std@@@std@@QAEXAAV?$allocator@U?$_Tree_node@U?$pair@$$CBV?$basic_string@DU?$char_traits@D@std@@V?$allocator@D@2@@std@@PAVCIdvBezierSpline@@@std@@PAX@std@@@1@PAU?$_Tree_node@U?$pair@$$CBV?$basic_string@DU?$char_traits@D@std@@V?$allocator@D@2@@std@@PAVCIdvBezierSpline@@@std@@PAX@1@@Z 10068450 f i IdvSpline.obj
 0001:000674f0       ??$_Find_lower_bound@V?$basic_string@DU?$char_traits@D@std@@V?$allocator@D@2@@std@@@?$_Tree@V?$_Tmap_traits@V?$basic_string@DU?$char_traits@D@std@@V?$allocator@D@2@@std@@PAVCIdvBezierSpline@@U?$less@V?$basic_string@DU?$char_traits@D@std@@V?$allocator@D@2@@std@@@2@V?$allocator@U?$pair@$$CBV?$basic_string@DU?$char_traits@D@std@@V?$allocator@D@2@@std@@PAVCIdvBezierSpline@@@std@@@2@$0A@@std@@@std@@IBE?AU?$_Tree_find_result@PAU?$_Tree_node@U?$pair@$$CBV?$basic_string@DU?$char_traits@D@std@@V?$allocator@D@2@@std@@PAVCIdvBezierSpline@@@std@@PAX@std@@@1@ABV?$basic_string@DU?$char_traits@D@std@@V?$allocator@D@2@@1@@Z 100684f0 f i IdvSpline.obj
 0001:00067650       ??$_Freenode0@V?$allocator@U?$_Tree_node@U?$pair@$$CBV?$basic_string@DU?$char_traits@D@std@@V?$allocator@D@2@@std@@PAVCIdvBezierSpline@@@std@@PAX@std@@@std@@@?$_Tree_node@U?$pair@$$CBV?$basic_string@DU?$char_traits@D@std@@V?$allocator@D@2@@std@@PAVCIdvBezierSpline@@@std@@PAX@std@@SAXAAV?$allocator@U?$_Tree_node@U?$pair@$$CBV?$basic_string@DU?$char_traits@D@std@@V?$allocator@D@2@@std@@PAVCIdvBezierSpline@@@std@@PAX@std@@@1@PAU01@@Z 10068650 f i IdvSpline.obj
 0001:00067710       ??$_Freenode@V?$allocator@U?$_Tree_node@U?$pair@$$CBV?$basic_string@DU?$char_traits@D@std@@V?$allocator@D@2@@std@@PAVCIdvBezierSpline@@@std@@PAX@std@@@std@@@?$_Tree_node@U?$pair@$$CBV?$basic_string@DU?$char_traits@D@std@@V?$allocator@D@2@@std@@PAVCIdvBezierSpline@@@std@@PAX@std@@SAXAAV?$allocator@U?$_Tree_node@U?$pair@$$CBV?$basic_string@DU?$char_traits@D@std@@V?$allocator@D@2@@std@@PAVCIdvBezierSpline@@@std@@PAX@std@@@1@PAU01@@Z 10068710 f i IdvSpline.obj
 0001:000677c0       ??$_Get_unwrapped@ABQAVCVec@@@std@@YA?A_TABQAVCVec@@@Z 100687c0 f i IdvSpline.obj
 0001:000677e0       ??$_Kfn@$$CBV?$basic_string@DU?$char_traits@D@std@@V?$allocator@D@2@@std@@PAVCIdvBezierSpline@@@?$_Tmap_traits@V?$basic_string@DU?$char_traits@D@std@@V?$allocator@D@2@@std@@PAVCIdvBezierSpline@@U?$less@V?$basic_string@DU?$char_traits@D@std@@V?$allocator@D@2@@std@@@2@V?$allocator@U?$pair@$$CBV?$basic_string@DU?$char_traits@D@std@@V?$allocator@D@2@@std@@PAVCIdvBezierSpline@@@std@@@2@$0A@@std@@SAABV?$basic_string@DU?$char_traits@D@std@@V?$allocator@D@2@@1@ABU?$pair@$$CBV?$basic_string@DU?$char_traits@D@std@@V?$allocator@D@2@@std@@PAVCIdvBezierSpline@@@1@@Z 100687e0 f i IdvSpline.obj
 0001:00067800       ??$_Lower_bound_duplicate@V?$basic_string@DU?$char_traits@D@std@@V?$allocator@D@2@@std@@@?$_Tree@V?$_Tmap_traits@V?$basic_string@DU?$char_traits@D@std@@V?$allocator@D@2@@std@@PAVCIdvBezierSpline@@U?$less@V?$basic_string@DU?$char_traits@D@std@@V?$allocator@D@2@@std@@@2@V?$allocator@U?$pair@$$CBV?$basic_string@DU?$char_traits@D@std@@V?$allocator@D@2@@std@@PAVCIdvBezierSpline@@@std@@@2@$0A@@std@@@std@@IBE_NQAU?$_Tree_node@U?$pair@$$CBV?$basic_string@DU?$char_traits@D@std@@V?$allocator@D@2@@std@@PAVCIdvBezierSpline@@@std@@PAX@1@ABV?$basic_string@DU?$char_traits@D@std@@V?$allocator@D@2@@1@@Z 10068800 f i IdvSpline.obj
 0001:000678b0       ??$_Resize@U_Value_init_tag@std@@@?$vector@VCVec@@V?$allocator@VCVec@@@std@@@std@@AAEXIABU_Value_init_tag@1@@Z 100688b0 f i IdvSpline.obj
 0001:00067a20       ??$_Resize_reallocate@U_Value_init_tag@std@@@?$vector@VCVec@@V?$allocator@VCVec@@@std@@@std@@AAEXIABU_Value_init_tag@1@@Z 10068a20 f i IdvSpline.obj
 0001:00067c60       ??$_Traits_compare@U?$char_traits@D@std@@@std@@YAHQBDI0I@Z 10068c60 f i IdvSpline.obj
 0001:00067d00       ??$_Try_emplace@ABV?$basic_string@DU?$char_traits@D@std@@V?$allocator@D@2@@std@@$$V@?$map@V?$basic_string@DU?$char_traits@D@std@@V?$allocator@D@2@@std@@PAVCIdvBezierSpline@@U?$less@V?$basic_string@DU?$char_traits@D@std@@V?$allocator@D@2@@std@@@2@V?$allocator@U?$pair@$$CBV?$basic_string@DU?$char_traits@D@std@@V?$allocator@D@2@@std@@PAVCIdvBezierSpline@@@std@@@2@@std@@AAE?AU?$pair@PAU?$_Tree_node@U?$pair@$$CBV?$basic_string@DU?$char_traits@D@std@@V?$allocator@D@2@@std@@PAVCIdvBezierSpline@@@std@@PAX@std@@_N@1@ABV?$basic_string@DU?$char_traits@D@std@@V?$allocator@D@2@@1@@Z 10068d00 f i IdvSpline.obj
 0001:00067ed0       ??$_Tuple_get@$0A@ABV?$basic_string@DU?$char_traits@D@std@@V?$allocator@D@2@@std@@@std@@YA$$QA_P$$QAV?$tuple@ABV?$basic_string@DU?$char_traits@D@std@@V?$allocator@D@2@@std@@@0@@Z 10068ed0 f i IdvSpline.obj
 0001:00067ef0       ??$_Uninitialized_move@PAVCVec@@V?$allocator@VCVec@@@std@@@std@@YAPAVCVec@@QAV1@0PAV1@AAV?$allocator@VCVec@@@0@@Z 10068ef0 f i IdvSpline.obj
 0001:00068040       ??$_Uninitialized_value_construct_n@V?$allocator@VCVec@@@std@@@std@@YAPAVCVec@@PAV1@IAAV?$allocator@VCVec@@@0@@Z 10069040 f i IdvSpline.obj
 0001:00068160       ??$addressof@$$CBV?$_Tree_val@U?$_Tree_simple_types@U?$pair@$$CBV?$basic_string@DU?$char_traits@D@std@@V?$allocator@D@2@@std@@PAVCIdvBezierSpline@@@std@@@std@@@std@@@std@@YAPBV?$_Tree_val@U?$_Tree_simple_types@U?$pair@$$CBV?$basic_string@DU?$char_traits@D@std@@V?$allocator@D@2@@std@@PAVCIdvBezierSpline@@@std@@@std@@@0@ABV10@@Z 10069160 f i IdvSpline.obj
 0001:00068180       ??$addressof@PAU?$_Tree_node@U?$pair@$$CBV?$basic_string@DU?$char_traits@D@std@@V?$allocator@D@2@@std@@PAVCIdvBezierSpline@@@std@@PAX@std@@@std@@YAPAPAU?$_Tree_node@U?$pair@$$CBV?$basic_string@DU?$char_traits@D@std@@V?$allocator@D@2@@std@@PAVCIdvBezierSpline@@@std@@PAX@0@AAPAU10@@Z 10069180 f i IdvSpline.obj
 0001:000681a0       ??$addressof@U?$pair@$$CBV?$basic_string@DU?$char_traits@D@std@@V?$allocator@D@2@@std@@PAVCIdvBezierSpline@@@std@@@std@@YAPAU?$pair@$$CBV?$basic_string@DU?$char_traits@D@std@@V?$allocator@D@2@@std@@PAVCIdvBezierSpline@@@0@AAU10@@Z 100691a0 f i IdvSpline.obj
 0001:000681c0       ??$addressof@V?$_Tree_val@U?$_Tree_simple_types@U?$pair@$$CBV?$basic_string@DU?$char_traits@D@std@@V?$allocator@D@2@@std@@PAVCIdvBezierSpline@@@std@@@std@@@std@@@std@@YAPAV?$_Tree_val@U?$_Tree_simple_types@U?$pair@$$CBV?$basic_string@DU?$char_traits@D@std@@V?$allocator@D@2@@std@@PAVCIdvBezierSpline@@@std@@@std@@@0@AAV10@@Z 100691c0 f i IdvSpline.obj
 0001:000681e0       ??$addressof@VCVec@@@std@@YAPAVCVec@@AAV1@@Z 100691e0 f i IdvSpline.obj
 0001:00068200       ??$construct@U?$pair@$$CBV?$basic_string@DU?$char_traits@D@std@@V?$allocator@D@2@@std@@PAVCIdvBezierSpline@@@std@@ABUpiecewise_construct_t@2@V?$tuple@ABV?$basic_string@DU?$char_traits@D@std@@V?$allocator@D@2@@std@@@2@V?$tuple@$$V@2@@?$_Default_allocator_traits@V?$allocator@U?$_Tree_node@U?$pair@$$CBV?$basic_string@DU?$char_traits@D@std@@V?$allocator@D@2@@std@@PAVCIdvBezierSpline@@@std@@PAX@std@@@std@@@std@@SAXAAV?$allocator@U?$_Tree_node@U?$pair@$$CBV?$basic_string@DU?$char_traits@D@std@@V?$allocator@D@2@@std@@PAVCIdvBezierSpline@@@std@@PAX@std@@@1@QAU?$pair@$$CBV?$basic_string@DU?$char_traits@D@std@@V?$allocator@D@2@@std@@PAVCIdvBezierSpline@@@1@ABUpiecewise_construct_t@1@$$QAV?$tuple@ABV?$basic_string@DU?$char_traits@D@std@@V?$allocator@D@2@@std@@@1@$$QAV?$tuple@$$V@1@@Z 10069200 f i IdvSpline.obj
 0001:000682c0       ??$construct@VCVec@@$$V@?$_Default_allocator_traits@V?$allocator@VCVec@@@std@@@std@@SAXAAV?$allocator@VCVec@@@1@QAVCVec@@@Z 100692c0 f i IdvSpline.obj
 0001:00068330       ??$construct@VCVec@@ABV1@@?$_Default_allocator_traits@V?$allocator@VCVec@@@std@@@std@@SAXAAV?$allocator@VCVec@@@1@QAVCVec@@ABV3@@Z 10069330 f i IdvSpline.obj
 0001:000683d0       ??$construct@VCVec@@V1@@?$_Default_allocator_traits@V?$allocator@VCVec@@@std@@@std@@SAXAAV?$allocator@VCVec@@@1@QAVCVec@@$$QAV3@@Z 100693d0 f i IdvSpline.obj
 0001:00068470       ??$destroy@U?$pair@$$CBV?$basic_string@DU?$char_traits@D@std@@V?$allocator@D@2@@std@@PAVCIdvBezierSpline@@@std@@@?$_Default_allocator_traits@V?$allocator@U?$_Tree_node@U?$pair@$$CBV?$basic_string@DU?$char_traits@D@std@@V?$allocator@D@2@@std@@PAVCIdvBezierSpline@@@std@@PAX@std@@@std@@@std@@SAXAAV?$allocator@U?$_Tree_node@U?$pair@$$CBV?$basic_string@DU?$char_traits@D@std@@V?$allocator@D@2@@std@@PAVCIdvBezierSpline@@@std@@PAX@std@@@1@QAU?$pair@$$CBV?$basic_string@DU?$char_traits@D@std@@V?$allocator@D@2@@std@@PAVCIdvBezierSpline@@@1@@Z 10069470 f i IdvSpline.obj
 0001:000684c0       ??$exchange@PAU?$_Tree_node@U?$pair@$$CBV?$basic_string@DU?$char_traits@D@std@@V?$allocator@D@2@@std@@PAVCIdvBezierSpline@@@std@@PAX@std@@$$T@std@@YAPAU?$_Tree_node@U?$pair@$$CBV?$basic_string@DU?$char_traits@D@std@@V?$allocator@D@2@@std@@PAVCIdvBezierSpline@@@std@@PAX@0@AAPAU10@$$QA$$T@Z 100694c0 f i IdvSpline.obj
 0001:00068500       ??$exchange@PAU?$_Tree_node@U?$pair@$$CBV?$basic_string@DU?$char_traits@D@std@@V?$allocator@D@2@@std@@PAVCIdvBezierSpline@@@std@@PAX@std@@AAPAU12@@std@@YAPAU?$_Tree_node@U?$pair@$$CBV?$basic_string@DU?$char_traits@D@std@@V?$allocator@D@2@@std@@PAVCIdvBezierSpline@@@std@@PAX@0@AAPAU10@0@Z 10069500 f i IdvSpline.obj
 0001:00068540       ??$forward@AAPAU?$_Tree_node@U?$pair@$$CBV?$basic_string@DU?$char_traits@D@std@@V?$allocator@D@2@@std@@PAVCIdvBezierSpline@@@std@@PAX@std@@@std@@YAAAPAU?$_Tree_node@U?$pair@$$CBV?$basic_string@DU?$char_traits@D@std@@V?$allocator@D@2@@std@@PAVCIdvBezierSpline@@@std@@PAX@0@AAPAU10@@Z 10069540 f i IdvSpline.obj
 0001:00068560       ??$forward@ABQAU?$_Tree_node@U?$pair@$$CBV?$basic_string@DU?$char_traits@D@std@@V?$allocator@D@2@@std@@PAVCIdvBezierSpline@@@std@@PAX@std@@@std@@YAABQAU?$_Tree_node@U?$pair@$$CBV?$basic_string@DU?$char_traits@D@std@@V?$allocator@D@2@@std@@PAVCIdvBezierSpline@@@std@@PAX@0@ABQAU10@@Z 10069560 f i IdvSpline.obj
 0001:00068580       ??$forward@ABU?$less@V?$basic_string@DU?$char_traits@D@std@@V?$allocator@D@2@@std@@@std@@@std@@YAABU?$less@V?$basic_string@DU?$char_traits@D@std@@V?$allocator@D@2@@std@@@0@ABU10@@Z 10069580 f i IdvSpline.obj
 0001:000685a0       ??$forward@ABUpiecewise_construct_t@std@@@std@@YAABUpiecewise_construct_t@0@ABU10@@Z 100695a0 f i IdvSpline.obj
 0001:000685c0       ??$forward@ABV?$basic_string@DU?$char_traits@D@std@@V?$allocator@D@2@@std@@@std@@YAABV?$basic_string@DU?$char_traits@D@std@@V?$allocator@D@2@@0@ABV10@@Z 100695c0 f i IdvSpline.obj
 0001:000685e0       ??$forward@ABVCVec@@@std@@YAABVCVec@@ABV1@@Z 100695e0 f i IdvSpline.obj
 0001:00068600       ??$forward@PAU?$_Tree_node@U?$pair@$$CBV?$basic_string@DU?$char_traits@D@std@@V?$allocator@D@2@@std@@PAVCIdvBezierSpline@@@std@@PAX@std@@@std@@YA$$QAPAU?$_Tree_node@U?$pair@$$CBV?$basic_string@DU?$char_traits@D@std@@V?$allocator@D@2@@std@@PAVCIdvBezierSpline@@@std@@PAX@0@AAPAU10@@Z 10069600 f i IdvSpline.obj
 0001:00068620       ??$forward@U_Zero_then_variadic_args_t@std@@@std@@YA$$QAU_Zero_then_variadic_args_t@0@AAU10@@Z 10069620 f i IdvSpline.obj
 0001:00068640       ??$forward@V?$tuple@$$V@std@@@std@@YA$$QAV?$tuple@$$V@0@AAV10@@Z 10069640 f i IdvSpline.obj
 0001:00068660       ??$forward@V?$tuple@ABV?$basic_string@DU?$char_traits@D@std@@V?$allocator@D@2@@std@@@std@@@std@@YA$$QAV?$tuple@ABV?$basic_string@DU?$char_traits@D@std@@V?$allocator@D@2@@std@@@0@AAV10@@Z 10069660 f i IdvSpline.obj
 0001:00068680       ??$forward@VCVec@@@std@@YA$$QAVCVec@@AAV1@@Z 10069680 f i IdvSpline.obj
 0001:000686a0       ??$forward@_N@std@@YA$$QA_NAA_N@Z 100696a0 f i IdvSpline.obj
 0001:000686c0       ??$forward_as_tuple@$$V@std@@YA?AV?$tuple@$$V@0@XZ 100696c0 f i IdvSpline.obj
 0001:000686e0       ??$forward_as_tuple@ABV?$basic_string@DU?$char_traits@D@std@@V?$allocator@D@2@@std@@@std@@YA?AV?$tuple@ABV?$basic_string@DU?$char_traits@D@std@@V?$allocator@D@2@@std@@@0@ABV?$basic_string@DU?$char_traits@D@std@@V?$allocator@D@2@@0@@Z 100696e0 f i IdvSpline.obj
 0001:00068740       ??$move@AAV?$tuple@ABV?$basic_string@DU?$char_traits@D@std@@V?$allocator@D@2@@std@@@std@@@std@@YA$$QAV?$tuple@ABV?$basic_string@DU?$char_traits@D@std@@V?$allocator@D@2@@std@@@0@AAV10@@Z 10069740 f i IdvSpline.obj
 0001:00068760       ??$move@AAVCVec@@@std@@YA$$QAVCVec@@AAV1@@Z 10069760 f i IdvSpline.obj
 0001:00068780       ??0?$_Alloc_construct_ptr@V?$allocator@U?$_Tree_node@U?$pair@$$CBV?$basic_string@DU?$char_traits@D@std@@V?$allocator@D@2@@std@@PAVCIdvBezierSpline@@@std@@PAX@std@@@std@@@std@@QAE@AAV?$allocator@U?$_Tree_node@U?$pair@$$CBV?$basic_string@DU?$char_traits@D@std@@V?$allocator@D@2@@std@@PAVCIdvBezierSpline@@@std@@PAX@std@@@1@@Z 10069780 f i IdvSpline.obj
 0001:000687c0       ??0?$_Tree@V?$_Tmap_traits@V?$basic_string@DU?$char_traits@D@std@@V?$allocator@D@2@@std@@PAVCIdvBezierSpline@@U?$less@V?$basic_string@DU?$char_traits@D@std@@V?$allocator@D@2@@std@@@2@V?$allocator@U?$pair@$$CBV?$basic_string@DU?$char_traits@D@std@@V?$allocator@D@2@@std@@PAVCIdvBezierSpline@@@std@@@2@$0A@@std@@@std@@QAE@ABU?$less@V?$basic_string@DU?$char_traits@D@std@@V?$allocator@D@2@@std@@@1@@Z 100697c0 f i IdvSpline.obj
 0001:00068840       ??0?$_Tree_const_iterator@V?$_Tree_val@U?$_Tree_simple_types@U?$pair@$$CBV?$basic_string@DU?$char_traits@D@std@@V?$allocator@D@2@@std@@PAVCIdvBezierSpline@@@std@@@std@@@std@@@std@@QAE@PAU?$_Tree_node@U?$pair@$$CBV?$basic_string@DU?$char_traits@D@std@@V?$allocator@D@2@@std@@PAVCIdvBezierSpline@@@std@@PAX@1@PBV?$_Tree_val@U?$_Tree_simple_types@U?$pair@$$CBV?$basic_string@DU?$char_traits@D@std@@V?$allocator@D@2@@std@@PAVCIdvBezierSpline@@@std@@@std@@@1@@Z 10069840 f i IdvSpline.obj
 0001:000688a0       ??0?$_Tree_iterator@V?$_Tree_val@U?$_Tree_simple_types@U?$pair@$$CBV?$basic_string@DU?$char_traits@D@std@@V?$allocator@D@2@@std@@PAVCIdvBezierSpline@@@std@@@std@@@std@@@std@@QAE@PAU?$_Tree_node@U?$pair@$$CBV?$basic_string@DU?$char_traits@D@std@@V?$allocator@D@2@@std@@PAVCIdvBezierSpline@@@std@@PAX@1@PBV?$_Tree_val@U?$_Tree_simple_types@U?$pair@$$CBV?$basic_string@DU?$char_traits@D@std@@V?$allocator@D@2@@std@@PAVCIdvBezierSpline@@@std@@@std@@@1@@Z 100698a0 f i IdvSpline.obj
 0001:00068900       ??0?$_Tree_temp_node_alloc@V?$allocator@U?$_Tree_node@U?$pair@$$CBV?$basic_string@DU?$char_traits@D@std@@V?$allocator@D@2@@std@@PAVCIdvBezierSpline@@@std@@PAX@std@@@std@@@std@@QAE@AAV?$allocator@U?$_Tree_node@U?$pair@$$CBV?$basic_string@DU?$char_traits@D@std@@V?$allocator@D@2@@std@@PAVCIdvBezierSpline@@@std@@PAX@std@@@1@@Z 10069900 f i IdvSpline.obj
 0001:000689b0       ??0?$_Tree_unchecked_const_iterator@V?$_Tree_val@U?$_Tree_simple_types@U?$pair@$$CBV?$basic_string@DU?$char_traits@D@std@@V?$allocator@D@2@@std@@PAVCIdvBezierSpline@@@std@@@std@@@std@@U_Iterator_base12@2@@std@@QAE@PAU?$_Tree_node@U?$pair@$$CBV?$basic_string@DU?$char_traits@D@std@@V?$allocator@D@2@@std@@PAVCIdvBezierSpline@@@std@@PAX@1@PBV?$_Tree_val@U?$_Tree_simple_types@U?$pair@$$CBV?$basic_string@DU?$char_traits@D@std@@V?$allocator@D@2@@std@@PAVCIdvBezierSpline@@@std@@@std@@@1@@Z 100699b0 f i IdvSpline.obj
 0001:00068a20       ??0?$_Tree_val@U?$_Tree_simple_types@U?$pair@$$CBV?$basic_string@DU?$char_traits@D@std@@V?$allocator@D@2@@std@@PAVCIdvBezierSpline@@@std@@@std@@@std@@QAE@XZ 10069a20 f i IdvSpline.obj
 0001:00068a90       ??0?$_Vector_val@U?$_Simple_types@VCVec@@@std@@@std@@QAE@XZ 10069a90 f i IdvSpline.obj
 0001:00068b10       ??0?$allocator@U?$_Tree_node@U?$pair@$$CBV?$basic_string@DU?$char_traits@D@std@@V?$allocator@D@2@@std@@PAVCIdvBezierSpline@@@std@@PAX@std@@@std@@QAE@XZ 10069b10 f i IdvSpline.obj
 0001:00068b30       ??0?$allocator@VCVec@@@std@@QAE@XZ 10069b30 f i IdvSpline.obj
 0001:00068b50       ??0?$map@V?$basic_string@DU?$char_traits@D@std@@V?$allocator@D@2@@std@@PAVCIdvBezierSpline@@U?$less@V?$basic_string@DU?$char_traits@D@std@@V?$allocator@D@2@@std@@@2@V?$allocator@U?$pair@$$CBV?$basic_string@DU?$char_traits@D@std@@V?$allocator@D@2@@std@@PAVCIdvBezierSpline@@@std@@@2@@std@@QAE@XZ 10069b50 f i IdvSpline.obj
 0001:00068bb0       ??0?$tuple@$$V@std@@QAE@ABV01@@Z 10069bb0 f i IdvSpline.obj
 0001:00068be0       ??0?$tuple@ABV?$basic_string@DU?$char_traits@D@std@@V?$allocator@D@2@@std@@@std@@QAE@$$QAV01@@Z 10069be0 f i IdvSpline.obj
 0001:00068c50       ??0?$vector@VCVec@@V?$allocator@VCVec@@@std@@@std@@QAE@XZ 10069c50 f i IdvSpline.obj
 0001:00068d10       ??0CIdvBezierSpline@@QAE@ABV0@@Z 10069d10 f   IdvSpline.obj
 0001:00068e10       ??0CIdvBezierSpline@@QAE@ABV?$basic_string@DU?$char_traits@D@std@@V?$allocator@D@2@@std@@@Z 10069e10 f   IdvSpline.obj
 0001:00068fe0       ??0CIdvBezierSpline@@QAE@XZ 10069fe0 f   IdvSpline.obj
 0001:000690a0       ??1?$_Alloc_construct_ptr@V?$allocator@U?$_Tree_node@U?$pair@$$CBV?$basic_string@DU?$char_traits@D@std@@V?$allocator@D@2@@std@@PAVCIdvBezierSpline@@@std@@PAX@std@@@std@@@std@@QAE@XZ 1006a0a0 f i IdvSpline.obj
 0001:00069140       ??1?$_Tree@V?$_Tmap_traits@V?$basic_string@DU?$char_traits@D@std@@V?$allocator@D@2@@std@@PAVCIdvBezierSpline@@U?$less@V?$basic_string@DU?$char_traits@D@std@@V?$allocator@D@2@@std@@@2@V?$allocator@U?$pair@$$CBV?$basic_string@DU?$char_traits@D@std@@V?$allocator@D@2@@std@@PAVCIdvBezierSpline@@@std@@@2@$0A@@std@@@std@@QAE@XZ 1006a140 f i IdvSpline.obj
 0001:00069210       ??1?$_Tree_const_iterator@V?$_Tree_val@U?$_Tree_simple_types@U?$pair@$$CBV?$basic_string@DU?$char_traits@D@std@@V?$allocator@D@2@@std@@PAVCIdvBezierSpline@@@std@@@std@@@std@@@std@@QAE@XZ 1006a210 f i IdvSpline.obj
 0001:00069260       ??1?$_Tree_iterator@V?$_Tree_val@U?$_Tree_simple_types@U?$pair@$$CBV?$basic_string@DU?$char_traits@D@std@@V?$allocator@D@2@@std@@PAVCIdvBezierSpline@@@std@@@std@@@std@@@std@@QAE@XZ 1006a260 f i IdvSpline.obj
 0001:000692b0       ??1?$_Tree_temp_node@V?$allocator@U?$_Tree_node@U?$pair@$$CBV?$basic_string@DU?$char_traits@D@std@@V?$allocator@D@2@@std@@PAVCIdvBezierSpline@@@std@@PAX@std@@@std@@@std@@QAE@XZ 1006a2b0 f i IdvSpline.obj
 0001:000693b0       ??1?$_Tree_temp_node_alloc@V?$allocator@U?$_Tree_node@U?$pair@$$CBV?$basic_string@DU?$char_traits@D@std@@V?$allocator@D@2@@std@@PAVCIdvBezierSpline@@@std@@PAX@std@@@std@@@std@@QAE@XZ 1006a3b0 f i IdvSpline.obj
 0001:00069400       ??1?$_Tree_unchecked_const_iterator@V?$_Tree_val@U?$_Tree_simple_types@U?$pair@$$CBV?$basic_string@DU?$char_traits@D@std@@V?$allocator@D@2@@std@@PAVCIdvBezierSpline@@@std@@@std@@@std@@U_Iterator_base12@2@@std@@QAE@XZ 1006a400 f i IdvSpline.obj
 0001:00069450       ??1?$map@V?$basic_string@DU?$char_traits@D@std@@V?$allocator@D@2@@std@@PAVCIdvBezierSpline@@U?$less@V?$basic_string@DU?$char_traits@D@std@@V?$allocator@D@2@@std@@@2@V?$allocator@U?$pair@$$CBV?$basic_string@DU?$char_traits@D@std@@V?$allocator@D@2@@std@@PAVCIdvBezierSpline@@@std@@@2@@std@@QAE@XZ 1006a450 f i IdvSpline.obj
 0001:000694a0       ??1?$pair@$$CBV?$basic_string@DU?$char_traits@D@std@@V?$allocator@D@2@@std@@PAVCIdvBezierSpline@@@std@@QAE@XZ 1006a4a0 f i IdvSpline.obj
 0001:000694f0       ??1?$vector@VCVec@@V?$allocator@VCVec@@@std@@@std@@QAE@XZ 1006a4f0 f i IdvSpline.obj
 0001:000695d0       ??1CIdvBezierSpline@@QAE@XZ 1006a5d0 f   IdvSpline.obj
 0001:00069660       ??4?$basic_string@DU?$char_traits@D@std@@V?$allocator@D@2@@std@@QAEAAV01@QBD@Z 1006a660 f i IdvSpline.obj
 0001:000696c0       ??8?$_Tree_const_iterator@V?$_Tree_val@U?$_Tree_simple_types@U?$pair@$$CBV?$basic_string@DU?$char_traits@D@std@@V?$allocator@D@2@@std@@PAVCIdvBezierSpline@@@std@@@std@@@std@@@std@@QBE_NABV01@@Z 1006a6c0 f i IdvSpline.obj
 0001:000697d0       ??9?$_Tree_const_iterator@V?$_Tree_val@U?$_Tree_simple_types@U?$pair@$$CBV?$basic_string@DU?$char_traits@D@std@@V?$allocator@D@2@@std@@PAVCIdvBezierSpline@@@std@@@std@@@std@@@std@@QBE_NABV01@@Z 1006a7d0 f i IdvSpline.obj
 0001:00069850       ??A?$map@V?$basic_string@DU?$char_traits@D@std@@V?$allocator@D@2@@std@@PAVCIdvBezierSpline@@U?$less@V?$basic_string@DU?$char_traits@D@std@@V?$allocator@D@2@@std@@@2@V?$allocator@U?$pair@$$CBV?$basic_string@DU?$char_traits@D@std@@V?$allocator@D@2@@std@@PAVCIdvBezierSpline@@@std@@@2@@std@@QAEAAPAVCIdvBezierSpline@@ABV?$basic_string@DU?$char_traits@D@std@@V?$allocator@D@2@@1@@Z 1006a850 f i IdvSpline.obj
 0001:000698c0       ??A?$vector@VCVec@@V?$allocator@VCVec@@@std@@@std@@QAEAAVCVec@@I@Z 1006a8c0 f i IdvSpline.obj
 0001:000699c0       ??A?$vector@VCVec@@V?$allocator@VCVec@@@std@@@std@@QBEABVCVec@@I@Z 1006a9c0 f i IdvSpline.obj
 0001:00069ac0       ??C?$_Tree_iterator@V?$_Tree_val@U?$_Tree_simple_types@U?$pair@$$CBV?$basic_string@DU?$char_traits@D@std@@V?$allocator@D@2@@std@@PAVCIdvBezierSpline@@@std@@@std@@@std@@@std@@QBEPAU?$pair@$$CBV?$basic_string@DU?$char_traits@D@std@@V?$allocator@D@2@@std@@PAVCIdvBezierSpline@@@1@XZ 1006aac0 f i IdvSpline.obj
 0001:00069b20       ??D?$_Tree_const_iterator@V?$_Tree_val@U?$_Tree_simple_types@U?$pair@$$CBV?$basic_string@DU?$char_traits@D@std@@V?$allocator@D@2@@std@@PAVCIdvBezierSpline@@@std@@@std@@@std@@@std@@QBEABU?$pair@$$CBV?$basic_string@DU?$char_traits@D@std@@V?$allocator@D@2@@std@@PAVCIdvBezierSpline@@@1@XZ 1006ab20 f i IdvSpline.obj
 0001:00069c90       ??D?$_Tree_iterator@V?$_Tree_val@U?$_Tree_simple_types@U?$pair@$$CBV?$basic_string@DU?$char_traits@D@std@@V?$allocator@D@2@@std@@PAVCIdvBezierSpline@@@std@@@std@@@std@@@std@@QBEAAU?$pair@$$CBV?$basic_string@DU?$char_traits@D@std@@V?$allocator@D@2@@std@@PAVCIdvBezierSpline@@@1@XZ 1006ac90 f i IdvSpline.obj
 0001:00069ce0       ??E?$_Tree_const_iterator@V?$_Tree_val@U?$_Tree_simple_types@U?$pair@$$CBV?$basic_string@DU?$char_traits@D@std@@V?$allocator@D@2@@std@@PAVCIdvBezierSpline@@@std@@@std@@@std@@@std@@QAEAAV01@XZ 1006ace0 f i IdvSpline.obj
 0001:00069e50       ??E?$_Tree_iterator@V?$_Tree_val@U?$_Tree_simple_types@U?$pair@$$CBV?$basic_string@DU?$char_traits@D@std@@V?$allocator@D@2@@std@@PAVCIdvBezierSpline@@@std@@@std@@@std@@@std@@QAEAAV01@XZ 1006ae50 f i IdvSpline.obj
 0001:00069ea0       ??E?$_Tree_unchecked_const_iterator@V?$_Tree_val@U?$_Tree_simple_types@U?$pair@$$CBV?$basic_string@DU?$char_traits@D@std@@V?$allocator@D@2@@std@@PAVCIdvBezierSpline@@@std@@@std@@@std@@U_Iterator_base12@2@@std@@QAEAAV01@XZ 1006aea0 f i IdvSpline.obj
 0001:00069f70       ??R?$less@V?$basic_string@DU?$char_traits@D@std@@V?$allocator@D@2@@std@@@std@@QBE_NABV?$basic_string@DU?$char_traits@D@std@@V?$allocator@D@2@@1@0@Z 1006af70 f i IdvSpline.obj
 0001:00069fd0       ??Y?$basic_string@DU?$char_traits@D@std@@V?$allocator@D@2@@std@@QAEAAV01@ABV01@@Z 1006afd0 f i IdvSpline.obj
 0001:0006a030       ??Y?$basic_string@DU?$char_traits@D@std@@V?$allocator@D@2@@std@@QAEAAV01@QBD@Z 1006b030 f i IdvSpline.obj
 0001:0006a090       ??_G?$pair@$$CBV?$basic_string@DU?$char_traits@D@std@@V?$allocator@D@2@@std@@PAVCIdvBezierSpline@@@std@@QAEPAXI@Z 1006b090 f i IdvSpline.obj
 0001:0006a100       ?AddControlPoint@CIdvBezierSpline@@AAEXQAM0M@Z 1006b100 f   IdvSpline.obj
 0001:0006a4c0       ?ClearCache@CIdvBezierSpline@@SAXXZ 1006b4c0 f   IdvSpline.obj
 0001:0006a620       ?CreateEvenlySpacedPoints@CIdvBezierSpline@@AAEXI@Z 1006b620 f   IdvSpline.obj
 0001:0006ac30       ?Evaluate@CIdvBezierSpline@@QBEMM@Z 1006bc30 f   IdvSpline.obj
 0001:0006aee0       ?EvaluateRawPoint@CIdvBezierSpline@@AAE?AVCVec@@M@Z 1006bee0 f i IdvSpline.obj
 0001:0006b420       ?Parse@CIdvBezierSpline@@QAEXABV?$basic_string@DU?$char_traits@D@std@@V?$allocator@D@2@@std@@@Z 1006c420 f   IdvSpline.obj
 0001:0006b8b0       ?Save@CIdvBezierSpline@@QBE?AV?$basic_string@DU?$char_traits@D@std@@V?$allocator@D@2@@std@@XZ 1006c8b0 f   IdvSpline.obj
 0001:0006bca0       ?ScaledVariance@CIdvBezierSpline@@QBEMM@Z 1006cca0 f   IdvSpline.obj
 0001:0006be60       ?SplineInterpolate@CIdvBezierSpline@@AAE?AVCVec@@ABV2@000M@Z 1006ce60 f i IdvSpline.obj
 0001:0006c370       ?_Alloc_sentinel_and_proxy@?$_Tree@V?$_Tmap_traits@V?$basic_string@DU?$char_traits@D@std@@V?$allocator@D@2@@std@@PAVCIdvBezierSpline@@U?$less@V?$basic_string@DU?$char_traits@D@std@@V?$allocator@D@2@@std@@@2@V?$allocator@U?$pair@$$CBV?$basic_string@DU?$char_traits@D@std@@V?$allocator@D@2@@std@@PAVCIdvBezierSpline@@@std@@@2@$0A@@std@@@std@@IAEXXZ 1006d370 f i IdvSpline.obj
 0001:0006c4c0       ?_Allocate@?$_Alloc_construct_ptr@V?$allocator@U?$_Tree_node@U?$pair@$$CBV?$basic_string@DU?$char_traits@D@std@@V?$allocator@D@2@@std@@PAVCIdvBezierSpline@@@std@@PAX@std@@@std@@@std@@QAEXXZ 1006d4c0 f i IdvSpline.obj
 0001:0006c530       ?_Change_array@?$vector@VCVec@@V?$allocator@VCVec@@@std@@@std@@AAEXQAVCVec@@II@Z 1006d530 f i IdvSpline.obj
 0001:0006c630       ?_Check_grow_by_1@?$_Tree@V?$_Tmap_traits@V?$basic_string@DU?$char_traits@D@std@@V?$allocator@D@2@@std@@PAVCIdvBezierSpline@@U?$less@V?$basic_string@DU?$char_traits@D@std@@V?$allocator@D@2@@std@@@2@V?$allocator@U?$pair@$$CBV?$basic_string@DU?$char_traits@D@std@@V?$allocator@D@2@@std@@PAVCIdvBezierSpline@@@std@@@2@$0A@@std@@@std@@IAEXXZ 1006d630 f i IdvSpline.obj
 0001:0006c6a0       ?_Get_first@?$_Compressed_pair@U?$less@V?$basic_string@DU?$char_traits@D@std@@V?$allocator@D@2@@std@@@std@@V?$_Compressed_pair@V?$allocator@U?$_Tree_node@U?$pair@$$CBV?$basic_string@DU?$char_traits@D@std@@V?$allocator@D@2@@std@@PAVCIdvBezierSpline@@@std@@PAX@std@@@std@@V?$_Tree_val@U?$_Tree_simple_types@U?$pair@$$CBV?$basic_string@DU?$char_traits@D@std@@V?$allocator@D@2@@std@@PAVCIdvBezierSpline@@@std@@@std@@@2@$00@2@$00@std@@QBEABU?$less@V?$basic_string@DU?$char_traits@D@std@@V?$allocator@D@2@@std@@@2@XZ 1006d6a0 f i IdvSpline.obj
 0001:0006c6c0       ?_Get_first@?$_Compressed_pair@V?$allocator@U?$_Tree_node@U?$pair@$$CBV?$basic_string@DU?$char_traits@D@std@@V?$allocator@D@2@@std@@PAVCIdvBezierSpline@@@std@@PAX@std@@@std@@V?$_Tree_val@U?$_Tree_simple_types@U?$pair@$$CBV?$basic_string@DU?$char_traits@D@std@@V?$allocator@D@2@@std@@PAVCIdvBezierSpline@@@std@@@std@@@2@$00@std@@QAEAAV?$allocator@U?$_Tree_node@U?$pair@$$CBV?$basic_string@DU?$char_traits@D@std@@V?$allocator@D@2@@std@@PAVCIdvBezierSpline@@@std@@PAX@std@@@2@XZ 1006d6c0 f i IdvSpline.obj
 0001:0006c6e0       ?_Get_first@?$_Compressed_pair@V?$allocator@U?$_Tree_node@U?$pair@$$CBV?$basic_string@DU?$char_traits@D@std@@V?$allocator@D@2@@std@@PAVCIdvBezierSpline@@@std@@PAX@std@@@std@@V?$_Tree_val@U?$_Tree_simple_types@U?$pair@$$CBV?$basic_string@DU?$char_traits@D@std@@V?$allocator@D@2@@std@@PAVCIdvBezierSpline@@@std@@@std@@@2@$00@std@@QBEABV?$allocator@U?$_Tree_node@U?$pair@$$CBV?$basic_string@DU?$char_traits@D@std@@V?$allocator@D@2@@std@@PAVCIdvBezierSpline@@@std@@PAX@std@@@2@XZ 1006d6e0 f i IdvSpline.obj
 0001:0006c700       ?_Get_scary@?$_Tree@V?$_Tmap_traits@V?$basic_string@DU?$char_traits@D@std@@V?$allocator@D@2@@std@@PAVCIdvBezierSpline@@U?$less@V?$basic_string@DU?$char_traits@D@std@@V?$allocator@D@2@@std@@@2@V?$allocator@U?$pair@$$CBV?$basic_string@DU?$char_traits@D@std@@V?$allocator@D@2@@std@@PAVCIdvBezierSpline@@@std@@@2@$0A@@std@@@std@@IAEPAV?$_Tree_val@U?$_Tree_simple_types@U?$pair@$$CBV?$basic_string@DU?$char_traits@D@std@@V?$allocator@D@2@@std@@PAVCIdvBezierSpline@@@std@@@std@@@2@XZ 1006d700 f i IdvSpline.obj
 0001:0006c750       ?_Get_scary@?$_Tree@V?$_Tmap_traits@V?$basic_string@DU?$char_traits@D@std@@V?$allocator@D@2@@std@@PAVCIdvBezierSpline@@U?$less@V?$basic_string@DU?$char_traits@D@std@@V?$allocator@D@2@@std@@@2@V?$allocator@U?$pair@$$CBV?$basic_string@DU?$char_traits@D@std@@V?$allocator@D@2@@std@@PAVCIdvBezierSpline@@@std@@@2@$0A@@std@@@std@@IBEPBV?$_Tree_val@U?$_Tree_simple_types@U?$pair@$$CBV?$basic_string@DU?$char_traits@D@std@@V?$allocator@D@2@@std@@PAVCIdvBezierSpline@@@std@@@std@@@2@XZ 1006d750 f i IdvSpline.obj
 0001:0006c7a0       ?_Getal@?$_Tree@V?$_Tmap_traits@V?$basic_string@DU?$char_traits@D@std@@V?$allocator@D@2@@std@@PAVCIdvBezierSpline@@U?$less@V?$basic_string@DU?$char_traits@D@std@@V?$allocator@D@2@@std@@@2@V?$allocator@U?$pair@$$CBV?$basic_string@DU?$char_traits@D@std@@V?$allocator@D@2@@std@@PAVCIdvBezierSpline@@@std@@@2@$0A@@std@@@std@@IAEAAV?$allocator@U?$_Tree_node@U?$pair@$$CBV?$basic_string@DU?$char_traits@D@std@@V?$allocator@D@2@@std@@PAVCIdvBezierSpline@@@std@@PAX@std@@@2@XZ 1006d7a0 f i IdvSpline.obj
 0001:0006c7f0       ?_Getal@?$_Tree@V?$_Tmap_traits@V?$basic_string@DU?$char_traits@D@std@@V?$allocator@D@2@@std@@PAVCIdvBezierSpline@@U?$less@V?$basic_string@DU?$char_traits@D@std@@V?$allocator@D@2@@std@@@2@V?$allocator@U?$pair@$$CBV?$basic_string@DU?$char_traits@D@std@@V?$allocator@D@2@@std@@PAVCIdvBezierSpline@@@std@@@2@$0A@@std@@@std@@IBEABV?$allocator@U?$_Tree_node@U?$pair@$$CBV?$basic_string@DU?$char_traits@D@std@@V?$allocator@D@2@@std@@PAVCIdvBezierSpline@@@std@@PAX@std@@@2@XZ 1006d7f0 f i IdvSpline.obj
 0001:0006c840       ?_Getcomp@?$_Tree@V?$_Tmap_traits@V?$basic_string@DU?$char_traits@D@std@@V?$allocator@D@2@@std@@PAVCIdvBezierSpline@@U?$less@V?$basic_string@DU?$char_traits@D@std@@V?$allocator@D@2@@std@@@2@V?$allocator@U?$pair@$$CBV?$basic_string@DU?$char_traits@D@std@@V?$allocator@D@2@@std@@PAVCIdvBezierSpline@@@std@@@2@$0A@@std@@@std@@IBEABU?$less@V?$basic_string@DU?$char_traits@D@std@@V?$allocator@D@2@@std@@@2@XZ 1006d840 f i IdvSpline.obj
 0001:0006c890       ?_Insert_node@?$_Tree_val@U?$_Tree_simple_types@U?$pair@$$CBV?$basic_string@DU?$char_traits@D@std@@V?$allocator@D@2@@std@@PAVCIdvBezierSpline@@@std@@@std@@@std@@QAEPAU?$_Tree_node@U?$pair@$$CBV?$basic_string@DU?$char_traits@D@std@@V?$allocator@D@2@@std@@PAVCIdvBezierSpline@@@std@@PAX@2@U?$_Tree_id@PAU?$_Tree_node@U?$pair@$$CBV?$basic_string@DU?$char_traits@D@std@@V?$allocator@D@2@@std@@PAVCIdvBezierSpline@@@std@@PAX@std@@@2@QAU32@@Z 1006d890 f i IdvSpline.obj
 0001:0006cb50       ?_Lrotate@?$_Tree_val@U?$_Tree_simple_types@U?$pair@$$CBV?$basic_string@DU?$char_traits@D@std@@V?$allocator@D@2@@std@@PAVCIdvBezierSpline@@@std@@@std@@@std@@QAEXPAU?$_Tree_node@U?$pair@$$CBV?$basic_string@DU?$char_traits@D@std@@V?$allocator@D@2@@std@@PAVCIdvBezierSpline@@@std@@PAX@2@@Z 1006db50 f i IdvSpline.obj
 0001:0006cc20       ?_Min@?$_Tree_val@U?$_Tree_simple_types@U?$pair@$$CBV?$basic_string@DU?$char_traits@D@std@@V?$allocator@D@2@@std@@PAVCIdvBezierSpline@@@std@@@std@@@std@@SAPAU?$_Tree_node@U?$pair@$$CBV?$basic_string@DU?$char_traits@D@std@@V?$allocator@D@2@@std@@PAVCIdvBezierSpline@@@std@@PAX@2@PAU32@@Z 1006dc20 f i IdvSpline.obj
 0001:0006cc60       ?_Orphan_ptr@?$_Tree_val@U?$_Tree_simple_types@U?$pair@$$CBV?$basic_string@DU?$char_traits@D@std@@V?$allocator@D@2@@std@@PAVCIdvBezierSpline@@@std@@@std@@@std@@QAEXQAU?$_Tree_node@U?$pair@$$CBV?$basic_string@DU?$char_traits@D@std@@V?$allocator@D@2@@std@@PAVCIdvBezierSpline@@@std@@PAX@2@@Z 1006dc60 f i IdvSpline.obj
 0001:0006cd90       ?_Orphan_range@?$vector@VCVec@@V?$allocator@VCVec@@@std@@@std@@ABEXPAVCVec@@0@Z 1006dd90 f i IdvSpline.obj
 0001:0006cdf0       ?_Orphan_range_locked@?$vector@VCVec@@V?$allocator@VCVec@@@std@@@std@@ABEXPAVCVec@@0@Z 1006ddf0 f i IdvSpline.obj
 0001:0006cf00       ?_Orphan_range_unlocked@?$vector@VCVec@@V?$allocator@VCVec@@@std@@@std@@ABEXPAVCVec@@0@Z 1006df00 f i IdvSpline.obj
 0001:0006cf90       ?_Release@?$_Alloc_construct_ptr@V?$allocator@U?$_Tree_node@U?$pair@$$CBV?$basic_string@DU?$char_traits@D@std@@V?$allocator@D@2@@std@@PAVCIdvBezierSpline@@@std@@PAX@std@@@std@@@std@@QAEPAU?$_Tree_node@U?$pair@$$CBV?$basic_string@DU?$char_traits@D@std@@V?$allocator@D@2@@std@@PAVCIdvBezierSpline@@@std@@PAX@2@XZ 1006df90 f i IdvSpline.obj
 0001:0006d000       ?_Rrotate@?$_Tree_val@U?$_Tree_simple_types@U?$pair@$$CBV?$basic_string@DU?$char_traits@D@std@@V?$allocator@D@2@@std@@PAVCIdvBezierSpline@@@std@@@std@@@std@@QAEXPAU?$_Tree_node@U?$pair@$$CBV?$basic_string@DU?$char_traits@D@std@@V?$allocator@D@2@@std@@PAVCIdvBezierSpline@@@std@@PAX@2@@Z 1006e000 f i IdvSpline.obj
 0001:0006d0d0       ?_Throw_tree_length_error@std@@YAXXZ 1006e0d0 f i IdvSpline.obj
 0001:0006d120       ?_Tidy@?$vector@VCVec@@V?$allocator@VCVec@@@std@@@std@@AAEXXZ 1006e120 f i IdvSpline.obj
 0001:0006d260       ?allocate@?$allocator@U?$_Tree_node@U?$pair@$$CBV?$basic_string@DU?$char_traits@D@std@@V?$allocator@D@2@@std@@PAVCIdvBezierSpline@@@std@@PAX@std@@@std@@QAEPAU?$_Tree_node@U?$pair@$$CBV?$basic_string@DU?$char_traits@D@std@@V?$allocator@D@2@@std@@PAVCIdvBezierSpline@@@std@@PAX@2@I@Z 1006e260 f i IdvSpline.obj
 0001:0006d2c0       ?append@?$basic_string@DU?$char_traits@D@std@@V?$allocator@D@2@@std@@QAEAAV12@ABV12@@Z 1006e2c0 f i IdvSpline.obj
 0001:0006d330       ?assign@?$basic_string@DU?$char_traits@D@std@@V?$allocator@D@2@@std@@QAEAAV12@QBD@Z 1006e330 f i IdvSpline.obj
 0001:0006d3a0       ?begin@?$_Tree@V?$_Tmap_traits@V?$basic_string@DU?$char_traits@D@std@@V?$allocator@D@2@@std@@PAVCIdvBezierSpline@@U?$less@V?$basic_string@DU?$char_traits@D@std@@V?$allocator@D@2@@std@@@2@V?$allocator@U?$pair@$$CBV?$basic_string@DU?$char_traits@D@std@@V?$allocator@D@2@@std@@PAVCIdvBezierSpline@@@std@@@2@$0A@@std@@@std@@QAE?AV?$_Tree_iterator@V?$_Tree_val@U?$_Tree_simple_types@U?$pair@$$CBV?$basic_string@DU?$char_traits@D@std@@V?$allocator@D@2@@std@@PAVCIdvBezierSpline@@@std@@@std@@@std@@@2@XZ 1006e3a0 f i IdvSpline.obj
 0001:0006d410       ?clear@?$_Tree@V?$_Tmap_traits@V?$basic_string@DU?$char_traits@D@std@@V?$allocator@D@2@@std@@PAVCIdvBezierSpline@@U?$less@V?$basic_string@DU?$char_traits@D@std@@V?$allocator@D@2@@std@@@2@V?$allocator@U?$pair@$$CBV?$basic_string@DU?$char_traits@D@std@@V?$allocator@D@2@@std@@PAVCIdvBezierSpline@@@std@@@2@$0A@@std@@@std@@QAEXXZ 1006e410 f i IdvSpline.obj
 0001:0006d4d0       ?clear@?$vector@VCVec@@V?$allocator@VCVec@@@std@@@std@@QAEXXZ 1006e4d0 f i IdvSpline.obj
 0001:0006d580       ?compare@?$_Narrow_char_traits@DH@std@@SAHQBD0I@Z 1006e580 f i IdvSpline.obj
 0001:0006d5d0       ?compare@?$basic_string@DU?$char_traits@D@std@@V?$allocator@D@2@@std@@QBEHABV12@@Z 1006e5d0 f i IdvSpline.obj
 0001:0006d650       ?deallocate@?$_Default_allocator_traits@V?$allocator@U?$_Tree_node@U?$pair@$$CBV?$basic_string@DU?$char_traits@D@std@@V?$allocator@D@2@@std@@PAVCIdvBezierSpline@@@std@@PAX@std@@@std@@@std@@SAXAAV?$allocator@U?$_Tree_node@U?$pair@$$CBV?$basic_string@DU?$char_traits@D@std@@V?$allocator@D@2@@std@@PAVCIdvBezierSpline@@@std@@PAX@std@@@2@QAU?$_Tree_node@U?$pair@$$CBV?$basic_string@DU?$char_traits@D@std@@V?$allocator@D@2@@std@@PAVCIdvBezierSpline@@@std@@PAX@2@I@Z 1006e650 f i IdvSpline.obj
 0001:0006d6a0       ?deallocate@?$allocator@U?$_Tree_node@U?$pair@$$CBV?$basic_string@DU?$char_traits@D@std@@V?$allocator@D@2@@std@@PAVCIdvBezierSpline@@@std@@PAX@std@@@std@@QAEXQAU?$_Tree_node@U?$pair@$$CBV?$basic_string@DU?$char_traits@D@std@@V?$allocator@D@2@@std@@PAVCIdvBezierSpline@@@std@@PAX@2@I@Z 1006e6a0 f i IdvSpline.obj
 0001:0006d790       ?empty@?$vector@VCVec@@V?$allocator@VCVec@@@std@@@std@@QBE_NXZ 1006e790 f i IdvSpline.obj
 0001:0006d7f0       ?end@?$_Tree@V?$_Tmap_traits@V?$basic_string@DU?$char_traits@D@std@@V?$allocator@D@2@@std@@PAVCIdvBezierSpline@@U?$less@V?$basic_string@DU?$char_traits@D@std@@V?$allocator@D@2@@std@@@2@V?$allocator@U?$pair@$$CBV?$basic_string@DU?$char_traits@D@std@@V?$allocator@D@2@@std@@PAVCIdvBezierSpline@@@std@@@2@$0A@@std@@@std@@QAE?AV?$_Tree_iterator@V?$_Tree_val@U?$_Tree_simple_types@U?$pair@$$CBV?$basic_string@DU?$char_traits@D@std@@V?$allocator@D@2@@std@@PAVCIdvBezierSpline@@@std@@@std@@@std@@@2@XZ 1006e7f0 f i IdvSpline.obj
 0001:0006d860       ?max_size@?$_Default_allocator_traits@V?$allocator@U?$_Tree_node@U?$pair@$$CBV?$basic_string@DU?$char_traits@D@std@@V?$allocator@D@2@@std@@PAVCIdvBezierSpline@@@std@@PAX@std@@@std@@@std@@SAIABV?$allocator@U?$_Tree_node@U?$pair@$$CBV?$basic_string@DU?$char_traits@D@std@@V?$allocator@D@2@@std@@PAVCIdvBezierSpline@@@std@@PAX@std@@@2@@Z 1006e860 f i IdvSpline.obj
 0001:0006d880       ?max_size@?$_Tree@V?$_Tmap_traits@V?$basic_string@DU?$char_traits@D@std@@V?$allocator@D@2@@std@@PAVCIdvBezierSpline@@U?$less@V?$basic_string@DU?$char_traits@D@std@@V?$allocator@D@2@@std@@@2@V?$allocator@U?$pair@$$CBV?$basic_string@DU?$char_traits@D@std@@V?$allocator@D@2@@std@@PAVCIdvBezierSpline@@@std@@@2@$0A@@std@@@std@@QBEIXZ 1006e880 f i IdvSpline.obj
 0001:0006d910       ?pointer_to@?$pointer_traits@PAU?$pair@$$CBV?$basic_string@DU?$char_traits@D@std@@V?$allocator@D@2@@std@@PAVCIdvBezierSpline@@@std@@@std@@SAPAU?$pair@$$CBV?$basic_string@DU?$char_traits@D@std@@V?$allocator@D@2@@std@@PAVCIdvBezierSpline@@@2@AAU32@@Z 1006e910 f i IdvSpline.obj
 0001:0006d960       ?push_back@?$vector@VCVec@@V?$allocator@VCVec@@@std@@@std@@QAEX$$QAVCVec@@@Z 1006e960 f i IdvSpline.obj
 0001:0006d9c0       ?push_back@?$vector@VCVec@@V?$allocator@VCVec@@@std@@@std@@QAEXABVCVec@@@Z 1006e9c0 f i IdvSpline.obj
 0001:0006da20       ?resize@?$vector@VCVec@@V?$allocator@VCVec@@@std@@@std@@QAEXI@Z 1006ea20 f i IdvSpline.obj
 0001:0006da80       ?size@?$vector@VCVec@@V?$allocator@VCVec@@@std@@@std@@QBEIXZ 1006ea80 f i IdvSpline.obj
 0001:0006dac0       ___local_stdio_scanf_options 1006eac0 f i IdvSpline.obj
 0001:0006dae0       __vsscanf_l                1006eae0 f i IdvSpline.obj
 0001:0006db60       _sscanf                    1006eb60 f i IdvSpline.obj
 0001:0006dbd0       ??0CRegion@@QAE@XZ         1006ebd0 f   Region.obj
 0001:0006dc90       ??6@YAAAV?$basic_ostream@DU?$char_traits@D@std@@@std@@AAV01@ABVCRegion@@@Z 1006ec90 f   Region.obj
 0001:0006dd90       ??DCRegion@@QBE?AV0@ABVCTransform@@@Z 1006ed90 f   Region.obj
 0001:0006df80       ??DCRegion@@QBE?AV0@M@Z    1006ef80 f   Region.obj
 0001:0006e1f0       ??HCRegion@@QBE?AV0@ABV0@@Z 1006f1f0 f   Region.obj
 0001:0006e3f0       ??HCRegion@@QBE?AV0@ABVCVec@@@Z 1006f3f0 f   Region.obj
 0001:0006e5e0       ??MCRegion@@QBE_NABV0@@Z   1006f5e0 f   Region.obj
 0001:0006e6c0       ??TCRegion@@QBE?AV0@ABVCVec3@@@Z 1006f6c0 f   Region.obj
 0001:0006ea00       ?AverageExtent@CRegion@@QBEMXZ 1006fa00 f   Region.obj
 0001:0006ead0       ?Initialize@CRegion@@QAEXXZ 1006fad0 f   Region.obj
 0001:0006ebd0       ?IsSet@CRegion@@QBE_NXZ    1006fbd0 f   Region.obj
 0001:0006ed50       ?Midpoint@CRegion@@QBE?AVCVec@@XZ 1006fd50 f i Region.obj
 0001:0006edd0       ?Midpoint@CVec@@QBE?AV1@ABV1@@Z 1006fdd0 f i Region.obj
 0001:0006eef0       ?Scale@CRegion@@QAEXM@Z    1006fef0 f   Region.obj
 0001:0006f030       ??$?6U?$char_traits@D@std@@@std@@YAAAV?$basic_ostream@DU?$char_traits@D@std@@@0@AAV10@D@Z 10070030 f i RotTransform.obj
 0001:0006f4e0       ??6@YAAAV?$basic_ostream@DU?$char_traits@D@std@@@std@@AAV01@ABVCRotTransform@@@Z 100704e0 f   RotTransform.obj
 0001:0006f5e0       ??0CTransform@@QAE@XZ      100705e0 f   Transform.obj
 0001:0006f630       ??6@YAAAV?$basic_ostream@DU?$char_traits@D@std@@@std@@AAV01@ABVCTransform@@@Z 10070630 f   Transform.obj
 0001:0006f730       ??DCTransform@@QBE?AV0@ABV0@@Z 10070730 f   Transform.obj
 0001:0006f8d0       ??DCTransform@@QBE?AVCRegion@@ABV1@@Z 100708d0 f   Transform.obj
 0001:0006fac0       ??DCTransform@@QBE?AVCVec3@@ABV1@@Z 10070ac0 f   Transform.obj
 0001:0006fc50       ??DCTransform@@QBE?AVCVec@@ABV1@@Z 10070c50 f   Transform.obj
 0001:0006fe40       ??GCTransform@@QBE?AV0@ABV0@@Z 10070e40 f   Transform.obj
 0001:0006ff80       ??HCTransform@@QBE?AV0@ABV0@@Z 10070f80 f   Transform.obj
 0001:000700c0       ?GetSize@CVec@@QBEHXZ      100710c0 f i Transform.obj
 0001:000700f0       ?IsIdentity@CTransform@@QBE_NXZ 100710f0 f   Transform.obj
 0001:00070210       ?LoadIdentity@CTransform@@QAEXXZ 10071210 f   Transform.obj
 0001:00070460       ?LookAt@CTransform@@QAEXABVCVec@@00@Z 10071460 f   Transform.obj
 0001:000708f0       ?Rotate@CTransform@@QAEXMD@Z 100718f0 f   Transform.obj
 0001:00070cc0       ?RotateAxis@CTransform@@QAEXMVCVec@@@Z 10071cc0 f   Transform.obj
 0001:00071200       ?Scale@CTransform@@QAEXM@Z 10072200 f   Transform.obj
 0001:00071340       ?Scale@CTransform@@QAEXMMM@Z 10072340 f   Transform.obj
 0001:00071480       ?Set@CTransform@@QAEXQAY03M@Z 10072480 f   Transform.obj
 0001:00071510       ?Translate@CTransform@@QAEXMMM@Z 10072510 f   Transform.obj
 0001:00071650       ??0CVec@@QAE@H@Z           10072650 f   Vec.obj
 0001:00071710       ??0CVec@@QAE@MM@Z          10072710 f   Vec.obj
 0001:000717c0       ??0CVec@@QAE@MMM@Z         100727c0 f   Vec.obj
 0001:00071870       ??0CVec@@QAE@MMMM@Z        10072870 f   Vec.obj
 0001:00071920       ??0CVec@@QAE@MMMMM@Z       10072920 f   Vec.obj
 0001:000719d0       ??0CVec@@QAE@XZ            100729d0 f   Vec.obj
 0001:00071a80       ??1CVec@@QAE@XZ            10072a80 f   Vec.obj
 0001:00071aa0       ??6@YAAAV?$basic_ostream@DU?$char_traits@D@std@@@std@@AAV01@ABVCVec@@@Z 10072aa0 f   Vec.obj
 0001:00071b80       ??8CVec@@QBE_NABV0@@Z      10072b80 f   Vec.obj
 0001:00071c00       ??9CVec@@QBE_NABV0@@Z      10072c00 f   Vec.obj
 0001:00071cb0       ??DCVec@@QBE?AV0@ABV0@@Z   10072cb0 f   Vec.obj
 0001:00071ee0       ??DCVec@@QBE?AV0@ABVCTransform@@@Z 10072ee0 f   Vec.obj
 0001:000720d0       ??DCVec@@QBE?AV0@M@Z       100730d0 f   Vec.obj
 0001:00072220       ??GCVec@@QBE?AV0@ABV0@@Z   10073220 f   Vec.obj
 0001:000723b0       ??GCVec@@QBE?AV0@XZ        100733b0 f   Vec.obj
 0001:00072500       ??HCVec@@QBE?AV0@ABV0@@Z   10073500 f   Vec.obj
 0001:00072690       ??KCVec@@QBE?AV0@M@Z       10073690 f   Vec.obj
 0001:000727e0       ??M@YA_NABVCVec@@0@Z       100737e0 f   Vec.obj
 0001:000728a0       ??MCVec@@QBE_NABV0@@Z      100738a0 f   Vec.obj
 0001:000729e0       ??MCVec@@QBE_NABVCRegion@@@Z 100739e0 f   Vec.obj
 0001:00072c80       ??NCVec@@QBE_NABV0@@Z      10073c80 f   Vec.obj
 0001:00072ce0       ??NCVec@@QBE_NABVCRegion@@@Z 10073ce0 f   Vec.obj
 0001:00072f80       ??OCVec@@QBE_NABV0@@Z      10073f80 f   Vec.obj
 0001:000730c0       ??PCVec@@QBE_NABV0@@Z      100740c0 f   Vec.obj
 0001:00073130       ??TCVec@@QBEMABV0@@Z       10074130 f   Vec.obj
 0001:000731b0       ??XCVec@@QAEAAV0@ABV0@@Z   100741b0 f   Vec.obj
 0001:00073280       ??XCVec@@QAEAAV0@M@Z       10074280 f   Vec.obj
 0001:00073350       ??YCVec@@QAEAAV0@ABV0@@Z   10074350 f   Vec.obj
 0001:00073420       ??ZCVec@@QAEAAV0@ABV0@@Z   10074420 f   Vec.obj
 0001:000734f0       ??_0CVec@@QAEAAV0@M@Z      100744f0 f   Vec.obj
 0001:000735c0       ?AbsoluteValue@CVec@@QBE?AV1@XZ 100745c0 f   Vec.obj
 0001:00073730       ?AngleBetween@CVec@@QBEMABV1@@Z 10074730 f   Vec.obj
 0001:00073810       ?Distance@CVec@@QBEMABV1@@Z 10074810 f   Vec.obj
 0001:00073b30       ?Magnitude@CVec@@QBEMXZ    10074b30 f   Vec.obj
 0001:00073bf0       ?MaxAxis@CVec@@QBEMXZ      10074bf0 f   Vec.obj
 0001:00073c70       ?MinAxis@CVec@@QBEMXZ      10074c70 f   Vec.obj
 0001:00073cf0       ?Normalize@CVec@@QAEXXZ    10074cf0 f   Vec.obj
 0001:00073da0       ?RoughlyEqual@CVec@@QBE_NABV1@@Z 10074da0 f   Vec.obj
 0001:00073e70       ??0CLightingEngine@@QAE@XZ 10074e70 f   LightingEngine.obj
 0001:00074240       ??YCVec3@@QAEAAV0@ABV0@@Z  10075240 f i LightingEngine.obj
 0001:00074320       ?ComputeLeafStaticLighting@CLightingEngine@@QAEXABVCVec3@@PAV?$vector@PAVCBillboardLeaf@@V?$allocator@PAVCBillboardLeaf@@@std@@@std@@H@Z 10075320 f   LightingEngine.obj
 0001:00074ff0       ?ComputeStandardStaticLighting@CLightingEngine@@QAEXPBM0PAMW4EMaterial@1@@Z 10075ff0 f   LightingEngine.obj
 0001:00075bc0       ?Dot@CVec3@@QBEMABV1@@Z    10076bc0 f i LightingEngine.obj
 0001:00075c70       ?Parse@CLightingEngine@@QAEXAAVCTreeFileAccess@@@Z 10076c70 f   LightingEngine.obj
 0001:00075f20       ?Save@CLightingEngine@@QAEXAAVCTreeFileAccess@@@Z 10076f20 f   LightingEngine.obj
 0001:00076150       ?SetLightAttributes@CLightingEngine@@SAXIPBM@Z 10077150 f   LightingEngine.obj
 0001:000762e0       ??0CProjectedShadow@@QAE@XZ 100772e0 f   ProjectedShadow.obj
 0001:00076360       ??8CVec3@@QBE_NABV0@@Z     10077360 f i ProjectedShadow.obj
 0001:00076430       ?ClosestPoint@CProjectedShadow@@ABE?AVCVec3@@ABV2@00@Z 10077430 f   ProjectedShadow.obj
 0001:000765a0       ?ComputeTexCoords@CProjectedShadow@@QBEXPAVCIndexedGeometry@@VCVec3@@MPAM@Z 100775a0 f   ProjectedShadow.obj
 0001:00076b50       ?Parse@CProjectedShadow@@QAEXAAVCTreeFileAccess@@@Z 10077b50 f   ProjectedShadow.obj
 0001:00076e60       ?Save@CProjectedShadow@@QBEXAAVCTreeFileAccess@@@Z 10077e60 f   ProjectedShadow.obj
 0001:00076f70       ??0CSimpleBillboard@@QAE@XZ 10077f70 f   SimpleBillboard.obj
 0001:00076fa0       ?ComputeUnitBillboard@CSimpleBillboard@@SAXPBM@Z 10077fa0 f   SimpleBillboard.obj
 0001:000775f0       ?RotateZ@CRotTransform@@QAEXM@Z 100785f0 f i SimpleBillboard.obj
 0001:00077860       ??$?0$$V@?$_Compressed_pair@V?$allocator@PAVCSpeedTreeRT@@@std@@V?$_Vector_val@U?$_Simple_types@PAVCSpeedTreeRT@@@std@@@2@$00@std@@QAE@U_Zero_then_variadic_args_t@1@@Z 10078860 f i SpeedTreeRT.obj
 0001:000778c0       ??$?0$$V@?$_Compressed_pair@V?$allocator@USShape@@@std@@V?$_Vector_val@U?$_Simple_types@USShape@@@std@@@2@$00@std@@QAE@U_Zero_then_variadic_args_t@1@@Z 100788c0 f i SpeedTreeRT.obj
 0001:00077920       ??$?0PAVCSpeedTreeRT@@@?$allocator@U_Container_proxy@std@@@std@@QAE@ABV?$allocator@PAVCSpeedTreeRT@@@1@@Z 10078920 f i SpeedTreeRT.obj
 0001:00077950       ??$?0USShape@@@?$allocator@U_Container_proxy@std@@@std@@QAE@ABV?$allocator@USShape@@@1@@Z 10078950 f i SpeedTreeRT.obj
 0001:00077980       ??$_Adl_verify_range@V?$_Vector_iterator@V?$_Vector_val@U?$_Simple_types@PAVCSpeedTreeRT@@@std@@@std@@@std@@V12@@std@@YAXABV?$_Vector_iterator@V?$_Vector_val@U?$_Simple_types@PAVCSpeedTreeRT@@@std@@@std@@@0@0@Z 10078980 f i SpeedTreeRT.obj
 0001:000779d0       ??$_Allocate_at_least_helper@V?$allocator@PAVCSpeedTreeRT@@@std@@@std@@YAPAPAVCSpeedTreeRT@@AAV?$allocator@PAVCSpeedTreeRT@@@0@AAI@Z 100789d0 f i SpeedTreeRT.obj
 0001:00077a20       ??$_Allocate_at_least_helper@V?$allocator@USShape@@@std@@@std@@YAPAUSShape@@AAV?$allocator@USShape@@@0@AAI@Z 10078a20 f i SpeedTreeRT.obj
 0001:00077a70       ??$_Assign_counted_range@PAUSShape@@@?$vector@USShape@@V?$allocator@USShape@@@std@@@std@@AAEXPAUSShape@@I@Z 10078a70 f i SpeedTreeRT.obj
 0001:00077cc0       ??$_Construct_in_place@PAVCSpeedTreeRT@@PAV1@@std@@YAXAAPAVCSpeedTreeRT@@$$QAPAV1@@Z 10078cc0 f i SpeedTreeRT.obj
 0001:00077d40       ??$_Construct_in_place@USShape@@ABU1@@std@@YAXAAUSShape@@ABU1@@Z 10078d40 f i SpeedTreeRT.obj
 0001:00077dc0       ??$_Copy_memmove@PAPAVCSpeedTreeRT@@PAPAV1@@std@@YAPAPAVCSpeedTreeRT@@PAPAV1@00@Z 10078dc0 f i SpeedTreeRT.obj
 0001:00077e80       ??$_Copy_memmove@PAUSShape@@PAU1@@std@@YAPAUSShape@@PAU1@00@Z 10078e80 f i SpeedTreeRT.obj
 0001:00077f40       ??$_Copy_memmove_n@PAUSShape@@PAU1@@std@@YAPAUSShape@@PAU1@I0@Z 10078f40 f i SpeedTreeRT.obj
 0001:00077fa0       ??$_Copy_n_unchecked4@PAUSShape@@IPAU1@@std@@YAPAUSShape@@PAU1@I0@Z 10078fa0 f i SpeedTreeRT.obj
 0001:00078040       ??$_Could_compare_equal_to_value_type@PAPAVCSpeedTreeRT@@PAV1@@std@@YA_NABQAVCSpeedTreeRT@@@Z 10079040 f i SpeedTreeRT.obj
 0001:00078060       ??$_Destroy_range@V?$allocator@PAVCSpeedTreeRT@@@std@@@std@@YAXPAPAVCSpeedTreeRT@@QAPAV1@AAV?$allocator@PAVCSpeedTreeRT@@@0@@Z 10079060 f i SpeedTreeRT.obj
 0001:00078080       ??$_Destroy_range@V?$allocator@USShape@@@std@@@std@@YAXPAUSShape@@QAU1@AAV?$allocator@USShape@@@0@@Z 10079080 f i SpeedTreeRT.obj
 0001:000780a0       ??$_Emplace_back@AAUSShape@@@?$_Uninitialized_backout_al@V?$allocator@USShape@@@std@@@std@@QAEXAAUSShape@@@Z 100790a0 f i SpeedTreeRT.obj
 0001:00078130       ??$_Emplace_back@PAVCSpeedTreeRT@@@?$_Uninitialized_backout_al@V?$allocator@PAVCSpeedTreeRT@@@std@@@std@@QAEX$$QAPAVCSpeedTreeRT@@@Z 10079130 f i SpeedTreeRT.obj
 0001:000781c0       ??$_Emplace_back@USShape@@@?$_Uninitialized_backout_al@V?$allocator@USShape@@@std@@@std@@QAEX$$QAUSShape@@@Z 100791c0 f i SpeedTreeRT.obj
 0001:00078250       ??$_Emplace_back_with_unused_capacity@ABUSShape@@@?$vector@USShape@@V?$allocator@USShape@@@std@@@std@@AAEAAUSShape@@ABU2@@Z 10079250 f i SpeedTreeRT.obj
 0001:00078300       ??$_Emplace_back_with_unused_capacity@PAVCSpeedTreeRT@@@?$vector@PAVCSpeedTreeRT@@V?$allocator@PAVCSpeedTreeRT@@@std@@@std@@AAEAAPAVCSpeedTreeRT@@$$QAPAV2@@Z 10079300 f i SpeedTreeRT.obj
 0001:000783b0       ??$_Emplace_one_at_back@ABUSShape@@@?$vector@USShape@@V?$allocator@USShape@@@std@@@std@@AAEAAUSShape@@ABU2@@Z 100793b0 f i SpeedTreeRT.obj
 0001:00078460       ??$_Emplace_one_at_back@PAVCSpeedTreeRT@@@?$vector@PAVCSpeedTreeRT@@V?$allocator@PAVCSpeedTreeRT@@@std@@@std@@AAEAAPAVCSpeedTreeRT@@$$QAPAV2@@Z 10079460 f i SpeedTreeRT.obj
 0001:00078510       ??$_Emplace_reallocate@ABUSShape@@@?$vector@USShape@@V?$allocator@USShape@@@std@@@std@@AAEPAUSShape@@QAU2@ABU2@@Z 10079510 f i SpeedTreeRT.obj
 0001:00078830       ??$_Emplace_reallocate@PAVCSpeedTreeRT@@@?$vector@PAVCSpeedTreeRT@@V?$allocator@PAVCSpeedTreeRT@@@std@@@std@@AAEPAPAVCSpeedTreeRT@@QAPAV2@$$QAPAV2@@Z 10079830 f i SpeedTreeRT.obj
 0001:00078b50       ??$_Find_unchecked@PAPAVCSpeedTreeRT@@PAV1@@std@@YAPAPAVCSpeedTreeRT@@PAPAV1@QAPAV1@ABQAV1@@Z 10079b50 f i SpeedTreeRT.obj
 0001:00078c20       ??$_Get_size_of_n@$0BM@@std@@YAII@Z 10079c20 f i SpeedTreeRT.obj
 0001:00078c80       ??$_Get_unwrapped@AAV?$_Vector_iterator@V?$_Vector_val@U?$_Simple_types@PAVCSpeedTreeRT@@@std@@@std@@@std@@@std@@YA?A_TAAV?$_Vector_iterator@V?$_Vector_val@U?$_Simple_types@PAVCSpeedTreeRT@@@std@@@std@@@0@@Z 10079c80 f i SpeedTreeRT.obj
 0001:00078cc0       ??$_Get_unwrapped@ABQAPAVCSpeedTreeRT@@@std@@YA?A_TABQAPAVCSpeedTreeRT@@@Z 10079cc0 f i SpeedTreeRT.obj
 0001:00078ce0       ??$_Get_unwrapped@ABQAUSShape@@@std@@YA?A_TABQAUSShape@@@Z 10079ce0 f i SpeedTreeRT.obj
 0001:00078d00       ??$_Get_unwrapped@ABV?$_Vector_iterator@V?$_Vector_val@U?$_Simple_types@PAVCSpeedTreeRT@@@std@@@std@@@std@@@std@@YA?A_TABV?$_Vector_iterator@V?$_Vector_val@U?$_Simple_types@PAVCSpeedTreeRT@@@std@@@std@@@0@@Z 10079d00 f i SpeedTreeRT.obj
 0001:00078d40       ??$_Get_unwrapped@PAUSShape@@@std@@YA?A_T$$QAPAUSShape@@@Z 10079d40 f i SpeedTreeRT.obj
 0001:00078d60       ??$_Move_unchecked@PAPAVCSpeedTreeRT@@PAPAV1@@std@@YAPAPAVCSpeedTreeRT@@PAPAV1@00@Z 10079d60 f i SpeedTreeRT.obj
 0001:00078e00       ??$_Pocca@V?$allocator@USShape@@@std@@@std@@YAXAAV?$allocator@USShape@@@0@ABV10@@Z 10079e00 f i SpeedTreeRT.obj
 0001:00078e20       ??$_Refancy_maybe_null@PAPAVCSpeedTreeRT@@$0A@@std@@YAPAPAVCSpeedTreeRT@@PAPAV1@@Z 10079e20 f i SpeedTreeRT.obj
 0001:00078e40       ??$_Seek_wrapped@V?$_Vector_iterator@V?$_Vector_val@U?$_Simple_types@PAVCSpeedTreeRT@@@std@@@std@@@std@@PAPAVCSpeedTreeRT@@@std@@YAXAAV?$_Vector_iterator@V?$_Vector_val@U?$_Simple_types@PAVCSpeedTreeRT@@@std@@@std@@@0@$$QAPAPAVCSpeedTreeRT@@@Z 10079e40 f i SpeedTreeRT.obj
 0001:00078ea0       ??$_To_address@PAPAVCSpeedTreeRT@@@std@@YA?A_PABQAPAVCSpeedTreeRT@@@Z 10079ea0 f i SpeedTreeRT.obj
 0001:00078ec0       ??$_To_address@PAUSShape@@@std@@YA?A_PABQAUSShape@@@Z 10079ec0 f i SpeedTreeRT.obj
 0001:00078ee0       ??$_Unfancy@PAVCSpeedTreeRT@@@std@@YAPAPAVCSpeedTreeRT@@PAPAV1@@Z 10079ee0 f i SpeedTreeRT.obj
 0001:00078f00       ??$_Unfancy@USShape@@@std@@YAPAUSShape@@PAU1@@Z 10079f00 f i SpeedTreeRT.obj
 0001:00078f20       ??$_Unfancy_maybe_null@PAVCSpeedTreeRT@@@std@@YAPAPAVCSpeedTreeRT@@PAPAV1@@Z 10079f20 f i SpeedTreeRT.obj
 0001:00078f40       ??$_Uninitialized_copy_n@PAUSShape@@V?$allocator@USShape@@@std@@@std@@YAPAUSShape@@PAU1@I0AAV?$allocator@USShape@@@0@@Z 10079f40 f i SpeedTreeRT.obj
 0001:000790d0       ??$_Uninitialized_move@PAPAVCSpeedTreeRT@@V?$allocator@PAVCSpeedTreeRT@@@std@@@std@@YAPAPAVCSpeedTreeRT@@QAPAV1@0PAPAV1@AAV?$allocator@PAVCSpeedTreeRT@@@0@@Z 1007a0d0 f i SpeedTreeRT.obj
 0001:00079260       ??$_Uninitialized_move@PAUSShape@@V?$allocator@USShape@@@std@@@std@@YAPAUSShape@@QAU1@0PAU1@AAV?$allocator@USShape@@@0@@Z 1007a260 f i SpeedTreeRT.obj
 0001:000793f0       ??$__std_find_trivial@PAVCSpeedTreeRT@@I@std@@YAPAPAVCSpeedTreeRT@@QAPAV1@0I@Z 1007a3f0 f i SpeedTreeRT.obj
 0001:00079440       ??$__std_find_trivial@PAVCSpeedTreeRT@@PAV1@@std@@YAPAPAVCSpeedTreeRT@@QAPAV1@0QAV1@@Z 1007a440 f i SpeedTreeRT.obj
 0001:00079490       ??$addressof@$$CBV?$vector@USShape@@V?$allocator@USShape@@@std@@@std@@@std@@YAPBV?$vector@USShape@@V?$allocator@USShape@@@std@@@0@ABV10@@Z 1007a490 f i SpeedTreeRT.obj
 0001:000794b0       ??$addressof@PAVCSpeedTreeRT@@@std@@YAPAPAVCSpeedTreeRT@@AAPAV1@@Z 1007a4b0 f i SpeedTreeRT.obj
 0001:000794d0       ??$addressof@USShape@@@std@@YAPAUSShape@@AAU1@@Z 1007a4d0 f i SpeedTreeRT.obj
 0001:000794f0       ??$addressof@V?$_Vector_val@U?$_Simple_types@PAVCSpeedTreeRT@@@std@@@std@@@std@@YAPAV?$_Vector_val@U?$_Simple_types@PAVCSpeedTreeRT@@@std@@@0@AAV10@@Z 1007a4f0 f i SpeedTreeRT.obj
 0001:00079510       ??$addressof@V?$_Vector_val@U?$_Simple_types@USShape@@@std@@@std@@@std@@YAPAV?$_Vector_val@U?$_Simple_types@USShape@@@std@@@0@AAV10@@Z 1007a510 f i SpeedTreeRT.obj
 0001:00079530       ??$construct@PAVCSpeedTreeRT@@PAV1@@?$_Default_allocator_traits@V?$allocator@PAVCSpeedTreeRT@@@std@@@std@@SAXAAV?$allocator@PAVCSpeedTreeRT@@@1@QAPAVCSpeedTreeRT@@$$QAPAV3@@Z 1007a530 f i SpeedTreeRT.obj
 0001:000795a0       ??$construct@USShape@@AAU1@@?$_Default_allocator_traits@V?$allocator@USShape@@@std@@@std@@SAXAAV?$allocator@USShape@@@1@QAUSShape@@AAU3@@Z 1007a5a0 f i SpeedTreeRT.obj
 0001:00079620       ??$construct@USShape@@ABU1@@?$_Default_allocator_traits@V?$allocator@USShape@@@std@@@std@@SAXAAV?$allocator@USShape@@@1@QAUSShape@@ABU3@@Z 1007a620 f i SpeedTreeRT.obj
 0001:000796a0       ??$construct@USShape@@U1@@?$_Default_allocator_traits@V?$allocator@USShape@@@std@@@std@@SAXAAV?$allocator@USShape@@@1@QAUSShape@@$$QAU3@@Z 1007a6a0 f i SpeedTreeRT.obj
 0001:00079720       ??$destroy@PAVCSpeedTreeRT@@@?$_Default_allocator_traits@V?$allocator@PAVCSpeedTreeRT@@@std@@@std@@SAXAAV?$allocator@PAVCSpeedTreeRT@@@1@QAPAVCSpeedTreeRT@@@Z 1007a720 f i SpeedTreeRT.obj
 0001:00079740       ??$find@V?$_Vector_iterator@V?$_Vector_val@U?$_Simple_types@PAVCSpeedTreeRT@@@std@@@std@@@std@@PAVCSpeedTreeRT@@@std@@YA?AV?$_Vector_iterator@V?$_Vector_val@U?$_Simple_types@PAVCSpeedTreeRT@@@std@@@std@@@0@V10@V10@ABQAVCSpeedTreeRT@@@Z 1007a740 f i SpeedTreeRT.obj
 0001:000798a0       ??$forward@AAUSShape@@@std@@YAAAUSShape@@AAU1@@Z 1007a8a0 f i SpeedTreeRT.obj
 0001:000798c0       ??$forward@ABUSShape@@@std@@YAABUSShape@@ABU1@@Z 1007a8c0 f i SpeedTreeRT.obj
 0001:000798e0       ??$forward@PAPAVCSpeedTreeRT@@@std@@YA$$QAPAPAVCSpeedTreeRT@@AAPAPAV1@@Z 1007a8e0 f i SpeedTreeRT.obj
 0001:00079900       ??$forward@PAVCSpeedTreeRT@@@std@@YA$$QAPAVCSpeedTreeRT@@AAPAV1@@Z 1007a900 f i SpeedTreeRT.obj
 0001:00079920       ??$forward@USShape@@@std@@YA$$QAUSShape@@AAU1@@Z 1007a920 f i SpeedTreeRT.obj
 0001:00079940       ??$move@AAPAUSShape@@@std@@YA$$QAPAUSShape@@AAPAU1@@Z 1007a940 f i SpeedTreeRT.obj
 0001:00079960       ??$move@AAPAVCSpeedTreeRT@@@std@@YA$$QAPAVCSpeedTreeRT@@AAPAV1@@Z 1007a960 f i SpeedTreeRT.obj
 0001:00079980       ??$move@AAUSShape@@@std@@YA$$QAUSShape@@AAU1@@Z 1007a980 f i SpeedTreeRT.obj
 0001:000799a0       ??0?$_Uninitialized_backout_al@V?$allocator@PAVCSpeedTreeRT@@@std@@@std@@QAE@PAPAVCSpeedTreeRT@@AAV?$allocator@PAVCSpeedTreeRT@@@1@@Z 1007a9a0 f i SpeedTreeRT.obj
 0001:000799f0       ??0?$_Uninitialized_backout_al@V?$allocator@USShape@@@std@@@std@@QAE@PAUSShape@@AAV?$allocator@USShape@@@1@@Z 1007a9f0 f i SpeedTreeRT.obj
 0001:00079a40       ??0?$_Vector_const_iterator@V?$_Vector_val@U?$_Simple_types@PAVCSpeedTreeRT@@@std@@@std@@@std@@QAE@$$QAV01@@Z 1007aa40 f i SpeedTreeRT.obj
 0001:00079ab0       ??0?$_Vector_const_iterator@V?$_Vector_val@U?$_Simple_types@PAVCSpeedTreeRT@@@std@@@std@@@std@@QAE@ABV01@@Z 1007aab0 f i SpeedTreeRT.obj
 0001:00079b20       ??0?$_Vector_const_iterator@V?$_Vector_val@U?$_Simple_types@PAVCSpeedTreeRT@@@std@@@std@@@std@@QAE@PAPAVCSpeedTreeRT@@PBU_Container_base12@1@@Z 1007ab20 f i SpeedTreeRT.obj
 0001:00079b90       ??0?$_Vector_const_iterator@V?$_Vector_val@U?$_Simple_types@USShape@@@std@@@std@@@std@@QAE@PAUSShape@@PBU_Container_base12@1@@Z 1007ab90 f i SpeedTreeRT.obj
 0001:00079c00       ??0?$_Vector_iterator@V?$_Vector_val@U?$_Simple_types@PAVCSpeedTreeRT@@@std@@@std@@@std@@QAE@$$QAV01@@Z 1007ac00 f i SpeedTreeRT.obj
 0001:00079c60       ??0?$_Vector_iterator@V?$_Vector_val@U?$_Simple_types@PAVCSpeedTreeRT@@@std@@@std@@@std@@QAE@PAPAVCSpeedTreeRT@@PBU_Container_base12@1@@Z 1007ac60 f i SpeedTreeRT.obj
 0001:00079cc0       ??0?$_Vector_iterator@V?$_Vector_val@U?$_Simple_types@USShape@@@std@@@std@@@std@@QAE@PAUSShape@@PBU_Container_base12@1@@Z 1007acc0 f i SpeedTreeRT.obj
 0001:00079d20       ??0?$_Vector_val@U?$_Simple_types@PAVCSpeedTreeRT@@@std@@@std@@QAE@XZ 1007ad20 f i SpeedTreeRT.obj
 0001:00079da0       ??0?$_Vector_val@U?$_Simple_types@USShape@@@std@@@std@@QAE@XZ 1007ada0 f i SpeedTreeRT.obj
 0001:00079e20       ??0?$allocator@PAVCSpeedTreeRT@@@std@@QAE@XZ 1007ae20 f i SpeedTreeRT.obj
 0001:00079e40       ??0?$allocator@USShape@@@std@@QAE@XZ 1007ae40 f i SpeedTreeRT.obj
 0001:00079e60       ??0?$vector@PAVCSpeedTreeRT@@V?$allocator@PAVCSpeedTreeRT@@@std@@@std@@QAE@XZ 1007ae60 f i SpeedTreeRT.obj
 0001:00079f20       ??0?$vector@USShape@@V?$allocator@USShape@@@std@@@std@@QAE@XZ 1007af20 f i SpeedTreeRT.obj
 0001:00079fe0       ??0CIdvFilename@@QAE@PBD@Z 1007afe0 f i SpeedTreeRT.obj
 0001:0007a040       ??0CSpeedTreeRT@@AAE@PBV0@@Z 1007b040 f   SpeedTreeRT.obj
 0001:0007a7c0       ??0CSpeedTreeRT@@QAE@XZ    1007b7c0 f   SpeedTreeRT.obj
 0001:0007b1c0       ??0CTreeFileAccess@@QAE@PBEH@Z 1007c1c0 f i SpeedTreeRT.obj
 0001:0007b2c0       ??0CTreeFileAccess@@QAE@XZ 1007c2c0 f i SpeedTreeRT.obj
 0001:0007b320       ??0SBillboard@SGeometry@CSpeedTreeRT@@QAE@XZ 1007c320 f   SpeedTreeRT.obj
 0001:0007b380       ??0SCollisionObjects@@QAE@XZ 1007c380 f i SpeedTreeRT.obj
 0001:0007b3d0       ??0SEmbeddedTexCoords@@QAE@XZ 1007c3d0 f i SpeedTreeRT.obj
 0001:0007b550       ??0SGeometry@CSpeedTreeRT@@QAE@XZ 1007c550 f   SpeedTreeRT.obj
 0001:0007b690       ??0SIndexed@SGeometry@CSpeedTreeRT@@QAE@XZ 1007c690 f   SpeedTreeRT.obj
 0001:0007b760       ??0SInstanceList@@QAE@XZ   1007c760 f i SpeedTreeRT.obj
 0001:0007b7b0       ??0SLeaf@SGeometry@CSpeedTreeRT@@QAE@XZ 1007c7b0 f   SpeedTreeRT.obj
 0001:0007b890       ??0SShape@@QAE@XZ          1007c890 f i SpeedTreeRT.obj
 0001:0007b950       ??0STextures@CSpeedTreeRT@@QAE@XZ 1007c950 f   SpeedTreeRT.obj
 0001:0007b9d0       ??0STreeInstanceData@@QAE@XZ 1007c9d0 f i SpeedTreeRT.obj
 0001:0007ba50       ??1?$_Uninitialized_backout_al@V?$allocator@PAVCSpeedTreeRT@@@std@@@std@@QAE@XZ 1007ca50 f i SpeedTreeRT.obj
 0001:0007bac0       ??1?$_Uninitialized_backout_al@V?$allocator@USShape@@@std@@@std@@QAE@XZ 1007cac0 f i SpeedTreeRT.obj
 0001:0007bb30       ??1?$_Vector_const_iterator@V?$_Vector_val@U?$_Simple_types@PAVCSpeedTreeRT@@@std@@@std@@@std@@QAE@XZ 1007cb30 f i SpeedTreeRT.obj
 0001:0007bb80       ??1?$_Vector_const_iterator@V?$_Vector_val@U?$_Simple_types@USShape@@@std@@@std@@@std@@QAE@XZ 1007cb80 f i SpeedTreeRT.obj
 0001:0007bbd0       ??1?$_Vector_iterator@V?$_Vector_val@U?$_Simple_types@PAVCSpeedTreeRT@@@std@@@std@@@std@@QAE@XZ 1007cbd0 f i SpeedTreeRT.obj
 0001:0007bc20       ??1?$_Vector_iterator@V?$_Vector_val@U?$_Simple_types@USShape@@@std@@@std@@@std@@QAE@XZ 1007cc20 f i SpeedTreeRT.obj
 0001:0007bc70       ??1?$vector@PAVCSpeedTreeRT@@V?$allocator@PAVCSpeedTreeRT@@@std@@@std@@QAE@XZ 1007cc70 f i SpeedTreeRT.obj
 0001:0007bd50       ??1?$vector@USShape@@V?$allocator@USShape@@@std@@@std@@QAE@XZ 1007cd50 f i SpeedTreeRT.obj
 0001:0007be30       ??1CProjectedShadow@@QAE@XZ 1007ce30 f i SpeedTreeRT.obj
 0001:0007be80       ??1CSpeedTreeRT@@QAE@XZ    1007ce80 f   SpeedTreeRT.obj
 0001:0007c7d0       ??1CTreeFileAccess@@QAE@XZ 1007d7d0 f i SpeedTreeRT.obj
 0001:0007c820       ??1SBillboard@SGeometry@CSpeedTreeRT@@QAE@XZ 1007d820 f   SpeedTreeRT.obj
 0001:0007c860       ??1SCollisionObjects@@QAE@XZ 1007d860 f i SpeedTreeRT.obj
 0001:0007c8b0       ??1SEmbeddedTexCoords@@QAE@XZ 1007d8b0 f i SpeedTreeRT.obj
 0001:0007c990       ??1SGeometry@CSpeedTreeRT@@QAE@XZ 1007d990 f   SpeedTreeRT.obj
 0001:0007ca40       ??1SIndexed@SGeometry@CSpeedTreeRT@@QAE@XZ 1007da40 f   SpeedTreeRT.obj
 0001:0007caf0       ??1SInstanceList@@QAE@XZ   1007daf0 f i SpeedTreeRT.obj
 0001:0007cb40       ??1SLeaf@SGeometry@CSpeedTreeRT@@QAE@XZ 1007db40 f   SpeedTreeRT.obj
 0001:0007cbf0       ??1STextures@CSpeedTreeRT@@QAE@XZ 1007dbf0 f   SpeedTreeRT.obj
 0001:0007ccc0       ??2CSpeedTreeRT@@SAPAXI@Z  1007dcc0 f   SpeedTreeRT.obj
 0001:0007cd10       ??3CSpeedTreeRT@@SAXPAX@Z  1007dd10 f   SpeedTreeRT.obj
 0001:0007cd60       ??4?$vector@USShape@@V?$allocator@USShape@@@std@@@std@@QAEAAV01@ABV01@@Z 1007dd60 f i SpeedTreeRT.obj
 0001:0007ce30       ??4CProjectedShadow@@QAEAAV0@ABV0@@Z 1007de30 f i SpeedTreeRT.obj
 0001:0007cef0       ??4SCollisionObjects@@QAEAAU0@ABU0@@Z 1007def0 f i SpeedTreeRT.obj
 0001:0007cf50       ??4SEmbeddedTexCoords@@QAEABU0@ABU0@@Z 1007df50 f i SpeedTreeRT.obj
 0001:0007d170       ??8?$_Vector_const_iterator@V?$_Vector_val@U?$_Simple_types@PAVCSpeedTreeRT@@@std@@@std@@@std@@QBE_NABV01@@Z 1007e170 f i SpeedTreeRT.obj
 0001:0007d200       ??8?$_Vector_const_iterator@V?$_Vector_val@U?$_Simple_types@USShape@@@std@@@std@@@std@@QBE_NABV01@@Z 1007e200 f i SpeedTreeRT.obj
 0001:0007d290       ??9?$_Vector_const_iterator@V?$_Vector_val@U?$_Simple_types@PAVCSpeedTreeRT@@@std@@@std@@@std@@QBE_NABV01@@Z 1007e290 f i SpeedTreeRT.obj
 0001:0007d310       ??9?$_Vector_const_iterator@V?$_Vector_val@U?$_Simple_types@USShape@@@std@@@std@@@std@@QBE_NABV01@@Z 1007e310 f i SpeedTreeRT.obj
 0001:0007d390       ??9CVec3@@QBE_NABV0@@Z     1007e390 f i SpeedTreeRT.obj
 0001:0007d460       ??A?$vector@EV?$allocator@E@std@@@std@@QBEABEI@Z 1007e460 f i SpeedTreeRT.obj
 0001:0007d550       ??A?$vector@KV?$allocator@K@std@@@std@@QBEABKI@Z 1007e550 f i SpeedTreeRT.obj
 0001:0007d640       ??A?$vector@USShape@@V?$allocator@USShape@@@std@@@std@@QAEAAUSShape@@I@Z 1007e640 f i SpeedTreeRT.obj
 0001:0007d740       ??C?$_Vector_iterator@V?$_Vector_val@U?$_Simple_types@USShape@@@std@@@std@@@std@@QBEPAUSShape@@XZ 1007e740 f i SpeedTreeRT.obj
 0001:0007d940       ??D?$_Vector_const_iterator@V?$_Vector_val@U?$_Simple_types@PAVCSpeedTreeRT@@@std@@@std@@@std@@QBEABQAVCSpeedTreeRT@@XZ 1007e940 f i SpeedTreeRT.obj
 0001:0007db30       ??D?$_Vector_iterator@V?$_Vector_val@U?$_Simple_types@PAVCSpeedTreeRT@@@std@@@std@@@std@@QBEAAPAVCSpeedTreeRT@@XZ 1007eb30 f i SpeedTreeRT.obj
 0001:0007db80       ??E?$_Vector_const_iterator@V?$_Vector_val@U?$_Simple_types@PAVCSpeedTreeRT@@@std@@@std@@@std@@QAEAAV01@XZ 1007eb80 f i SpeedTreeRT.obj
 0001:0007dd70       ??E?$_Vector_const_iterator@V?$_Vector_val@U?$_Simple_types@USShape@@@std@@@std@@@std@@QAEAAV01@XZ 1007ed70 f i SpeedTreeRT.obj
 0001:0007df60       ??E?$_Vector_iterator@V?$_Vector_val@U?$_Simple_types@PAVCSpeedTreeRT@@@std@@@std@@@std@@QAEAAV01@XZ 1007ef60 f i SpeedTreeRT.obj
 0001:0007dfb0       ??E?$_Vector_iterator@V?$_Vector_val@U?$_Simple_types@USShape@@@std@@@std@@@std@@QAEAAV01@XZ 1007efb0 f i SpeedTreeRT.obj
 0001:0007e000       ??GCVec3@@QBE?AV0@XZ       1007f000 f i SpeedTreeRT.obj
 0001:0007e0c0       ??_GCFrondEngine@@QAEPAXI@Z 1007f0c0 f i SpeedTreeRT.obj
 0001:0007e130       ??_GCIndexedGeometry@@QAEPAXI@Z 1007f130 f i SpeedTreeRT.obj
 0001:0007e1b0       ??_GCLeafGeometry@@QAEPAXI@Z 1007f1b0 f i SpeedTreeRT.obj
 0001:0007e220       ??_GCProjectedShadow@@QAEPAXI@Z 1007f220 f i SpeedTreeRT.obj
 0001:0007e290       ??_GSCollisionObjects@@QAEPAXI@Z 1007f290 f i SpeedTreeRT.obj
 0001:0007e300       ??_GSEmbeddedTexCoords@@QAEPAXI@Z 1007f300 f i SpeedTreeRT.obj
 0001:0007e370       ??_GSInstanceList@@QAEPAXI@Z 1007f370 f i SpeedTreeRT.obj
 0001:0007e3e0       ??_UCSpeedTreeRT@@SAPAXI@Z 1007f3e0 f   SpeedTreeRT.obj
 0001:0007e440       ??_VCSpeedTreeRT@@SAXPAX@Z 1007f440 f   SpeedTreeRT.obj
 0001:0007e4a0       ?Authorize@CSpeedTreeRT@@SAXPBD@Z 1007f4a0 f   SpeedTreeRT.obj
 0001:0007e4f0       ?Clone@CSpeedTreeRT@@QBEPAV1@MMMI@Z 1007f4f0 f   SpeedTreeRT.obj
 0001:0007ef40       ?Compute@CSpeedTreeRT@@QAE_NPBMI_N@Z 1007ff40 f   SpeedTreeRT.obj
 0001:0007fa70       ?ComputeAzimuth@@YAMPBM@Z  10080a70 f i SpeedTreeRT.obj
 0001:0007fb80       ?ComputeLeafStaticLighting@CSpeedTreeRT@@AAEXXZ 10080b80 f   SpeedTreeRT.obj
 0001:0007fed0       ?ComputeLodLevel@CSpeedTreeRT@@QAEXXZ 10080ed0 f   SpeedTreeRT.obj
 0001:000801e0       ?ComputeSelfShadowTexCoords@CSpeedTreeRT@@AAEXXZ 100811e0 f   SpeedTreeRT.obj
 0001:00080540       ?ComputeWindEffects@CSpeedTreeRT@@QAEX_N00@Z 10081540 f   SpeedTreeRT.obj
 0001:00080b80       ?CopyUserData@CSpeedTreeRT@@CAPADPBD@Z 10081b80 f   SpeedTreeRT.obj
 0001:00080c20       ?DeleteBranchGeometry@CSpeedTreeRT@@QAEXXZ 10081c20 f   SpeedTreeRT.obj
 0001:00080ea0       ?DeleteFrondGeometry@CSpeedTreeRT@@QAEXXZ 10081ea0 f   SpeedTreeRT.obj
 0001:00081130       ?DeleteTransientData@CSpeedTreeRT@@QAEXXZ 10082130 f   SpeedTreeRT.obj
 0001:000811b0       ?EnableManualLighting@CIndexedGeometry@@QAEX_N@Z 100821b0 f i SpeedTreeRT.obj
 0001:000811e0       ?EnableManualLighting@CLeafGeometry@@QAEX_N@Z 100821e0 f i SpeedTreeRT.obj
 0001:00081210       ?EnableVertexWeighting@CIndexedGeometry@@QAEX_N@Z 10082210 f i SpeedTreeRT.obj
 0001:00081240       ?EnableVertexWeighting@CLeafGeometry@@QAEX_N@Z 10082240 f i SpeedTreeRT.obj
 0001:00081270       ?Get360BillboardGeometry@CSpeedTreeRT@@AAEXAAUSGeometry@1@K@Z 10082270 f   SpeedTreeRT.obj
 0001:000818b0       ?GetAllLeaves@CTreeEngine@@QBEPAV?$vector@PAVCBillboardLeaf@@V?$allocator@PAVCBillboardLeaf@@@std@@@std@@XZ 100828b0 f i SpeedTreeRT.obj
 0001:000818e0       ?GetBillboardCoords@CSimpleBillboard@@QAEPBMMM@Z 100828e0 f i SpeedTreeRT.obj
 0001:00081cf0       ?GetBoundingBox@CSpeedTreeRT@@QBEXPAM@Z 10082cf0 f   SpeedTreeRT.obj
 0001:00081d70       ?GetBranchGeometry@CSpeedTreeRT@@AAEXAAUSGeometry@1@F@Z 10082d70 f   SpeedTreeRT.obj
 0001:00082190       ?GetBranchLevelForWeighting@CTreeEngine@@QAEHXZ 10083190 f i SpeedTreeRT.obj
 0001:000821c0       ?GetBranchLightingMethod@CSpeedTreeRT@@QBE?AW4ELightingMethod@1@XZ 100831c0 f   SpeedTreeRT.obj
 0001:00082210       ?GetBranchMaterial@CLightingEngine@@QBEPBMXZ 10083210 f i SpeedTreeRT.obj
 0001:00082240       ?GetBranchMaterial@CSpeedTreeRT@@QBEPBMXZ 10083240 f   SpeedTreeRT.obj
 0001:00082290       ?GetBranchTextureFilename@CTreeEngine@@QBEABVCIdvFilename@@XZ 10083290 f i SpeedTreeRT.obj
 0001:000822c0       ?GetBranchTriangleCount@CSpeedTreeRT@@QBEIM@Z 100832c0 f   SpeedTreeRT.obj
 0001:00082530       ?GetBranchWindMethod@CSpeedTreeRT@@QBE?AW4EWindMethod@1@XZ 10083530 f   SpeedTreeRT.obj
 0001:00082580       ?GetBranchWindMethod@CWindEngine@@QBE?AW4EWindMethod@CSpeedTreeRT@@XZ 10083580 f i SpeedTreeRT.obj
 0001:000825b0       ?GetCamera@CIdvCamera@@SAXAAVCVec3@@0@Z 100835b0 f i SpeedTreeRT.obj
 0001:00082610       ?GetCamera@CSpeedTreeRT@@SAXPAM0@Z 10083610 f   SpeedTreeRT.obj
 0001:00082750       ?GetCollisionObject@CSpeedTreeRT@@QAEXIAAW4ECollisionObjectType@1@PAM1@Z 10083750 f   SpeedTreeRT.obj
 0001:00082900       ?GetCollisionObjectCount@CSpeedTreeRT@@QAEIXZ 10083900 f   SpeedTreeRT.obj
 0001:00082970       ?GetCurrentError@CSpeedTreeRT@@SAPBDXZ 10083970 f   SpeedTreeRT.obj
 0001:000829c0       ?GetDiscreteBranchLodLevel@CSpeedTreeRT@@QBEFM@Z 100839c0 f   SpeedTreeRT.obj
 0001:00082b40       ?GetDiscreteFrondLodLevel@CSpeedTreeRT@@QBEFM@Z 10083b40 f   SpeedTreeRT.obj
 0001:00082cc0       ?GetDiscreteLeafLodLevel@CSpeedTreeRT@@QBEGM@Z 10083cc0 f   SpeedTreeRT.obj
 0001:00082f60       ?GetFrequencyTimeShift@CWindEngine@@QBEMXZ 10083f60 f i SpeedTreeRT.obj
 0001:00082f90       ?GetFrondGeometry@CSpeedTreeRT@@AAEXAAUSGeometry@1@F@Z 10083f90 f   SpeedTreeRT.obj
 0001:000833b0       ?GetFrondGeometryMapIndexes@CSpeedTreeRT@@QBEPAEH@Z 100843b0 f   SpeedTreeRT.obj
 0001:00083710       ?GetFrondLightingMethod@CSpeedTreeRT@@QBE?AW4ELightingMethod@1@XZ 10084710 f   SpeedTreeRT.obj
 0001:00083760       ?GetFrondMaterial@CLightingEngine@@QBEPBMXZ 10084760 f i SpeedTreeRT.obj
 0001:00083790       ?GetFrondMaterial@CSpeedTreeRT@@QBEPBMXZ 10084790 f   SpeedTreeRT.obj
 0001:000837e0       ?GetFrondTriangleCount@CSpeedTreeRT@@QBEIM@Z 100847e0 f   SpeedTreeRT.obj
 0001:00083a50       ?GetFrondWindMethod@CSpeedTreeRT@@QBE?AW4EWindMethod@1@XZ 10084a50 f   SpeedTreeRT.obj
 0001:00083aa0       ?GetFrondWindMethod@CWindEngine@@QBE?AW4EWindMethod@CSpeedTreeRT@@XZ 10084aa0 f i SpeedTreeRT.obj
 0001:00083ad0       ?GetGeometry@CSpeedTreeRT@@QAEXAAUSGeometry@1@KFFF@Z 10084ad0 f   SpeedTreeRT.obj
 0001:00083e10       ?GetHorzBillboardFadeAngles@CSpeedTreeRT@@SAXAAM0@Z 10084e10 f   SpeedTreeRT.obj
 0001:00083e50       ?GetLeafBillboardTable@CSpeedTreeRT@@QBEPBMAAI@Z 10084e50 f   SpeedTreeRT.obj
 0001:00084080       ?GetLeafGeometry@CSpeedTreeRT@@AAEXAAUSGeometry@1@F@Z 10085080 f   SpeedTreeRT.obj
 0001:000848c0       ?GetLeafInfo@CTreeEngine@@QBEABUSIdvLeafInfo@@XZ 100858c0 f i SpeedTreeRT.obj
 0001:000848f0       ?GetLeafLightingAdjustment@CLightingEngine@@QAEMXZ 100858f0 f i SpeedTreeRT.obj
 0001:00084920       ?GetLeafLightingAdjustment@CSpeedTreeRT@@QBEMXZ 10085920 f   SpeedTreeRT.obj
 0001:00084970       ?GetLeafLightingMethod@CSpeedTreeRT@@QBE?AW4ELightingMethod@1@XZ 10085970 f   SpeedTreeRT.obj
 0001:000849c0       ?GetLeafLodSizeAdjustments@CSpeedTreeRT@@QAEPBMXZ 100859c0 f   SpeedTreeRT.obj
 0001:00084cc0       ?GetLeafMaterial@CLightingEngine@@QBEPBMXZ 10085cc0 f i SpeedTreeRT.obj
 0001:00084cf0       ?GetLeafMaterial@CSpeedTreeRT@@QBEPBMXZ 10085cf0 f   SpeedTreeRT.obj
 0001:00084d40       ?GetLeafRockingState@CSpeedTreeRT@@QBE_NXZ 10085d40 f   SpeedTreeRT.obj
 0001:00084d90       ?GetLeafRockingState@CWindEngine@@QBE_NXZ 10085d90 f i SpeedTreeRT.obj
 0001:00084dc0       ?GetLeafTextures@CTreeEngine@@QBEABV?$vector@USIdvLeafTexture@@V?$allocator@USIdvLeafTexture@@@std@@@std@@XZ 10085dc0 f i SpeedTreeRT.obj
 0001:00084df0       ?GetLeafTriangleCount@CSpeedTreeRT@@QBEIM@Z 10085df0 f   SpeedTreeRT.obj
 0001:00084ea0       ?GetLeafWindMethod@CSpeedTreeRT@@QBE?AW4EWindMethod@1@XZ 10085ea0 f   SpeedTreeRT.obj
 0001:00084ef0       ?GetLightAttributes@CLightingEngine@@SAPBMI@Z 10085ef0 f i SpeedTreeRT.obj
 0001:00084fc0       ?GetLightAttributes@CSpeedTreeRT@@SAPBMI@Z 10085fc0 f   SpeedTreeRT.obj
 0001:00085010       ?GetLightState@CLightingEngine@@SA_NI@Z 10086010 f i SpeedTreeRT.obj
 0001:000850e0       ?GetLightState@CSpeedTreeRT@@SA_NI@Z 100860e0 f   SpeedTreeRT.obj
 0001:00085130       ?GetLocalMatrices@CSpeedTreeRT@@QAEXAAI0@Z 10086130 f   SpeedTreeRT.obj
 0001:00085190       ?GetLod@CTreeEngine@@QBEMXZ 10086190 f i SpeedTreeRT.obj
 0001:000851c0       ?GetLodLevel@CSpeedTreeRT@@QBEMXZ 100861c0 f   SpeedTreeRT.obj
 0001:00085250       ?GetLodLimits@CSpeedTreeRT@@QBEXAAM0@Z 10086250 f   SpeedTreeRT.obj
 0001:000852b0       ?GetNumBranchLodLevels@CSpeedTreeRT@@QBEGXZ 100862b0 f   SpeedTreeRT.obj
 0001:00085300       ?GetNumBranchLodLevels@CTreeEngine@@QBEIXZ 10086300 f i SpeedTreeRT.obj
 0001:00085330       ?GetNumFrondLodLevels@CSpeedTreeRT@@QBEGXZ 10086330 f   SpeedTreeRT.obj
 0001:00085360       ?GetNumLeafLodLevels@CSpeedTreeRT@@QBEGXZ 10086360 f   SpeedTreeRT.obj
 0001:000853b0       ?GetNumLeafLodLevels@CTreeEngine@@QBEHXZ 100863b0 f i SpeedTreeRT.obj
 0001:000853e0       ?GetNumLodLevels@CIndexedGeometry@@QAEGXZ 100863e0 f i SpeedTreeRT.obj
 0001:00085410       ?GetNumWindMatrices@CWindEngine@@SAIXZ 10086410 f i SpeedTreeRT.obj
 0001:00085460       ?GetPropagateFlexibility@CIdvBranch@@SA_NXZ 10086460 f i SpeedTreeRT.obj
 0001:00085480       ?GetSeed@CSpeedTreeRT@@QBEIXZ 10086480 f   SpeedTreeRT.obj
 0001:000856e0       ?GetSeed@CTreeEngine@@QBEHXZ 100866e0 f i SpeedTreeRT.obj
 0001:00085710       ?GetSelfShadowFilename@CProjectedShadow@@QAEPBDXZ 10086710 f i SpeedTreeRT.obj
 0001:00085760       ?GetSimpleBillboardGeometry@CSpeedTreeRT@@AAEXAAUSGeometry@1@@Z 10086760 f   SpeedTreeRT.obj
 0001:00085b90       ?GetSize@CWindMatrices@@QBEGXZ 10086b90 f i SpeedTreeRT.obj
 0001:00085bc0       ?GetSpeedWindRockScalar@CWindEngine@@QBEMXZ 10086bc0 f i SpeedTreeRT.obj
 0001:00085bf0       ?GetSpeedWindRustleScalar@CWindEngine@@QBEMXZ 10086bf0 f i SpeedTreeRT.obj
 0001:00085c20       ?GetStaticLightingStyle@CLightingEngine@@QBE?AW4EStaticLightingStyle@CSpeedTreeRT@@XZ 10086c20 f i SpeedTreeRT.obj
 0001:00085c50       ?GetStaticLightingStyle@CSpeedTreeRT@@QBE?AW4EStaticLightingStyle@1@XZ 10086c50 f   SpeedTreeRT.obj
 0001:00085ca0       ?GetStripLengthsPointer@CIndexedGeometry@@QBEPBGG@Z 10086ca0 f i SpeedTreeRT.obj
 0001:00085df0       ?GetTextureCount@CFrondEngine@@QBEIXZ 10086df0 f i SpeedTreeRT.obj
 0001:00085e40       ?GetTextureFilename@CFrondEngine@@QBEPBDI@Z 10086e40 f i SpeedTreeRT.obj
 0001:00085ea0       ?GetTextureFlip@CSpeedTreeRT@@SA_NXZ 10086ea0 f   SpeedTreeRT.obj
 0001:00085ec0       ?GetTextures@CSpeedTreeRT@@QBEXAAUSTextures@1@@Z 10086ec0 f   SpeedTreeRT.obj
 0001:00086310       ?GetTransitionValues@CSpeedTreeRT@@CAXMGMMMMAAM0AAF1@Z 10087310 f   SpeedTreeRT.obj
 0001:000866d0       ?GetTreePosition@CSpeedTreeRT@@QBEPBMXZ 100876d0 f   SpeedTreeRT.obj
 0001:00086750       ?GetTreeSize@CSpeedTreeRT@@QBEXAAM0@Z 10087750 f   SpeedTreeRT.obj
 0001:000867b0       ?GetTriangleCount@CLeafGeometry@@QBEII@Z 100877b0 f i SpeedTreeRT.obj
 0001:000868a0       ?GetUserData@CSpeedTreeRT@@QBEPBDXZ 100878a0 f   SpeedTreeRT.obj
 0001:000868d0       ?GetVertexBinormals@CIndexedGeometry@@QBEPBMXZ 100878d0 f i SpeedTreeRT.obj
 0001:00086960       ?GetVertexColors@CIndexedGeometry@@QBEPBKXZ 10087960 f i SpeedTreeRT.obj
 0001:000869f0       ?GetVertexCoords@CIndexedGeometry@@QBEPBMXZ 100879f0 f i SpeedTreeRT.obj
 0001:00086a80       ?GetVertexNormals@CIndexedGeometry@@QBEPBMXZ 10087a80 f i SpeedTreeRT.obj
 0001:00086b10       ?GetVertexTangents@CIndexedGeometry@@QBEPBMXZ 10087b10 f i SpeedTreeRT.obj
 0001:00086ba0       ?GetVertexTexCoords0@CIndexedGeometry@@QBEPBMXZ 10087ba0 f i SpeedTreeRT.obj
 0001:00086c30       ?GetVertexTexCoords1@CIndexedGeometry@@QBEPBMXZ 10087c30 f i SpeedTreeRT.obj
 0001:00086cc0       ?GetVertexTexIndices@CIndexedGeometry@@QBEPBEXZ 10087cc0 f i SpeedTreeRT.obj
 0001:00086d50       ?GetVertexWindMatrixIndices@CIndexedGeometry@@QBEPBEXZ 10087d50 f i SpeedTreeRT.obj
 0001:00086de0       ?GetVertexWindWeights@CIndexedGeometry@@QBEPBMXZ 10087de0 f i SpeedTreeRT.obj
 0001:00086e70       ?GetWindData@CTreeEngine@@QBEABUSIdvWindInfo@@XZ 10087e70 f i SpeedTreeRT.obj
 0001:00086ea0       ?GetWindStrength@CSpeedTreeRT@@QBEMXZ 10087ea0 f   SpeedTreeRT.obj
 0001:00086ef0       ?GetWindStrength@CWindEngine@@QBEMXZ 10087ef0 f i SpeedTreeRT.obj
 0001:00087010       ?InitTables@CTreeEngine@@QAEXXZ 10088010 f i SpeedTreeRT.obj
 0001:00087080       ?InstanceOf@CSpeedTreeRT@@QBEPBV1@XZ 10088080 f   SpeedTreeRT.obj
 0001:000870d0       ?Invalidate@CIndexedGeometry@@QAEXXZ 100880d0 f i SpeedTreeRT.obj
 0001:00087100       ?Invalidate@CSimpleBillboard@@QAEXXZ 10088100 f i SpeedTreeRT.obj
 0001:00087130       ?IsAuthorized@CSpeedTreeRT@@SA_NXZ 10088130 f   SpeedTreeRT.obj
 0001:00087150       ?IsValid@CSimpleBillboard@@QBE_NXZ 10088150 f i SpeedTreeRT.obj
 0001:00087180       ?IsVertexWeightingEnabled@CLeafGeometry@@QBE_NXZ 10088180 f i SpeedTreeRT.obj
 0001:000871b0       ?LoadTree@CSpeedTreeRT@@QAE_NPBD@Z 100881b0 f   SpeedTreeRT.obj
 0001:00087780       ?LoadTree@CSpeedTreeRT@@QAE_NPBEI@Z 10088780 f   SpeedTreeRT.obj
 0001:00087f40       ?MakeInstance@CSpeedTreeRT@@QAEPAV1@XZ 10088f40 f   SpeedTreeRT.obj
 0001:00088210       ?NotifyAllTreesOfEvent@CSpeedTreeRT@@CAXH@Z 10089210 f   SpeedTreeRT.obj
 0001:000885e0       ?ParseCollisionObjects@CSpeedTreeRT@@AAEXPAVCTreeFileAccess@@@Z 100895e0 f   SpeedTreeRT.obj
 0001:00088a40       ?ParseLodInfo@CSpeedTreeRT@@AAEXPAVCTreeFileAccess@@@Z 10089a40 f   SpeedTreeRT.obj
 0001:00088cb0       ?ParseShadowProjectionInfo@CSpeedTreeRT@@AAEXPAVCTreeFileAccess@@@Z 10089cb0 f   SpeedTreeRT.obj
 0001:00088db0       ?ParseSupplementalTexCoordInfo@CSpeedTreeRT@@AAEXPAVCTreeFileAccess@@@Z 10089db0 f   SpeedTreeRT.obj
 0001:000890f0       ?ParseTextureCoordInfo@CSpeedTreeRT@@AAEXPAVCTreeFileAccess@@@Z 1008a0f0 f   SpeedTreeRT.obj
 0001:00089780       ?ParseUserData@CSpeedTreeRT@@AAEXPAVCTreeFileAccess@@@Z 1008a780 f   SpeedTreeRT.obj
 0001:000898c0       ?ParseWindInfo@CSpeedTreeRT@@AAEXPAVCTreeFileAccess@@@Z 1008a8c0 f   SpeedTreeRT.obj
 0001:00089a90       ?ResetError@CSpeedTreeRT@@SAXXZ 1008aa90 f   SpeedTreeRT.obj
 0001:00089ae0       ?ResetLeafWindState@CSpeedTreeRT@@QAEXXZ 1008aae0 f   SpeedTreeRT.obj
 0001:00089b30       ?Resize@CWindMatrices@@QAEXG@Z 1008ab30 f i SpeedTreeRT.obj
 0001:00089cd0       ?RoundToNearestInt@@YAHM@Z 1008acd0 f i SpeedTreeRT.obj
 0001:00089d30       ?SaveCollisionObjects@CSpeedTreeRT@@ABEXPAVCTreeFileAccess@@@Z 1008ad30 f   SpeedTreeRT.obj
 0001:0008a010       ?SaveSupplementalTexCoordInfo@CSpeedTreeRT@@ABEXPAVCTreeFileAccess@@@Z 1008b010 f   SpeedTreeRT.obj
 0001:0008a170       ?SaveTextureCoords@CSpeedTreeRT@@ABEXPAVCTreeFileAccess@@@Z 1008b170 f   SpeedTreeRT.obj
 0001:0008a3d0       ?SaveTree@CSpeedTreeRT@@QBEPAEAAI_N@Z 1008b3d0 f   SpeedTreeRT.obj
 0001:0008a9a0       ?SaveUserData@CSpeedTreeRT@@ABEXPAVCTreeFileAccess@@@Z 1008b9a0 f   SpeedTreeRT.obj
 0001:0008aa50       ?SetBranchLevelForWeighting@CTreeEngine@@QAEXH@Z 1008ba50 f i SpeedTreeRT.obj
 0001:0008aa80       ?SetBranchLightingMethod@CLightingEngine@@QAEXW4ELightingMethod@CSpeedTreeRT@@@Z 1008ba80 f i SpeedTreeRT.obj
 0001:0008aab0       ?SetBranchLightingMethod@CSpeedTreeRT@@QAEXW4ELightingMethod@1@@Z 1008bab0 f   SpeedTreeRT.obj
 0001:0008ad10       ?SetBranchMaterial@CLightingEngine@@QAEXPBM@Z 1008bd10 f i SpeedTreeRT.obj
 0001:0008ae00       ?SetBranchMaterial@CSpeedTreeRT@@QAEXPBM@Z 1008be00 f   SpeedTreeRT.obj
 0001:0008b030       ?SetBranchTextureFilename@CSpeedTreeRT@@QAEXPBD@Z 1008c030 f   SpeedTreeRT.obj
 0001:0008b310       ?SetBranchWindMethod@CSpeedTreeRT@@QAEXW4EWindMethod@1@@Z 1008c310 f   SpeedTreeRT.obj
 0001:0008b5d0       ?SetBranchWindMethod@CWindEngine@@QAEXW4EWindMethod@CSpeedTreeRT@@@Z 1008c5d0 f i SpeedTreeRT.obj
 0001:0008b600       ?SetCamera@CIdvCamera@@SAXABVCVec3@@0@Z 1008c600 f i SpeedTreeRT.obj
 0001:0008b660       ?SetCamera@CSpeedTreeRT@@SAXPBM0@Z 1008c660 f   SpeedTreeRT.obj
 0001:0008bc70       ?SetDropToBillboard@CSpeedTreeRT@@SAX_N@Z 1008cc70 f   SpeedTreeRT.obj
 0001:0008bca0       ?SetError@CSpeedTreeRT@@CAXPBD@Z 1008cca0 f   SpeedTreeRT.obj
 0001:0008bcf0       ?SetFrondEngine@CIdvBranch@@SAXPAVCFrondEngine@@@Z 1008ccf0 f i SpeedTreeRT.obj
 0001:0008bd20       ?SetFrondLightingMethod@CLightingEngine@@QAEXW4ELightingMethod@CSpeedTreeRT@@@Z 1008cd20 f i SpeedTreeRT.obj
 0001:0008bd50       ?SetFrondLightingMethod@CSpeedTreeRT@@QAEXW4ELightingMethod@1@@Z 1008cd50 f   SpeedTreeRT.obj
 0001:0008bfb0       ?SetFrondMaterial@CLightingEngine@@QAEXPBM@Z 1008cfb0 f i SpeedTreeRT.obj
 0001:0008c0a0       ?SetFrondMaterial@CSpeedTreeRT@@QAEXPBM@Z 1008d0a0 f   SpeedTreeRT.obj
 0001:0008c2d0       ?SetFrondTextureCoords@CSpeedTreeRT@@QAEXIPBM@Z 1008d2d0 f   SpeedTreeRT.obj
 0001:0008c510       ?SetFrondTextureFilename@CSpeedTreeRT@@QAEXIPBD@Z 1008d510 f   SpeedTreeRT.obj
 0001:0008c7c0       ?SetFrondWindMethod@CSpeedTreeRT@@QAEXW4EWindMethod@1@@Z 1008d7c0 f   SpeedTreeRT.obj
 0001:0008ca80       ?SetFrondWindMethod@CWindEngine@@QAEXW4EWindMethod@CSpeedTreeRT@@@Z 1008da80 f i SpeedTreeRT.obj
 0001:0008cab0       ?SetHorzBillboardFadeAngles@CSpeedTreeRT@@SAXMM@Z 1008dab0 f   SpeedTreeRT.obj
 0001:0008caf0       ?SetLeafLightingAdjustment@CLightingEngine@@QAEXM@Z 1008daf0 f i SpeedTreeRT.obj
 0001:0008cbe0       ?SetLeafLightingAdjustment@CSpeedTreeRT@@QAEXM@Z 1008dbe0 f   SpeedTreeRT.obj
 0001:0008ce20       ?SetLeafLightingMethod@CLightingEngine@@QAEXW4ELightingMethod@CSpeedTreeRT@@@Z 1008de20 f i SpeedTreeRT.obj
 0001:0008ce50       ?SetLeafLightingMethod@CSpeedTreeRT@@QAEXW4ELightingMethod@1@@Z 1008de50 f   SpeedTreeRT.obj
 0001:0008d0b0       ?SetLeafMaterial@CLightingEngine@@QAEXPBM@Z 1008e0b0 f i SpeedTreeRT.obj
 0001:0008d1a0       ?SetLeafMaterial@CSpeedTreeRT@@QAEXPBM@Z 1008e1a0 f   SpeedTreeRT.obj
 0001:0008d3d0       ?SetLeafRockingState@CSpeedTreeRT@@QAEX_N@Z 1008e3d0 f   SpeedTreeRT.obj
 0001:0008d430       ?SetLeafRockingState@CWindEngine@@QAEX_N@Z 1008e430 f i SpeedTreeRT.obj
 0001:0008d460       ?SetLeafTargetAlphaMask@CSpeedTreeRT@@QAEXE@Z 1008e460 f   SpeedTreeRT.obj
 0001:0008d490       ?SetLeafTextureCoords@CSpeedTreeRT@@QAEXIPBM@Z 1008e490 f   SpeedTreeRT.obj
 0001:0008d9f0       ?SetLeafTextureFilename@CSpeedTreeRT@@QAEXIPBD@Z 1008e9f0 f   SpeedTreeRT.obj
 0001:0008dcd0       ?SetLeafWindMethod@CSpeedTreeRT@@QAEXW4EWindMethod@1@@Z 1008ecd0 f   SpeedTreeRT.obj
 0001:0008df30       ?SetLeafWindMethod@CWindEngine@@QAEXW4EWindMethod@CSpeedTreeRT@@@Z 1008ef30 f i SpeedTreeRT.obj
 0001:0008df60       ?SetLightAttributes@CSpeedTreeRT@@SAXIPBM@Z 1008ef60 f   SpeedTreeRT.obj
 0001:0008e170       ?SetLightState@CLightingEngine@@SAXI_N@Z 1008f170 f i SpeedTreeRT.obj
 0001:0008e240       ?SetLightState@CSpeedTreeRT@@SAXI_N@Z 1008f240 f   SpeedTreeRT.obj
 0001:0008e290       ?SetLightingEngine@CIdvBranch@@SAXPAVCLightingEngine@@@Z 1008f290 f i SpeedTreeRT.obj
 0001:0008e2c0       ?SetLocalMatrices@CSpeedTreeRT@@QAEXII@Z 1008f2c0 f   SpeedTreeRT.obj
 0001:0008e530       ?SetLod@CTreeEngine@@QAEXM@Z 1008f530 f i SpeedTreeRT.obj
 0001:0008e560       ?SetLodLevel@CSpeedTreeRT@@QAEXM@Z 1008f560 f   SpeedTreeRT.obj
 0001:0008e620       ?SetLodLimits@CSpeedTreeRT@@QAEXMM@Z 1008f620 f   SpeedTreeRT.obj
 0001:0008e690       ?SetMatrix@CWindMatrices@@QAEXGPBM@Z 1008f690 f i SpeedTreeRT.obj
 0001:0008e790       ?SetNumLeafRockingGroups@CSpeedTreeRT@@QAEXI@Z 1008f790 f   SpeedTreeRT.obj
 0001:0008e9d0       ?SetNumLeafRockingGroups@CTreeEngine@@QAEXH@Z 1008f9d0 f i SpeedTreeRT.obj
 0001:0008ea00       ?SetNumWindMatrices@CSpeedTreeRT@@SAXH@Z 1008fa00 f   SpeedTreeRT.obj
 0001:0008ec00       ?SetNumWindMatrices@CWindEngine@@SAXG@Z 1008fc00 f i SpeedTreeRT.obj
 0001:0008ec50       ?SetPropagateFlexibility@CIdvBranch@@SAX_N@Z 1008fc50 f i SpeedTreeRT.obj
 0001:0008ec80       ?SetSpeedWindRockScalar@CWindEngine@@QAEXM@Z 1008fc80 f i SpeedTreeRT.obj
 0001:0008ecb0       ?SetSpeedWindRustleScalar@CWindEngine@@QAEXM@Z 1008fcb0 f i SpeedTreeRT.obj
 0001:0008ece0       ?SetStaticLightingStyle@CLightingEngine@@QAEXW4EStaticLightingStyle@CSpeedTreeRT@@@Z 1008fce0 f i SpeedTreeRT.obj
 0001:0008ed10       ?SetStaticLightingStyle@CSpeedTreeRT@@QAEXW4EStaticLightingStyle@1@@Z 1008fd10 f   SpeedTreeRT.obj
 0001:0008f020       ?SetTextureFilename@CFrondEngine@@QAEXIPBD@Z 10090020 f i SpeedTreeRT.obj
 0001:0008f0d0       ?SetTextureFlip@CSpeedTreeRT@@SAX_N@Z 100900d0 f   SpeedTreeRT.obj
 0001:0008f100       ?SetTime@CSpeedTreeRT@@SAXM@Z 10090100 f   SpeedTreeRT.obj
 0001:0008f310       ?SetTime@CWindEngine@@SAXM@Z 10090310 f i SpeedTreeRT.obj
 0001:0008f340       ?SetTreePosition@CSpeedTreeRT@@QAEXMMM@Z 10090340 f   SpeedTreeRT.obj
 0001:0008f430       ?SetTreeSize@CSpeedTreeRT@@QAEXMM@Z 10090430 f   SpeedTreeRT.obj
 0001:0008f6b0       ?SetWindMatrix@CSpeedTreeRT@@SAXIPBM@Z 100906b0 f   SpeedTreeRT.obj
 0001:0008fa40       ?SetWindMatrix@CWindEngine@@SAXGPBM@Z 10090a40 f i SpeedTreeRT.obj
 0001:0008fa90       ?SetWindMethod@CIndexedGeometry@@QAEXW4EWindMethod@CSpeedTreeRT@@@Z 10090a90 f i SpeedTreeRT.obj
 0001:0008fac0       ?SetWindStrength@CSpeedTreeRT@@QAEMMMM@Z 10090ac0 f   SpeedTreeRT.obj
 0001:0008fe80       ?SetWindStrengthAndLeafAngles@CSpeedTreeRT@@QAEXMPBM0I@Z 10090e80 f   SpeedTreeRT.obj
 0001:00090190       ?SetupHorizontalBillboard@CSpeedTreeRT@@AAEXXZ 10091190 f   SpeedTreeRT.obj
 0001:00090470       ?TransformAll@SCollisionObjects@@QAEXAAVCTransform@@@Z 10091470 f i SpeedTreeRT.obj
 0001:00090950       ?TransientDataIntact@CTreeEngine@@QBE_NXZ 10091950 f i SpeedTreeRT.obj
 0001:00090980       ?Validate@CSimpleBillboard@@QAEXXZ 10091980 f i SpeedTreeRT.obj
 0001:000909b0       ?_Buy_raw@?$vector@USShape@@V?$allocator@USShape@@@std@@@std@@AAEXI@Z 100919b0 f i SpeedTreeRT.obj
 0001:00090a60       ?_Calculate_growth@?$vector@PAVCSpeedTreeRT@@V?$allocator@PAVCSpeedTreeRT@@@std@@@std@@ABEII@Z 10091a60 f i SpeedTreeRT.obj
 0001:00090b00       ?_Calculate_growth@?$vector@USShape@@V?$allocator@USShape@@@std@@@std@@ABEII@Z 10091b00 f i SpeedTreeRT.obj
 0001:00090ba0       ?_Change_array@?$vector@PAVCSpeedTreeRT@@V?$allocator@PAVCSpeedTreeRT@@@std@@@std@@AAEXQAPAVCSpeedTreeRT@@II@Z 10091ba0 f i SpeedTreeRT.obj
 0001:00090ca0       ?_Change_array@?$vector@USShape@@V?$allocator@USShape@@@std@@@std@@AAEXQAUSShape@@II@Z 10091ca0 f i SpeedTreeRT.obj
 0001:00090da0       ?_Clear_and_reserve_geometric@?$vector@USShape@@V?$allocator@USShape@@@std@@@std@@AAEXI@Z 10091da0 f i SpeedTreeRT.obj
 0001:00090ed0       ?_Compat@?$_Vector_const_iterator@V?$_Vector_val@U?$_Simple_types@PAVCSpeedTreeRT@@@std@@@std@@@std@@QBEXABV12@@Z 10091ed0 f i SpeedTreeRT.obj
 0001:00090fb0       ?_Compat@?$_Vector_const_iterator@V?$_Vector_val@U?$_Simple_types@USShape@@@std@@@std@@@std@@QBEXABV12@@Z 10091fb0 f i SpeedTreeRT.obj
 0001:00091090       ?_Get_first@?$_Compressed_pair@V?$allocator@PAVCSpeedTreeRT@@@std@@V?$_Vector_val@U?$_Simple_types@PAVCSpeedTreeRT@@@std@@@2@$00@std@@QAEAAV?$allocator@PAVCSpeedTreeRT@@@2@XZ 10092090 f i SpeedTreeRT.obj
 0001:000910b0       ?_Get_first@?$_Compressed_pair@V?$allocator@PAVCSpeedTreeRT@@@std@@V?$_Vector_val@U?$_Simple_types@PAVCSpeedTreeRT@@@std@@@2@$00@std@@QBEABV?$allocator@PAVCSpeedTreeRT@@@2@XZ 100920b0 f i SpeedTreeRT.obj
 0001:000910d0       ?_Get_first@?$_Compressed_pair@V?$allocator@USShape@@@std@@V?$_Vector_val@U?$_Simple_types@USShape@@@std@@@2@$00@std@@QAEAAV?$allocator@USShape@@@2@XZ 100920d0 f i SpeedTreeRT.obj
 0001:000910f0       ?_Get_first@?$_Compressed_pair@V?$allocator@USShape@@@std@@V?$_Vector_val@U?$_Simple_types@USShape@@@std@@@2@$00@std@@QBEABV?$allocator@USShape@@@2@XZ 100920f0 f i SpeedTreeRT.obj
 0001:00091110       ?_Getal@?$vector@PAVCSpeedTreeRT@@V?$allocator@PAVCSpeedTreeRT@@@std@@@std@@AAEAAV?$allocator@PAVCSpeedTreeRT@@@2@XZ 10092110 f i SpeedTreeRT.obj
 0001:00091160       ?_Getal@?$vector@PAVCSpeedTreeRT@@V?$allocator@PAVCSpeedTreeRT@@@std@@@std@@ABEABV?$allocator@PAVCSpeedTreeRT@@@2@XZ 10092160 f i SpeedTreeRT.obj
 0001:000911b0       ?_Getal@?$vector@USShape@@V?$allocator@USShape@@@std@@@std@@AAEAAV?$allocator@USShape@@@2@XZ 100921b0 f i SpeedTreeRT.obj
 0001:00091200       ?_Getal@?$vector@USShape@@V?$allocator@USShape@@@std@@@std@@ABEABV?$allocator@USShape@@@2@XZ 10092200 f i SpeedTreeRT.obj
 0001:00091250       ?_Orphan_range@?$vector@PAVCSpeedTreeRT@@V?$allocator@PAVCSpeedTreeRT@@@std@@@std@@ABEXPAPAVCSpeedTreeRT@@0@Z 10092250 f i SpeedTreeRT.obj
 0001:000912b0       ?_Orphan_range@?$vector@USShape@@V?$allocator@USShape@@@std@@@std@@ABEXPAUSShape@@0@Z 100922b0 f i SpeedTreeRT.obj
 0001:00091310       ?_Orphan_range_locked@?$vector@PAVCSpeedTreeRT@@V?$allocator@PAVCSpeedTreeRT@@@std@@@std@@ABEXPAPAVCSpeedTreeRT@@0@Z 10092310 f i SpeedTreeRT.obj
 0001:00091420       ?_Orphan_range_locked@?$vector@USShape@@V?$allocator@USShape@@@std@@@std@@ABEXPAUSShape@@0@Z 10092420 f i SpeedTreeRT.obj
 0001:00091530       ?_Orphan_range_unlocked@?$vector@PAVCSpeedTreeRT@@V?$allocator@PAVCSpeedTreeRT@@@std@@@std@@ABEXPAPAVCSpeedTreeRT@@0@Z 10092530 f i SpeedTreeRT.obj
 0001:000915c0       ?_Orphan_range_unlocked@?$vector@USShape@@V?$allocator@USShape@@@std@@@std@@ABEXPAUSShape@@0@Z 100925c0 f i SpeedTreeRT.obj
 0001:00091650       ?_Release@?$_Uninitialized_backout_al@V?$allocator@PAVCSpeedTreeRT@@@std@@@std@@QAEPAPAVCSpeedTreeRT@@XZ 10092650 f i SpeedTreeRT.obj
 0001:00091680       ?_Release@?$_Uninitialized_backout_al@V?$allocator@USShape@@@std@@@std@@QAEPAUSShape@@XZ 10092680 f i SpeedTreeRT.obj
 0001:000916b0       ?_Seek_to@?$_Vector_const_iterator@V?$_Vector_val@U?$_Simple_types@PAVCSpeedTreeRT@@@std@@@std@@@std@@QAEXPBQAVCSpeedTreeRT@@@Z 100926b0 f i SpeedTreeRT.obj
 0001:00091710       ?_Tidy@?$vector@PAVCSpeedTreeRT@@V?$allocator@PAVCSpeedTreeRT@@@std@@@std@@AAEXXZ 10092710 f i SpeedTreeRT.obj
 0001:00091840       ?_Tidy@?$vector@USShape@@V?$allocator@USShape@@@std@@@std@@AAEXXZ 10092840 f i SpeedTreeRT.obj
 0001:00091980       ?_Unwrapped@?$_Vector_iterator@V?$_Vector_val@U?$_Simple_types@PAVCSpeedTreeRT@@@std@@@std@@@std@@QBEPAPAVCSpeedTreeRT@@XZ 10092980 f i SpeedTreeRT.obj
 0001:000919e0       ?_Verify_range@std@@YAXABV?$_Vector_const_iterator@V?$_Vector_val@U?$_Simple_types@PAVCSpeedTreeRT@@@std@@@std@@@1@0@Z 100929e0 f i SpeedTreeRT.obj
 0001:00091b40       ?_Xlength@?$vector@PAVCSpeedTreeRT@@V?$allocator@PAVCSpeedTreeRT@@@std@@@std@@CAXXZ 10092b40 f i SpeedTreeRT.obj
 0001:00091b90       ?_Xlength@?$vector@USShape@@V?$allocator@USShape@@@std@@@std@@CAXXZ 10092b90 f i SpeedTreeRT.obj
 0001:00091be0       ?__global_array_delete@@YAXPAX@Z 10092be0 f i SpeedTreeRT.obj
 0001:00091c30       ?__global_array_delete@@YAXPAXI@Z 10092c30 f i SpeedTreeRT.obj
 0001:00091c80       ?__global_delete@@YAXPAX@Z 10092c80 f i SpeedTreeRT.obj
 0001:00091cd0       ?__global_delete@@YAXPAXI@Z 10092cd0 f i SpeedTreeRT.obj
 0001:00091d20       ?allocate@?$allocator@PAVCSpeedTreeRT@@@std@@QAEPAPAVCSpeedTreeRT@@I@Z 10092d20 f i SpeedTreeRT.obj
 0001:00091d80       ?allocate@?$allocator@USShape@@@std@@QAEPAUSShape@@I@Z 10092d80 f i SpeedTreeRT.obj
 0001:00091de0       ?begin@?$vector@PAVCSpeedTreeRT@@V?$allocator@PAVCSpeedTreeRT@@@std@@@std@@QAE?AV?$_Vector_iterator@V?$_Vector_val@U?$_Simple_types@PAVCSpeedTreeRT@@@std@@@std@@@2@XZ 10092de0 f i SpeedTreeRT.obj
 0001:00091e60       ?begin@?$vector@USShape@@V?$allocator@USShape@@@std@@@std@@QAE?AV?$_Vector_iterator@V?$_Vector_val@U?$_Simple_types@USShape@@@std@@@std@@@2@XZ 10092e60 f i SpeedTreeRT.obj
 0001:00091ee0       ?capacity@?$vector@PAVCSpeedTreeRT@@V?$allocator@PAVCSpeedTreeRT@@@std@@@std@@QBEIXZ 10092ee0 f i SpeedTreeRT.obj
 0001:00091f20       ?capacity@?$vector@USShape@@V?$allocator@USShape@@@std@@@std@@QBEIXZ 10092f20 f i SpeedTreeRT.obj
 0001:00091f60       ?deallocate@?$allocator@PAVCSpeedTreeRT@@@std@@QAEXQAPAVCSpeedTreeRT@@I@Z 10092f60 f i SpeedTreeRT.obj
 0001:00092050       ?deallocate@?$allocator@USShape@@@std@@QAEXQAUSShape@@I@Z 10093050 f i SpeedTreeRT.obj
 0001:00092140       ?empty@?$vector@EV?$allocator@E@std@@@std@@QBE_NXZ 10093140 f i SpeedTreeRT.obj
 0001:000921a0       ?empty@?$vector@GV?$allocator@G@std@@@std@@QBE_NXZ 100931a0 f i SpeedTreeRT.obj
 0001:00092200       ?empty@?$vector@KV?$allocator@K@std@@@std@@QBE_NXZ 10093200 f i SpeedTreeRT.obj
 0001:00092260       ?end@?$vector@PAVCSpeedTreeRT@@V?$allocator@PAVCSpeedTreeRT@@@std@@@std@@QAE?AV?$_Vector_iterator@V?$_Vector_val@U?$_Simple_types@PAVCSpeedTreeRT@@@std@@@std@@@2@XZ 10093260 f i SpeedTreeRT.obj
 0001:000922e0       ?end@?$vector@USShape@@V?$allocator@USShape@@@std@@@std@@QAE?AV?$_Vector_iterator@V?$_Vector_val@U?$_Simple_types@USShape@@@std@@@std@@@2@XZ 100932e0 f i SpeedTreeRT.obj
 0001:00092360       ?erase@?$vector@PAVCSpeedTreeRT@@V?$allocator@PAVCSpeedTreeRT@@@std@@@std@@QAE?AV?$_Vector_iterator@V?$_Vector_val@U?$_Simple_types@PAVCSpeedTreeRT@@@std@@@std@@@2@V?$_Vector_const_iterator@V?$_Vector_val@U?$_Simple_types@PAVCSpeedTreeRT@@@std@@@std@@@2@@Z 10093360 f i SpeedTreeRT.obj
 0001:00092560       ?max_size@?$_Default_allocator_traits@V?$allocator@PAVCSpeedTreeRT@@@std@@@std@@SAIABV?$allocator@PAVCSpeedTreeRT@@@2@@Z 10093560 f i SpeedTreeRT.obj
 0001:00092580       ?max_size@?$_Default_allocator_traits@V?$allocator@USShape@@@std@@@std@@SAIABV?$allocator@USShape@@@2@@Z 10093580 f i SpeedTreeRT.obj
 0001:000925a0       ?max_size@?$vector@PAVCSpeedTreeRT@@V?$allocator@PAVCSpeedTreeRT@@@std@@@std@@QBEIXZ 100935a0 f i SpeedTreeRT.obj
 0001:00092630       ?max_size@?$vector@USShape@@V?$allocator@USShape@@@std@@@std@@QBEIXZ 10093630 f i SpeedTreeRT.obj
 0001:000926c0       ?push_back@?$vector@PAVCSpeedTreeRT@@V?$allocator@PAVCSpeedTreeRT@@@std@@@std@@QAEX$$QAPAVCSpeedTreeRT@@@Z 100936c0 f i SpeedTreeRT.obj
 0001:00092720       ?push_back@?$vector@USShape@@V?$allocator@USShape@@@std@@@std@@QAEXABUSShape@@@Z 10093720 f i SpeedTreeRT.obj
 0001:00092780       ?size@?$vector@USShape@@V?$allocator@USShape@@@std@@@std@@QBEIXZ 10093780 f i SpeedTreeRT.obj
 0001:000927c0       _asinf                     100937c0 f i SpeedTreeRT.obj
 0001:00092830       ??$?0$$V@?$_Compressed_pair@V?$allocator@PAUSIdvBranchInfo@@@std@@V?$_Vector_val@U?$_Simple_types@PAUSIdvBranchInfo@@@std@@@2@$00@std@@QAE@U_Zero_then_variadic_args_t@1@@Z 10093830 f i TreeEngine.obj
 0001:00092890       ??$?0$$V@?$_Compressed_pair@V?$allocator@PAVCIdvBranch@@@std@@V?$_Vector_val@U?$_Simple_types@PAVCIdvBranch@@@std@@@2@$00@std@@QAE@U_Zero_then_variadic_args_t@1@@Z 10093890 f i TreeEngine.obj
 0001:000928f0       ??$?0ABQAVCIdvBranch@@@?$_Alloc_temporary2@V?$allocator@PAVCIdvBranch@@@std@@@std@@QAE@AAV?$allocator@PAVCIdvBranch@@@1@ABQAVCIdvBranch@@@Z 100938f0 f i TreeEngine.obj
 0001:00092980       ??$?0PAUSIdvBranchInfo@@@?$allocator@U_Container_proxy@std@@@std@@QAE@ABV?$allocator@PAUSIdvBranchInfo@@@1@@Z 10093980 f i TreeEngine.obj
 0001:000929b0       ??$?0PAVCIdvBranch@@@?$allocator@U_Container_proxy@std@@@std@@QAE@ABV?$allocator@PAVCIdvBranch@@@1@@Z 100939b0 f i TreeEngine.obj
 0001:000929e0       ??$?8DU?$char_traits@D@std@@V?$allocator@D@1@@std@@YA_NABV?$basic_string@DU?$char_traits@D@std@@V?$allocator@D@2@@0@0@Z 100939e0 f i TreeEngine.obj
 0001:00092a30       ??$?9DU?$char_traits@D@std@@V?$allocator@D@1@@std@@YA_NABV?$basic_string@DU?$char_traits@D@std@@V?$allocator@D@2@@0@0@Z 10093a30 f i TreeEngine.obj
 0001:00092ab0       ??$_Allocate_at_least_helper@V?$allocator@PAUSIdvBranchInfo@@@std@@@std@@YAPAPAUSIdvBranchInfo@@AAV?$allocator@PAUSIdvBranchInfo@@@0@AAI@Z 10093ab0 f i TreeEngine.obj
 0001:00092b00       ??$_Allocate_at_least_helper@V?$allocator@PBUSIdvBranchInfo@@@std@@@std@@YAPAPBUSIdvBranchInfo@@AAV?$allocator@PBUSIdvBranchInfo@@@0@AAI@Z 10093b00 f i TreeEngine.obj
 0001:00092b50       ??$_Assign_counted_range@PAPAVCBillboardLeaf@@@?$vector@PAVCBillboardLeaf@@V?$allocator@PAVCBillboardLeaf@@@std@@@std@@AAEXPAPAVCBillboardLeaf@@I@Z 10093b50 f i TreeEngine.obj
 0001:00092d90       ??$_Assign_counted_range@PAUSIdvLeafTexture@@@?$vector@USIdvLeafTexture@@V?$allocator@USIdvLeafTexture@@@std@@@std@@AAEXPAUSIdvLeafTexture@@I@Z 10093d90 f i TreeEngine.obj
 0001:00092fb0       ??$_Construct_in_place@PAUSIdvBranchInfo@@ABQAU1@@std@@YAXAAPAUSIdvBranchInfo@@ABQAU1@@Z 10093fb0 f i TreeEngine.obj
 0001:00093030       ??$_Construct_in_place@PAVCBillboardLeaf@@PAV1@@std@@YAXAAPAVCBillboardLeaf@@$$QAPAV1@@Z 10094030 f i TreeEngine.obj
 0001:000930b0       ??$_Construct_in_place@PAVCIdvBranch@@ABQAV1@@std@@YAXAAPAVCIdvBranch@@ABQAV1@@Z 100940b0 f i TreeEngine.obj
 0001:00093130       ??$_Construct_in_place@PBUSIdvBranchInfo@@ABQBU1@@std@@YAXAAPBUSIdvBranchInfo@@ABQBU1@@Z 10094130 f i TreeEngine.obj
 0001:000931b0       ??$_Copy_memmove@PAPAUSIdvBranchInfo@@PAPAU1@@std@@YAPAPAUSIdvBranchInfo@@PAPAU1@00@Z 100941b0 f i TreeEngine.obj
 0001:00093270       ??$_Copy_memmove@PAPBUSIdvBranchInfo@@PAPBU1@@std@@YAPAPBUSIdvBranchInfo@@PAPBU1@00@Z 10094270 f i TreeEngine.obj
 0001:00093330       ??$_Copy_memmove_n@PAPAVCBillboardLeaf@@PAPAV1@@std@@YAPAPAVCBillboardLeaf@@PAPAV1@I0@Z 10094330 f i TreeEngine.obj
 0001:000933a0       ??$_Copy_n_unchecked4@PAPAVCBillboardLeaf@@IPAPAV1@@std@@YAPAPAVCBillboardLeaf@@PAPAV1@I0@Z 100943a0 f i TreeEngine.obj
 0001:00093430       ??$_Copy_n_unchecked4@PAUSIdvLeafTexture@@IPAU1@@std@@YAPAUSIdvLeafTexture@@PAU1@I0@Z 10094430 f i TreeEngine.obj
 0001:000934b0       ??$_Destroy_range@V?$allocator@PAUSIdvBranchInfo@@@std@@@std@@YAXPAPAUSIdvBranchInfo@@QAPAU1@AAV?$allocator@PAUSIdvBranchInfo@@@0@@Z 100944b0 f i TreeEngine.obj
 0001:000934d0       ??$_Emplace_back@AAUSIdvLeafTexture@@@?$_Uninitialized_backout_al@V?$allocator@USIdvLeafTexture@@@std@@@std@@QAEXAAUSIdvLeafTexture@@@Z 100944d0 f i TreeEngine.obj
 0001:00093560       ??$_Emplace_back@PAUSIdvBranchInfo@@@?$_Uninitialized_backout_al@V?$allocator@PAUSIdvBranchInfo@@@std@@@std@@QAEX$$QAPAUSIdvBranchInfo@@@Z 10094560 f i TreeEngine.obj
 0001:000935f0       ??$_Emplace_back@PBUSIdvBranchInfo@@@?$_Uninitialized_backout_al@V?$allocator@PBUSIdvBranchInfo@@@std@@@std@@QAEX$$QAPBUSIdvBranchInfo@@@Z 100945f0 f i TreeEngine.obj
 0001:00093680       ??$_Emplace_back_with_unused_capacity@ABQAUSIdvBranchInfo@@@?$vector@PAUSIdvBranchInfo@@V?$allocator@PAUSIdvBranchInfo@@@std@@@std@@AAEAAPAUSIdvBranchInfo@@ABQAU2@@Z 10094680 f i TreeEngine.obj
 0001:00093730       ??$_Emplace_back_with_unused_capacity@ABQAVCIdvBranch@@@?$vector@PAVCIdvBranch@@V?$allocator@PAVCIdvBranch@@@std@@@std@@AAEAAPAVCIdvBranch@@ABQAV2@@Z 10094730 f i TreeEngine.obj
 0001:000937e0       ??$_Emplace_back_with_unused_capacity@ABQBUSIdvBranchInfo@@@?$vector@PBUSIdvBranchInfo@@V?$allocator@PBUSIdvBranchInfo@@@std@@@std@@AAEAAPBUSIdvBranchInfo@@ABQBU2@@Z 100947e0 f i TreeEngine.obj
 0001:00093890       ??$_Emplace_back_with_unused_capacity@PAVCBillboardLeaf@@@?$vector@PAVCBillboardLeaf@@V?$allocator@PAVCBillboardLeaf@@@std@@@std@@AAEAAPAVCBillboardLeaf@@$$QAPAV2@@Z 10094890 f i TreeEngine.obj
 0001:00093940       ??$_Emplace_one_at_back@ABQAUSIdvBranchInfo@@@?$vector@PAUSIdvBranchInfo@@V?$allocator@PAUSIdvBranchInfo@@@std@@@std@@AAEAAPAUSIdvBranchInfo@@ABQAU2@@Z 10094940 f i TreeEngine.obj
 0001:000939f0       ??$_Emplace_one_at_back@ABQAVCIdvBranch@@@?$vector@PAVCIdvBranch@@V?$allocator@PAVCIdvBranch@@@std@@@std@@AAEAAPAVCIdvBranch@@ABQAV2@@Z 100949f0 f i TreeEngine.obj
 0001:00093aa0       ??$_Emplace_one_at_back@ABQBUSIdvBranchInfo@@@?$vector@PBUSIdvBranchInfo@@V?$allocator@PBUSIdvBranchInfo@@@std@@@std@@AAEAAPBUSIdvBranchInfo@@ABQBU2@@Z 10094aa0 f i TreeEngine.obj
 0001:00093b50       ??$_Emplace_one_at_back@PAVCBillboardLeaf@@@?$vector@PAVCBillboardLeaf@@V?$allocator@PAVCBillboardLeaf@@@std@@@std@@AAEAAPAVCBillboardLeaf@@$$QAPAV2@@Z 10094b50 f i TreeEngine.obj
 0001:00093c00       ??$_Emplace_reallocate@ABQAUSIdvBranchInfo@@@?$vector@PAUSIdvBranchInfo@@V?$allocator@PAUSIdvBranchInfo@@@std@@@std@@AAEPAPAUSIdvBranchInfo@@QAPAU2@ABQAU2@@Z 10094c00 f i TreeEngine.obj
 0001:00093f20       ??$_Emplace_reallocate@ABQAVCIdvBranch@@@?$vector@PAVCIdvBranch@@V?$allocator@PAVCIdvBranch@@@std@@@std@@AAEPAPAVCIdvBranch@@QAPAV2@ABQAV2@@Z 10094f20 f i TreeEngine.obj
 0001:00094240       ??$_Emplace_reallocate@ABQBUSIdvBranchInfo@@@?$vector@PBUSIdvBranchInfo@@V?$allocator@PBUSIdvBranchInfo@@@std@@@std@@AAEPAPBUSIdvBranchInfo@@QAPBU2@ABQBU2@@Z 10095240 f i TreeEngine.obj
 0001:00094560       ??$_Emplace_reallocate@PAVCBillboardLeaf@@@?$vector@PAVCBillboardLeaf@@V?$allocator@PAVCBillboardLeaf@@@std@@@std@@AAEPAPAVCBillboardLeaf@@QAPAV2@$$QAPAV2@@Z 10095560 f i TreeEngine.obj
 0001:00094880       ??$_Get_unwrapped@ABQAPAUSIdvBranchInfo@@@std@@YA?A_TABQAPAUSIdvBranchInfo@@@Z 10095880 f i TreeEngine.obj
 0001:000948a0       ??$_Get_unwrapped@ABQAPBUSIdvBranchInfo@@@std@@YA?A_TABQAPBUSIdvBranchInfo@@@Z 100958a0 f i TreeEngine.obj
 0001:000948c0       ??$_Get_unwrapped@PAUSIdvLeafTexture@@@std@@YA?A_T$$QAPAUSIdvLeafTexture@@@Z 100958c0 f i TreeEngine.obj
 0001:000948e0       ??$_Move_unchecked@PAPAVCIdvBranch@@PAPAV1@@std@@YAPAPAVCIdvBranch@@PAPAV1@00@Z 100958e0 f i TreeEngine.obj
 0001:00094980       ??$_Pocca@V?$allocator@PAVCBillboardLeaf@@@std@@@std@@YAXAAV?$allocator@PAVCBillboardLeaf@@@0@ABV10@@Z 10095980 f i TreeEngine.obj
 0001:000949a0       ??$_Pocca@V?$allocator@USIdvLeafTexture@@@std@@@std@@YAXAAV?$allocator@USIdvLeafTexture@@@0@ABV10@@Z 100959a0 f i TreeEngine.obj
 0001:000949c0       ??$_To_address@PAPAUSIdvBranchInfo@@@std@@YA?A_PABQAPAUSIdvBranchInfo@@@Z 100959c0 f i TreeEngine.obj
 0001:000949e0       ??$_To_address@PAPBUSIdvBranchInfo@@@std@@YA?A_PABQAPBUSIdvBranchInfo@@@Z 100959e0 f i TreeEngine.obj
 0001:00094a00       ??$_Traits_equal@U?$char_traits@D@std@@@std@@YA_NQBDI0I@Z 10095a00 f i TreeEngine.obj
 0001:00094a90       ??$_Unfancy@PAUSIdvBranchInfo@@@std@@YAPAPAUSIdvBranchInfo@@PAPAU1@@Z 10095a90 f i TreeEngine.obj
 0001:00094ab0       ??$_Unfancy@PBUSIdvBranchInfo@@@std@@YAPAPBUSIdvBranchInfo@@PAPBU1@@Z 10095ab0 f i TreeEngine.obj
 0001:00094ad0       ??$_Uninitialized_copy_n@PAPAVCBillboardLeaf@@V?$allocator@PAVCBillboardLeaf@@@std@@@std@@YAPAPAVCBillboardLeaf@@PAPAV1@I0AAV?$allocator@PAVCBillboardLeaf@@@0@@Z 10095ad0 f i TreeEngine.obj
 0001:00094c60       ??$_Uninitialized_copy_n@PAUSIdvLeafTexture@@V?$allocator@USIdvLeafTexture@@@std@@@std@@YAPAUSIdvLeafTexture@@PAU1@I0AAV?$allocator@USIdvLeafTexture@@@0@@Z 10095c60 f i TreeEngine.obj
 0001:00094db0       ??$_Uninitialized_move@PAPAUSIdvBranchInfo@@V?$allocator@PAUSIdvBranchInfo@@@std@@@std@@YAPAPAUSIdvBranchInfo@@QAPAU1@0PAPAU1@AAV?$allocator@PAUSIdvBranchInfo@@@0@@Z 10095db0 f i TreeEngine.obj
 0001:00094f40       ??$_Uninitialized_move@PAPBUSIdvBranchInfo@@V?$allocator@PBUSIdvBranchInfo@@@std@@@std@@YAPAPBUSIdvBranchInfo@@QAPBU1@0PAPBU1@AAV?$allocator@PBUSIdvBranchInfo@@@0@@Z 10095f40 f i TreeEngine.obj
 0001:000950d0       ??$addressof@$$CBV?$vector@PAVCBillboardLeaf@@V?$allocator@PAVCBillboardLeaf@@@std@@@std@@@std@@YAPBV?$vector@PAVCBillboardLeaf@@V?$allocator@PAVCBillboardLeaf@@@std@@@0@ABV10@@Z 100960d0 f i TreeEngine.obj
 0001:000950f0       ??$addressof@$$CBV?$vector@USIdvLeafTexture@@V?$allocator@USIdvLeafTexture@@@std@@@std@@@std@@YAPBV?$vector@USIdvLeafTexture@@V?$allocator@USIdvLeafTexture@@@std@@@0@ABV10@@Z 100960f0 f i TreeEngine.obj
 0001:00095110       ??$addressof@PAUSIdvBranchInfo@@@std@@YAPAPAUSIdvBranchInfo@@AAPAU1@@Z 10096110 f i TreeEngine.obj
 0001:00095130       ??$addressof@PBUSIdvBranchInfo@@@std@@YAPAPBUSIdvBranchInfo@@AAPBU1@@Z 10096130 f i TreeEngine.obj
 0001:00095150       ??$construct@PAUSIdvBranchInfo@@ABQAU1@@?$_Default_allocator_traits@V?$allocator@PAUSIdvBranchInfo@@@std@@@std@@SAXAAV?$allocator@PAUSIdvBranchInfo@@@1@QAPAUSIdvBranchInfo@@ABQAU3@@Z 10096150 f i TreeEngine.obj
 0001:000951c0       ??$construct@PAUSIdvBranchInfo@@PAU1@@?$_Default_allocator_traits@V?$allocator@PAUSIdvBranchInfo@@@std@@@std@@SAXAAV?$allocator@PAUSIdvBranchInfo@@@1@QAPAUSIdvBranchInfo@@$$QAPAU3@@Z 100961c0 f i TreeEngine.obj
 0001:00095230       ??$construct@PAVCIdvBranch@@ABQAV1@@?$_Default_allocator_traits@V?$allocator@PAVCIdvBranch@@@std@@@std@@SAXAAV?$allocator@PAVCIdvBranch@@@1@QAPAVCIdvBranch@@ABQAV3@@Z 10096230 f i TreeEngine.obj
 0001:000952a0       ??$construct@PBUSIdvBranchInfo@@ABQBU1@@?$_Default_allocator_traits@V?$allocator@PBUSIdvBranchInfo@@@std@@@std@@SAXAAV?$allocator@PBUSIdvBranchInfo@@@1@QAPBUSIdvBranchInfo@@ABQBU3@@Z 100962a0 f i TreeEngine.obj
 0001:00095310       ??$construct@PBUSIdvBranchInfo@@PBU1@@?$_Default_allocator_traits@V?$allocator@PBUSIdvBranchInfo@@@std@@@std@@SAXAAV?$allocator@PBUSIdvBranchInfo@@@1@QAPBUSIdvBranchInfo@@$$QAPBU3@@Z 10096310 f i TreeEngine.obj
 0001:00095380       ??$construct@USIdvLeafTexture@@AAU1@@?$_Default_allocator_traits@V?$allocator@USIdvLeafTexture@@@std@@@std@@SAXAAV?$allocator@USIdvLeafTexture@@@1@QAUSIdvLeafTexture@@AAU3@@Z 10096380 f i TreeEngine.obj
 0001:00095400       ??$destroy@PAVCIdvBranch@@@?$_Default_allocator_traits@V?$allocator@PAVCIdvBranch@@@std@@@std@@SAXAAV?$allocator@PAVCIdvBranch@@@1@QAPAVCIdvBranch@@@Z 10096400 f i TreeEngine.obj
 0001:00095420       ??$emplace@ABQAVCIdvBranch@@@?$vector@PAVCIdvBranch@@V?$allocator@PAVCIdvBranch@@@std@@@std@@QAE?AV?$_Vector_iterator@V?$_Vector_val@U?$_Simple_types@PAVCIdvBranch@@@std@@@std@@@1@V?$_Vector_const_iterator@V?$_Vector_val@U?$_Simple_types@PAVCIdvBranch@@@std@@@std@@@1@ABQAVCIdvBranch@@@Z 10096420 f i TreeEngine.obj
 0001:00095770       ??$forward@AAUSIdvLeafTexture@@@std@@YAAAUSIdvLeafTexture@@AAU1@@Z 10096770 f i TreeEngine.obj
 0001:00095790       ??$forward@ABQAUSIdvBranchInfo@@@std@@YAABQAUSIdvBranchInfo@@ABQAU1@@Z 10096790 f i TreeEngine.obj
 0001:000957b0       ??$forward@ABQAVCIdvBranch@@@std@@YAABQAVCIdvBranch@@ABQAV1@@Z 100967b0 f i TreeEngine.obj
 0001:000957d0       ??$forward@ABQBUSIdvBranchInfo@@@std@@YAABQBUSIdvBranchInfo@@ABQBU1@@Z 100967d0 f i TreeEngine.obj
 0001:000957f0       ??$forward@PAUSIdvBranchInfo@@@std@@YA$$QAPAUSIdvBranchInfo@@AAPAU1@@Z 100967f0 f i TreeEngine.obj
 0001:00095810       ??$forward@PBUSIdvBranchInfo@@@std@@YA$$QAPBUSIdvBranchInfo@@AAPBU1@@Z 10096810 f i TreeEngine.obj
 0001:00095830       ??$move@AAPAUSIdvBranchInfo@@@std@@YA$$QAPAUSIdvBranchInfo@@AAPAU1@@Z 10096830 f i TreeEngine.obj
 0001:00095850       ??$move@AAPAUSIdvLeafTexture@@@std@@YA$$QAPAUSIdvLeafTexture@@AAPAU1@@Z 10096850 f i TreeEngine.obj
 0001:00095870       ??$move@AAPBUSIdvBranchInfo@@@std@@YA$$QAPBUSIdvBranchInfo@@AAPBU1@@Z 10096870 f i TreeEngine.obj
 0001:00095890       ??0?$_Uninitialized_backout_al@V?$allocator@PAUSIdvBranchInfo@@@std@@@std@@QAE@PAPAUSIdvBranchInfo@@AAV?$allocator@PAUSIdvBranchInfo@@@1@@Z 10096890 f i TreeEngine.obj
 0001:000958e0       ??0?$_Uninitialized_backout_al@V?$allocator@PBUSIdvBranchInfo@@@std@@@std@@QAE@PAPBUSIdvBranchInfo@@AAV?$allocator@PBUSIdvBranchInfo@@@1@@Z 100968e0 f i TreeEngine.obj
 0001:00095930       ??0?$_Vector_const_iterator@V?$_Vector_val@U?$_Simple_types@PAVCIdvBranch@@@std@@@std@@@std@@QAE@$$QAV01@@Z 10096930 f i TreeEngine.obj
 0001:000959a0       ??0?$_Vector_const_iterator@V?$_Vector_val@U?$_Simple_types@PAVCIdvBranch@@@std@@@std@@@std@@QAE@ABV01@@Z 100969a0 f i TreeEngine.obj
 0001:00095a10       ??0?$_Vector_iterator@V?$_Vector_val@U?$_Simple_types@PAVCIdvBranch@@@std@@@std@@@std@@QAE@$$QAV01@@Z 10096a10 f i TreeEngine.obj
 0001:00095a70       ??0?$_Vector_iterator@V?$_Vector_val@U?$_Simple_types@PAVCIdvBranch@@@std@@@std@@@std@@QAE@ABV01@@Z 10096a70 f i TreeEngine.obj
 0001:00095ad0       ??0?$_Vector_val@U?$_Simple_types@PAUSIdvBranchInfo@@@std@@@std@@QAE@XZ 10096ad0 f i TreeEngine.obj
 0001:00095b50       ??0?$_Vector_val@U?$_Simple_types@PAVCIdvBranch@@@std@@@std@@QAE@XZ 10096b50 f i TreeEngine.obj
 0001:00095bd0       ??0?$allocator@PAUSIdvBranchInfo@@@std@@QAE@XZ 10096bd0 f i TreeEngine.obj
 0001:00095bf0       ??0?$allocator@PAVCIdvBranch@@@std@@QAE@XZ 10096bf0 f i TreeEngine.obj
 0001:00095c10       ??0?$vector@PAUSIdvBranchInfo@@V?$allocator@PAUSIdvBranchInfo@@@std@@@std@@QAE@XZ 10096c10 f i TreeEngine.obj
 0001:00095cd0       ??0?$vector@PAVCIdvBranch@@V?$allocator@PAVCIdvBranch@@@std@@@std@@QAE@XZ 10096cd0 f i TreeEngine.obj
 0001:00095d90       ??0CTreeEngine@@QAE@PAVCIndexedGeometry@@@Z 10096d90 f   TreeEngine.obj
 0001:00095ff0       ??0SIdvLeafTexture@@QAE@ABU0@@Z 10096ff0 f i TreeEngine.obj
 0001:00096100       ??1?$_Alloc_temporary2@V?$allocator@PAVCIdvBranch@@@std@@@std@@QAE@XZ 10097100 f i TreeEngine.obj
 0001:000961b0       ??1?$_Uninitialized_backout_al@V?$allocator@PAUSIdvBranchInfo@@@std@@@std@@QAE@XZ 100971b0 f i TreeEngine.obj
 0001:00096220       ??1?$_Uninitialized_backout_al@V?$allocator@PBUSIdvBranchInfo@@@std@@@std@@QAE@XZ 10097220 f i TreeEngine.obj
 0001:00096290       ??1?$vector@PAUSIdvBranchInfo@@V?$allocator@PAUSIdvBranchInfo@@@std@@@std@@QAE@XZ 10097290 f i TreeEngine.obj
 0001:00096370       ??1?$vector@PAVCIdvBranch@@V?$allocator@PAVCIdvBranch@@@std@@@std@@QAE@XZ 10097370 f i TreeEngine.obj
 0001:00096450       ??1?$vector@USLodEntry@CLeafLodEngine@@V?$allocator@USLodEntry@CLeafLodEngine@@@std@@@std@@QAE@XZ 10097450 f i TreeEngine.obj
 0001:00096530       ??1CLeafLodEngine@@QAE@XZ  10097530 f i TreeEngine.obj
 0001:00096580       ??1CTreeEngine@@UAE@XZ     10097580 f i TreeEngine.obj
 0001:00096620       ??1SIdvTreeInfo@@QAE@XZ    10097620 f i TreeEngine.obj
 0001:00096670       ??4?$vector@PAVCBillboardLeaf@@V?$allocator@PAVCBillboardLeaf@@@std@@@std@@QAEAAV01@ABV01@@Z 10097670 f i TreeEngine.obj
 0001:00096740       ??4?$vector@USIdvLeafTexture@@V?$allocator@USIdvLeafTexture@@@std@@@std@@QAEAAV01@ABV01@@Z 10097740 f i TreeEngine.obj
 0001:00096810       ??4SIdvLeafInfo@@QAEAAU0@ABU0@@Z 10097810 f i TreeEngine.obj
 0001:00096930       ??4SIdvTreeInfo@@QAEAAU0@ABU0@@Z 10097930 f i TreeEngine.obj
 0001:000969f0       ??A?$vector@PAUSIdvBranchInfo@@V?$allocator@PAUSIdvBranchInfo@@@std@@@std@@QAEAAPAUSIdvBranchInfo@@I@Z 100979f0 f i TreeEngine.obj
 0001:00096ae0       ??A?$vector@PAUSIdvBranchInfo@@V?$allocator@PAUSIdvBranchInfo@@@std@@@std@@QBEABQAUSIdvBranchInfo@@I@Z 10097ae0 f i TreeEngine.obj
 0001:00096bd0       ??A?$vector@PAVCBillboardLeaf@@V?$allocator@PAVCBillboardLeaf@@@std@@@std@@QAEAAPAVCBillboardLeaf@@I@Z 10097bd0 f i TreeEngine.obj
 0001:00096cc0       ??A?$vector@PAVCIdvBranch@@V?$allocator@PAVCIdvBranch@@@std@@@std@@QAEAAPAVCIdvBranch@@I@Z 10097cc0 f i TreeEngine.obj
 0001:00096db0       ??H?$_Vector_iterator@V?$_Vector_val@U?$_Simple_types@PAVCIdvBranch@@@std@@@std@@@std@@QBE?AV01@H@Z 10097db0 f i TreeEngine.obj
 0001:00096e70       ??Y?$_Vector_const_iterator@V?$_Vector_val@U?$_Simple_types@PAVCIdvBranch@@@std@@@std@@@std@@QAEAAV01@H@Z 10097e70 f i TreeEngine.obj
 0001:00096ee0       ??Y?$_Vector_iterator@V?$_Vector_val@U?$_Simple_types@PAVCIdvBranch@@@std@@@std@@@std@@QAEAAV01@H@Z 10097ee0 f i TreeEngine.obj
 0001:00096f40       ??_E?$vector@PAVCBillboardLeaf@@V?$allocator@PAVCBillboardLeaf@@@std@@@std@@QAEPAXI@Z 10097f40 f i TreeEngine.obj
 0001:00097050       ??_ECTreeEngine@@UAEPAXI@Z 10098050 f i TreeEngine.obj
 0001:00097050       ??_GCTreeEngine@@UAEPAXI@Z 10098050 f i TreeEngine.obj
 0001:000970d0       ??_GSIdvBranchInfo@@QAEPAXI@Z 100980d0 f i TreeEngine.obj
 0001:00097140       ?AddBranchInfo@CIdvBranch@@SAXPBUSIdvBranchInfo@@@Z 10098140 f i TreeEngine.obj
 0001:00097190       ?BuildBranchLods@CTreeEngine@@AAEXXZ 10098190 f   TreeEngine.obj
 0001:00097a10       ?BuildLeafLods@CTreeEngine@@AAEXM@Z 10098a10 f   TreeEngine.obj
 0001:00097db0       ?ClearBranchInfo@CTreeEngine@@QAEXXZ 10098db0 f i TreeEngine.obj
 0001:00097e00       ?Clone@CTreeEngine@@QBEXPAV1@ABVCVec3@@I@Z 10098e00 f   TreeEngine.obj
 0001:000980b0       ?Compute@CTreeEngine@@QAEXM@Z 100990b0 f   TreeEngine.obj
 0001:00098620       ?ComputeLod@CTreeEngine@@QAEMXZ 10099620 f   TreeEngine.obj
 0001:00098710       ?FreeTransientData@CTreeEngine@@QAEXXZ 10099710 f   TreeEngine.obj
 0001:000989f0       ?GetLodLimits@CTreeEngine@@QBEXAAM0@Z 100999f0 f   TreeEngine.obj
 0001:00098a30       ?GetSize@CTreeEngine@@QAEXAAM0@Z 10099a30 f   TreeEngine.obj
 0001:00098a70       ?GetVolume@CIdvBranch@@QBEMXZ 10099a70 f i TreeEngine.obj
 0001:00098aa0       ?OverrideTreeSize@CTreeEngine@@QAEXMM@Z 10099aa0 f   TreeEngine.obj
 0001:00098ae0       ?Parse@CTreeEngine@@QAE_NAAVCTreeFileAccess@@@Z 10099ae0 f   TreeEngine.obj
 0001:00098ee0       ?ParseBranchInfo@CTreeEngine@@AAEXAAVCTreeFileAccess@@@Z 10099ee0 f   TreeEngine.obj
 0001:00099090       ?ParseFlareInfo@CTreeEngine@@QAEXAAVCTreeFileAccess@@@Z 1009a090 f   TreeEngine.obj
 0001:00099900       ?ParseFlareSeed@CTreeEngine@@QAEXAAVCTreeFileAccess@@@Z 1009a900 f   TreeEngine.obj
 0001:00099960       ?ParseLeafCluster@CTreeEngine@@AAEXAAVCTreeFileAccess@@@Z 1009a960 f   TreeEngine.obj
 0001:00099d30       ?ParseLodInfo@CTreeEngine@@QAEXAAVCTreeFileAccess@@@Z 1009ad30 f   TreeEngine.obj
 0001:00099f70       ?ParseTextureControls@CTreeEngine@@QAEXAAVCTreeFileAccess@@@Z 1009af70 f   TreeEngine.obj
 0001:0009a1f0       ?ParseTreeInfo@CTreeEngine@@QAEXAAVCTreeFileAccess@@@Z 1009b1f0 f   TreeEngine.obj
 0001:0009a500       ?Save@CTreeEngine@@QBEXAAVCTreeFileAccess@@_N@Z 1009b500 f   TreeEngine.obj
 0001:0009a760       ?SaveBranchInfo@CTreeEngine@@ABEXAAVCTreeFileAccess@@@Z 1009b760 f   TreeEngine.obj
 0001:0009a850       ?SaveFlareInfo@CTreeEngine@@QBEXAAVCTreeFileAccess@@@Z 1009b850 f   TreeEngine.obj
 0001:0009aba0       ?SaveFlareSeed@CTreeEngine@@QBEXAAVCTreeFileAccess@@@Z 1009bba0 f   TreeEngine.obj
 0001:0009ac10       ?SaveLeafCluster@CTreeEngine@@ABEXAAVCTreeFileAccess@@@Z 1009bc10 f   TreeEngine.obj
 0001:0009ad60       ?SaveLodInfo@CTreeEngine@@QBEXAAVCTreeFileAccess@@@Z 1009bd60 f   TreeEngine.obj
 0001:0009af10       ?SaveTextureControls@CTreeEngine@@QBEXAAVCTreeFileAccess@@@Z 1009bf10 f   TreeEngine.obj
 0001:0009b020       ?SetBranchLevelForWeighting@CIdvBranch@@SAXH@Z 1009c020 f i TreeEngine.obj
 0001:0009b050       ?SetBranchTexture@CTreeEngine@@AAEXABVCIdvFilename@@@Z 1009c050 f i TreeEngine.obj
 0001:0009b0f0       ?SetBranchTextureFilename@CTreeEngine@@QAEXPBD@Z 1009c0f0 f   TreeEngine.obj
 0001:0009b190       ?SetComputeLeaves@CIdvBranch@@SAX_N@Z 1009c190 f i TreeEngine.obj
 0001:0009b1c0       ?SetFuzzyVolume@CIdvBranch@@QAEXM@Z 1009c1c0 f i TreeEngine.obj
 0001:0009b1f0       ?SetLeafData@CIdvBranch@@SAXPAUSIdvLeafInfo@@@Z 1009c1f0 f i TreeEngine.obj
 0001:0009b220       ?SetLeafTextureFilename@CTreeEngine@@QAEXIPBD@Z 1009c220 f   TreeEngine.obj
 0001:0009b370       ?SetLeafTextures@CTreeEngine@@AAEXABV?$vector@USIdvLeafTexture@@V?$allocator@USIdvLeafTexture@@@std@@@std@@@Z 1009c370 f i TreeEngine.obj
 0001:0009b3d0       ?SetLodLimits@CTreeEngine@@QAEXMM@Z 1009c3d0 f   TreeEngine.obj
 0001:0009b410       ?SetRoundRobinWindLevel@CIdvBranch@@SAXH@Z 1009c410 f i TreeEngine.obj
 0001:0009b440       ?SetSeed@CTreeEngine@@QAEXI@Z 1009c440 f   TreeEngine.obj
 0001:0009b500       ?SetSize@CTreeEngine@@QAEXMM@Z 1009c500 f   TreeEngine.obj
 0001:0009b540       ?SetWind@CTreeEngine@@QAEXM@Z 1009c540 f   TreeEngine.obj
 0001:0009b670       ?_Buy_raw@?$vector@USIdvLeafTexture@@V?$allocator@USIdvLeafTexture@@@std@@@std@@AAEXI@Z 1009c670 f i TreeEngine.obj
 0001:0009b720       ?_Calculate_growth@?$vector@PAUSIdvBranchInfo@@V?$allocator@PAUSIdvBranchInfo@@@std@@@std@@ABEII@Z 1009c720 f i TreeEngine.obj
 0001:0009b7c0       ?_Calculate_growth@?$vector@PBUSIdvBranchInfo@@V?$allocator@PBUSIdvBranchInfo@@@std@@@std@@ABEII@Z 1009c7c0 f i TreeEngine.obj
 0001:0009b860       ?_Change_array@?$vector@PAUSIdvBranchInfo@@V?$allocator@PAUSIdvBranchInfo@@@std@@@std@@AAEXQAPAUSIdvBranchInfo@@II@Z 1009c860 f i TreeEngine.obj
 0001:0009b960       ?_Change_array@?$vector@PBUSIdvBranchInfo@@V?$allocator@PBUSIdvBranchInfo@@@std@@@std@@AAEXQAPBUSIdvBranchInfo@@II@Z 1009c960 f i TreeEngine.obj
 0001:0009ba60       ?_Clear_and_reserve_geometric@?$vector@PAVCBillboardLeaf@@V?$allocator@PAVCBillboardLeaf@@@std@@@std@@AAEXI@Z 1009ca60 f i TreeEngine.obj
 0001:0009bb90       ?_Clear_and_reserve_geometric@?$vector@USIdvLeafTexture@@V?$allocator@USIdvLeafTexture@@@std@@@std@@AAEXI@Z 1009cb90 f i TreeEngine.obj
 0001:0009bcc0       ?_Equal@?$basic_string@DU?$char_traits@D@std@@V?$allocator@D@2@@std@@QBE_NABV12@@Z 1009ccc0 f i TreeEngine.obj
 0001:0009bd40       ?_Get_first@?$_Compressed_pair@V?$allocator@PAUSIdvBranchInfo@@@std@@V?$_Vector_val@U?$_Simple_types@PAUSIdvBranchInfo@@@std@@@2@$00@std@@QAEAAV?$allocator@PAUSIdvBranchInfo@@@2@XZ 1009cd40 f i TreeEngine.obj
 0001:0009bd60       ?_Get_first@?$_Compressed_pair@V?$allocator@PAUSIdvBranchInfo@@@std@@V?$_Vector_val@U?$_Simple_types@PAUSIdvBranchInfo@@@std@@@2@$00@std@@QBEABV?$allocator@PAUSIdvBranchInfo@@@2@XZ 1009cd60 f i TreeEngine.obj
 0001:0009bd80       ?_Get_first@?$_Compressed_pair@V?$allocator@PBUSIdvBranchInfo@@@std@@V?$_Vector_val@U?$_Simple_types@PBUSIdvBranchInfo@@@std@@@2@$00@std@@QBEABV?$allocator@PBUSIdvBranchInfo@@@2@XZ 1009cd80 f i TreeEngine.obj
 0001:0009bda0       ?_Get_value@?$_Alloc_temporary2@V?$allocator@PAVCIdvBranch@@@std@@@std@@QAEAAPAVCIdvBranch@@XZ 1009cda0 f i TreeEngine.obj
 0001:0009bdd0       ?_Getal@?$vector@PAUSIdvBranchInfo@@V?$allocator@PAUSIdvBranchInfo@@@std@@@std@@AAEAAV?$allocator@PAUSIdvBranchInfo@@@2@XZ 1009cdd0 f i TreeEngine.obj
 0001:0009be20       ?_Getal@?$vector@PAUSIdvBranchInfo@@V?$allocator@PAUSIdvBranchInfo@@@std@@@std@@ABEABV?$allocator@PAUSIdvBranchInfo@@@2@XZ 1009ce20 f i TreeEngine.obj
 0001:0009be70       ?_Getal@?$vector@PBUSIdvBranchInfo@@V?$allocator@PBUSIdvBranchInfo@@@std@@@std@@ABEABV?$allocator@PBUSIdvBranchInfo@@@2@XZ 1009ce70 f i TreeEngine.obj
 0001:0009bec0       ?_Make_iterator@?$vector@PAVCIdvBranch@@V?$allocator@PAVCIdvBranch@@@std@@@std@@AAE?AV?$_Vector_iterator@V?$_Vector_val@U?$_Simple_types@PAVCIdvBranch@@@std@@@std@@@2@QAPAVCIdvBranch@@@Z 1009cec0 f i TreeEngine.obj
 0001:0009bf30       ?_Orphan_range@?$vector@PAUSIdvBranchInfo@@V?$allocator@PAUSIdvBranchInfo@@@std@@@std@@ABEXPAPAUSIdvBranchInfo@@0@Z 1009cf30 f i TreeEngine.obj
 0001:0009bf90       ?_Orphan_range@?$vector@PBUSIdvBranchInfo@@V?$allocator@PBUSIdvBranchInfo@@@std@@@std@@ABEXPAPBUSIdvBranchInfo@@0@Z 1009cf90 f i TreeEngine.obj
 0001:0009bff0       ?_Orphan_range_locked@?$vector@PAUSIdvBranchInfo@@V?$allocator@PAUSIdvBranchInfo@@@std@@@std@@ABEXPAPAUSIdvBranchInfo@@0@Z 1009cff0 f i TreeEngine.obj
 0001:0009c100       ?_Orphan_range_locked@?$vector@PBUSIdvBranchInfo@@V?$allocator@PBUSIdvBranchInfo@@@std@@@std@@ABEXPAPBUSIdvBranchInfo@@0@Z 1009d100 f i TreeEngine.obj
 0001:0009c210       ?_Orphan_range_unlocked@?$vector@PAUSIdvBranchInfo@@V?$allocator@PAUSIdvBranchInfo@@@std@@@std@@ABEXPAPAUSIdvBranchInfo@@0@Z 1009d210 f i TreeEngine.obj
 0001:0009c2a0       ?_Orphan_range_unlocked@?$vector@PBUSIdvBranchInfo@@V?$allocator@PBUSIdvBranchInfo@@@std@@@std@@ABEXPAPBUSIdvBranchInfo@@0@Z 1009d2a0 f i TreeEngine.obj
 0001:0009c330       ?_Release@?$_Uninitialized_backout_al@V?$allocator@PAUSIdvBranchInfo@@@std@@@std@@QAEPAPAUSIdvBranchInfo@@XZ 1009d330 f i TreeEngine.obj
 0001:0009c360       ?_Release@?$_Uninitialized_backout_al@V?$allocator@PBUSIdvBranchInfo@@@std@@@std@@QAEPAPBUSIdvBranchInfo@@XZ 1009d360 f i TreeEngine.obj
 0001:0009c390       ?_Tidy@?$vector@PAUSIdvBranchInfo@@V?$allocator@PAUSIdvBranchInfo@@@std@@@std@@AAEXXZ 1009d390 f i TreeEngine.obj
 0001:0009c4c0       ?_Tidy@?$vector@PAVCIdvBranch@@V?$allocator@PAVCIdvBranch@@@std@@@std@@AAEXXZ 1009d4c0 f i TreeEngine.obj
 0001:0009c5f0       ?_Tidy@?$vector@USLodEntry@CLeafLodEngine@@V?$allocator@USLodEntry@CLeafLodEngine@@@std@@@std@@AAEXXZ 1009d5f0 f i TreeEngine.obj
 0001:0009c720       ?_Verify_offset@?$_Vector_const_iterator@V?$_Vector_val@U?$_Simple_types@PAVCIdvBranch@@@std@@@std@@@std@@QBEXH@Z 1009d720 f i TreeEngine.obj
 0001:0009c9b0       ?_Xlength@?$vector@PAUSIdvBranchInfo@@V?$allocator@PAUSIdvBranchInfo@@@std@@@std@@CAXXZ 1009d9b0 f i TreeEngine.obj
 0001:0009ca00       ?_Xlength@?$vector@PBUSIdvBranchInfo@@V?$allocator@PBUSIdvBranchInfo@@@std@@@std@@CAXXZ 1009da00 f i TreeEngine.obj
 0001:0009ca50       ?allocate@?$allocator@PAUSIdvBranchInfo@@@std@@QAEPAPAUSIdvBranchInfo@@I@Z 1009da50 f i TreeEngine.obj
 0001:0009cab0       ?allocate@?$allocator@PBUSIdvBranchInfo@@@std@@QAEPAPBUSIdvBranchInfo@@I@Z 1009dab0 f i TreeEngine.obj
 0001:0009cb10       ?capacity@?$vector@PAUSIdvBranchInfo@@V?$allocator@PAUSIdvBranchInfo@@@std@@@std@@QBEIXZ 1009db10 f i TreeEngine.obj
 0001:0009cb50       ?capacity@?$vector@PBUSIdvBranchInfo@@V?$allocator@PBUSIdvBranchInfo@@@std@@@std@@QBEIXZ 1009db50 f i TreeEngine.obj
 0001:0009cb90       ?clear@?$vector@PAUSIdvBranchInfo@@V?$allocator@PAUSIdvBranchInfo@@@std@@@std@@QAEXXZ 1009db90 f i TreeEngine.obj
 0001:0009cc40       ?deallocate@?$allocator@PAUSIdvBranchInfo@@@std@@QAEXQAPAUSIdvBranchInfo@@I@Z 1009dc40 f i TreeEngine.obj
 0001:0009cd30       ?erase@?$vector@PAVCIdvBranch@@V?$allocator@PAVCIdvBranch@@@std@@@std@@QAE?AV?$_Vector_iterator@V?$_Vector_val@U?$_Simple_types@PAVCIdvBranch@@@std@@@std@@@2@V?$_Vector_const_iterator@V?$_Vector_val@U?$_Simple_types@PAVCIdvBranch@@@std@@@std@@@2@@Z 1009dd30 f i TreeEngine.obj
 0001:0009cf30       ?insert@?$vector@PAVCIdvBranch@@V?$allocator@PAVCIdvBranch@@@std@@@std@@QAE?AV?$_Vector_iterator@V?$_Vector_val@U?$_Simple_types@PAVCIdvBranch@@@std@@@std@@@2@V?$_Vector_const_iterator@V?$_Vector_val@U?$_Simple_types@PAVCIdvBranch@@@std@@@std@@@2@ABQAVCIdvBranch@@@Z 1009df30 f i TreeEngine.obj
 0001:0009d020       ?max_size@?$_Default_allocator_traits@V?$allocator@PAUSIdvBranchInfo@@@std@@@std@@SAIABV?$allocator@PAUSIdvBranchInfo@@@2@@Z 1009e020 f i TreeEngine.obj
 0001:0009d040       ?max_size@?$_Default_allocator_traits@V?$allocator@PBUSIdvBranchInfo@@@std@@@std@@SAIABV?$allocator@PBUSIdvBranchInfo@@@2@@Z 1009e040 f i TreeEngine.obj
 0001:0009d060       ?max_size@?$vector@PAUSIdvBranchInfo@@V?$allocator@PAUSIdvBranchInfo@@@std@@@std@@QBEIXZ 1009e060 f i TreeEngine.obj
 0001:0009d0f0       ?max_size@?$vector@PBUSIdvBranchInfo@@V?$allocator@PBUSIdvBranchInfo@@@std@@@std@@QBEIXZ 1009e0f0 f i TreeEngine.obj
 0001:0009d180       ?push_back@?$vector@PAUSIdvBranchInfo@@V?$allocator@PAUSIdvBranchInfo@@@std@@@std@@QAEXABQAUSIdvBranchInfo@@@Z 1009e180 f i TreeEngine.obj
 0001:0009d1e0       ?push_back@?$vector@PAVCBillboardLeaf@@V?$allocator@PAVCBillboardLeaf@@@std@@@std@@QAEX$$QAPAVCBillboardLeaf@@@Z 1009e1e0 f i TreeEngine.obj
 0001:0009d240       ?push_back@?$vector@PAVCIdvBranch@@V?$allocator@PAVCIdvBranch@@@std@@@std@@QAEXABQAVCIdvBranch@@@Z 1009e240 f i TreeEngine.obj
 0001:0009d2a0       ?push_back@?$vector@PBUSIdvBranchInfo@@V?$allocator@PBUSIdvBranchInfo@@@std@@@std@@QAEXABQBUSIdvBranchInfo@@@Z 1009e2a0 f i TreeEngine.obj
 0001:0009d300       ?size@?$vector@PAUSIdvBranchInfo@@V?$allocator@PAUSIdvBranchInfo@@@std@@@std@@QBEIXZ 1009e300 f i TreeEngine.obj
 0001:0009d340       ?size@?$vector@PAVCIdvBranch@@V?$allocator@PAVCIdvBranch@@@std@@@std@@QBEIXZ 1009e340 f i TreeEngine.obj
 0001:0009d380       ??0SIdvTreeInfo@@QAE@XZ    1009e380 f   TreeInfo.obj
 0001:0009d440       ??0CWindEngine@@QAE@XZ     1009e440 f   WindEngine.obj
 0001:0009d570       ??0CWindMatrices@@QAE@XZ   1009e570 f i WindEngine.obj
 0001:0009d690       ??1CWindMatrices@@QAE@XZ   1009e690 f i WindEngine.obj
 0001:0009d710       ?Init@CWindEngine@@QAEXABUSIdvWindInfo@@@Z 1009e710 f   WindEngine.obj
 0001:0009d820       ?ResetLeafWindState@CWindEngine@@QAEXXZ 1009e820 f   WindEngine.obj
 0001:0009d880       ?RockLeaf@CWindEngine@@QBEXMMHAAVCRotTransform@@@Z 1009e880 f   WindEngine.obj
 0001:0009d9e0       ?RockLeaf@CWindEngine@@QBEXMMHMAAVCRotTransform@@@Z 1009e9e0 f   WindEngine.obj
 0001:0009dc10       ?SetLocalMatrices@CWindEngine@@QAEXII@Z 1009ec10 f   WindEngine.obj
 0001:0009dc50       ?SetWindStrength@CWindEngine@@QAEMMMM@Z 1009ec50 f   WindEngine.obj
 0001:0009dd70       ?SetWindStrengthAndLeafAngles@CWindEngine@@QAEXMPBM0I@Z 1009ed70 f   WindEngine.obj
 0001:0009ddc0       ??0SIdvWindInfo@@QAE@XZ    1009edc0 f   WindInfo.obj
 0001:0009de80       ?Parse@SIdvWindInfo@@QAEXAAVCTreeFileAccess@@@Z 1009ee80 f   WindInfo.obj
 0001:0009e0e0       ?Save@SIdvWindInfo@@QBEXAAVCTreeFileAccess@@@Z 1009f0e0 f   WindInfo.obj
 0001:0009e277       ??0_Lockit@std@@QAE@H@Z    1009f277 f   msvcprtd:MSVCP140D.dll
 0001:0009e27d       ??1_Lockit@std@@QAE@XZ     1009f27d f   msvcprtd:MSVCP140D.dll
 0001:0009e283       ?_Xlength_error@std@@YAXPBD@Z 1009f283 f   msvcprtd:MSVCP140D.dll
 0001:0009e289       ?uncaught_exception@std@@YA_NXZ 1009f289 f   msvcprtd:MSVCP140D.dll
 0001:0009e28f       ?good@ios_base@std@@QBE_NXZ 1009f28f f   msvcprtd:MSVCP140D.dll
 0001:0009e295       ?flags@ios_base@std@@QBEHXZ 1009f295 f   msvcprtd:MSVCP140D.dll
 0001:0009e29b       ?width@ios_base@std@@QBE_JXZ 1009f29b f   msvcprtd:MSVCP140D.dll
 0001:0009e2a1       ?width@ios_base@std@@QAE_J_J@Z 1009f2a1 f   msvcprtd:MSVCP140D.dll
 0001:0009e2a7       ?sputc@?$basic_streambuf@DU?$char_traits@D@std@@@std@@QAEHD@Z 1009f2a7 f   msvcprtd:MSVCP140D.dll
 0001:0009e2ad       ?sputn@?$basic_streambuf@DU?$char_traits@D@std@@@std@@QAE_JPBD_J@Z 1009f2ad f   msvcprtd:MSVCP140D.dll
 0001:0009e2b3       ?setstate@?$basic_ios@DU?$char_traits@D@std@@@std@@QAEXH_N@Z 1009f2b3 f   msvcprtd:MSVCP140D.dll
 0001:0009e2b9       ?tie@?$basic_ios@DU?$char_traits@D@std@@@std@@QBEPAV?$basic_ostream@DU?$char_traits@D@std@@@2@XZ 1009f2b9 f   msvcprtd:MSVCP140D.dll
 0001:0009e2bf       ?rdbuf@?$basic_ios@DU?$char_traits@D@std@@@std@@QBEPAV?$basic_streambuf@DU?$char_traits@D@std@@@2@XZ 1009f2bf f   msvcprtd:MSVCP140D.dll
 0001:0009e2c5       ?fill@?$basic_ios@DU?$char_traits@D@std@@@std@@QBEDXZ 1009f2c5 f   msvcprtd:MSVCP140D.dll
 0001:0009e2cb       ?widen@?$basic_ios@DU?$char_traits@D@std@@@std@@QBEDD@Z 1009f2cb f   msvcprtd:MSVCP140D.dll
 0001:0009e2d1       ?_Osfx@?$basic_ostream@DU?$char_traits@D@std@@@std@@QAEXXZ 1009f2d1 f   msvcprtd:MSVCP140D.dll
 0001:0009e2d7       ??6?$basic_ostream@DU?$char_traits@D@std@@@std@@QAEAAV01@P6AAAV01@AAV01@@Z@Z 1009f2d7 f   msvcprtd:MSVCP140D.dll
 0001:0009e2dd       ??6?$basic_ostream@DU?$char_traits@D@std@@@std@@QAEAAV01@J@Z 1009f2dd f   msvcprtd:MSVCP140D.dll
 0001:0009e2e3       ?put@?$basic_ostream@DU?$char_traits@D@std@@@std@@QAEAAV12@D@Z 1009f2e3 f   msvcprtd:MSVCP140D.dll
 0001:0009e2e9       ?flush@?$basic_ostream@DU?$char_traits@D@std@@@std@@QAEAAV12@XZ 1009f2e9 f   msvcprtd:MSVCP140D.dll
 0001:0009e2ef       ??6?$basic_ostream@DU?$char_traits@D@std@@@std@@QAEAAV01@M@Z 1009f2ef f   msvcprtd:MSVCP140D.dll
 0001:000b0d10       ___std_bitset_to_string_1@20 100b1d10 f   msvcprtd:vector_algorithms.obj
 0001:000b11f0       ___std_bitset_to_string_2@20 100b21f0 f   msvcprtd:vector_algorithms.obj
 0001:000b16b0       ___std_count_trivial_1@12  100b26b0 f   msvcprtd:vector_algorithms.obj
 0001:000b16d0       ___std_count_trivial_2@12  100b26d0 f   msvcprtd:vector_algorithms.obj
 0001:000b16f0       ___std_count_trivial_4@12  100b26f0 f   msvcprtd:vector_algorithms.obj
 0001:000b1710       ___std_count_trivial_8@16  100b2710 f   msvcprtd:vector_algorithms.obj
 0001:000b1740       ___std_find_last_trivial_1@12 100b2740 f   msvcprtd:vector_algorithms.obj
 0001:000b1760       ___std_find_last_trivial_2@12 100b2760 f   msvcprtd:vector_algorithms.obj
 0001:000b1780       ___std_find_last_trivial_4@12 100b2780 f   msvcprtd:vector_algorithms.obj
 0001:000b17a0       ___std_find_last_trivial_8@16 100b27a0 f   msvcprtd:vector_algorithms.obj
 0001:000b17d0       ___std_find_trivial_1@12   100b27d0 f   msvcprtd:vector_algorithms.obj
 0001:000b17f0       ___std_find_trivial_2@12   100b27f0 f   msvcprtd:vector_algorithms.obj
 0001:000b1810       ___std_find_trivial_4@12   100b2810 f   msvcprtd:vector_algorithms.obj
 0001:000b1830       ___std_find_trivial_8@16   100b2830 f   msvcprtd:vector_algorithms.obj
 0001:000b1860       ___std_find_trivial_unsized_1@8 100b2860 f   msvcprtd:vector_algorithms.obj
 0001:000b1880       ___std_find_trivial_unsized_2@8 100b2880 f   msvcprtd:vector_algorithms.obj
 0001:000b18a0       ___std_find_trivial_unsized_4@8 100b28a0 f   msvcprtd:vector_algorithms.obj
 0001:000b18c0       ___std_find_trivial_unsized_8@12 100b28c0 f   msvcprtd:vector_algorithms.obj
 0001:000b18e0       ___std_max_1i@8            100b28e0 f   msvcprtd:vector_algorithms.obj
 0001:000b1900       ___std_max_1u@8            100b2900 f   msvcprtd:vector_algorithms.obj
 0001:000b1920       ___std_max_2i@8            100b2920 f   msvcprtd:vector_algorithms.obj
 0001:000b1940       ___std_max_2u@8            100b2940 f   msvcprtd:vector_algorithms.obj
 0001:000b1960       ___std_max_4i@8            100b2960 f   msvcprtd:vector_algorithms.obj
 0001:000b1980       ___std_max_4u@8            100b2980 f   msvcprtd:vector_algorithms.obj
 0001:000b19a0       ___std_max_8i@8            100b29a0 f   msvcprtd:vector_algorithms.obj
 0001:000b19c0       ___std_max_8u@8            100b29c0 f   msvcprtd:vector_algorithms.obj
 0001:000b19e0       ___std_max_d@8             100b29e0 f   msvcprtd:vector_algorithms.obj
 0001:000b1a00       ___std_max_element_1@12    100b2a00 f   msvcprtd:vector_algorithms.obj
 0001:000b1a20       ___std_max_element_2@12    100b2a20 f   msvcprtd:vector_algorithms.obj
 0001:000b1a40       ___std_max_element_4@12    100b2a40 f   msvcprtd:vector_algorithms.obj
 0001:000b1a60       ___std_max_element_8@12    100b2a60 f   msvcprtd:vector_algorithms.obj
 0001:000b1a80       ___std_max_element_d@12    100b2a80 f   msvcprtd:vector_algorithms.obj
 0001:000b1aa0       ___std_max_element_f@12    100b2aa0 f   msvcprtd:vector_algorithms.obj
 0001:000b1ac0       ___std_max_f@8             100b2ac0 f   msvcprtd:vector_algorithms.obj
 0001:000b1ae0       ___std_min_1i@8            100b2ae0 f   msvcprtd:vector_algorithms.obj
 0001:000b1b00       ___std_min_1u@8            100b2b00 f   msvcprtd:vector_algorithms.obj
 0001:000b1b20       ___std_min_2i@8            100b2b20 f   msvcprtd:vector_algorithms.obj
 0001:000b1b40       ___std_min_2u@8            100b2b40 f   msvcprtd:vector_algorithms.obj
 0001:000b1b60       ___std_min_4i@8            100b2b60 f   msvcprtd:vector_algorithms.obj
 0001:000b1b80       ___std_min_4u@8            100b2b80 f   msvcprtd:vector_algorithms.obj
 0001:000b1ba0       ___std_min_8i@8            100b2ba0 f   msvcprtd:vector_algorithms.obj
 0001:000b1bc0       ___std_min_8u@8            100b2bc0 f   msvcprtd:vector_algorithms.obj
 0001:000b1be0       ___std_min_d@8             100b2be0 f   msvcprtd:vector_algorithms.obj
 0001:000b1c00       ___std_min_element_1@12    100b2c00 f   msvcprtd:vector_algorithms.obj
 0001:000b1c20       ___std_min_element_2@12    100b2c20 f   msvcprtd:vector_algorithms.obj
 0001:000b1c40       ___std_min_element_4@12    100b2c40 f   msvcprtd:vector_algorithms.obj
 0001:000b1c60       ___std_min_element_8@12    100b2c60 f   msvcprtd:vector_algorithms.obj
 0001:000b1c80       ___std_min_element_d@12    100b2c80 f   msvcprtd:vector_algorithms.obj
 0001:000b1ca0       ___std_min_element_f@12    100b2ca0 f   msvcprtd:vector_algorithms.obj
 0001:000b1cc0       ___std_min_f@8             100b2cc0 f   msvcprtd:vector_algorithms.obj
 0001:000b1ce0       ___std_minmax_1i@8         100b2ce0 f   msvcprtd:vector_algorithms.obj
 0001:000b1d10       ___std_minmax_1u@8         100b2d10 f   msvcprtd:vector_algorithms.obj
 0001:000b1d40       ___std_minmax_2i@8         100b2d40 f   msvcprtd:vector_algorithms.obj
 0001:000b1d70       ___std_minmax_2u@8         100b2d70 f   msvcprtd:vector_algorithms.obj
 0001:000b1da0       ___std_minmax_4i@8         100b2da0 f   msvcprtd:vector_algorithms.obj
 0001:000b1dd0       ___std_minmax_4u@8         100b2dd0 f   msvcprtd:vector_algorithms.obj
 0001:000b1e00       ___std_minmax_8i@8         100b2e00 f   msvcprtd:vector_algorithms.obj
 0001:000b1e50       ___std_minmax_8u@8         100b2e50 f   msvcprtd:vector_algorithms.obj
 0001:000b1ea0       ___std_minmax_d@8          100b2ea0 f   msvcprtd:vector_algorithms.obj
 0001:000b1ef0       ___std_minmax_element_1@12 100b2ef0 f   msvcprtd:vector_algorithms.obj
 0001:000b1f30       ___std_minmax_element_2@12 100b2f30 f   msvcprtd:vector_algorithms.obj
 0001:000b1f70       ___std_minmax_element_4@12 100b2f70 f   msvcprtd:vector_algorithms.obj
 0001:000b1fb0       ___std_minmax_element_8@12 100b2fb0 f   msvcprtd:vector_algorithms.obj
 0001:000b1ff0       ___std_minmax_element_d@12 100b2ff0 f   msvcprtd:vector_algorithms.obj
 0001:000b2030       ___std_minmax_element_f@12 100b3030 f   msvcprtd:vector_algorithms.obj
 0001:000b2070       ___std_minmax_f@8          100b3070 f   msvcprtd:vector_algorithms.obj
 0001:000b20a0       ___std_reverse_copy_trivially_copyable_1 100b30a0 f   msvcprtd:vector_algorithms.obj
 0001:000b2330       ___std_reverse_copy_trivially_copyable_2 100b3330 f   msvcprtd:vector_algorithms.obj
 0001:000b25c0       ___std_reverse_copy_trivially_copyable_4 100b35c0 f   msvcprtd:vector_algorithms.obj
 0001:000b27f0       ___std_reverse_copy_trivially_copyable_8 100b37f0 f   msvcprtd:vector_algorithms.obj
 0001:000b29f0       ___std_reverse_trivially_swappable_1 100b39f0 f   msvcprtd:vector_algorithms.obj
 0001:000b2d70       ___std_reverse_trivially_swappable_2 100b3d70 f   msvcprtd:vector_algorithms.obj
 0001:000b30f0       ___std_reverse_trivially_swappable_4 100b40f0 f   msvcprtd:vector_algorithms.obj
 0001:000b33e0       ___std_reverse_trivially_swappable_8 100b43e0 f   msvcprtd:vector_algorithms.obj
 0001:000b36a0       ___std_swap_ranges_trivially_swappable 100b46a0 f   msvcprtd:vector_algorithms.obj
 0001:000b36d0       ___std_swap_ranges_trivially_swappable_noalias 100b46d0 f   msvcprtd:vector_algorithms.obj
 0001:000b39ed       ??6?$basic_ostream@DU?$char_traits@D@std@@@std@@QAEAAV01@H@Z 100b49ed f   msvcprtd:MSVCP140D.dll
 0001:000b3a00       ??2@YAPAXI@Z               100b4a00 f   MSVCRTD:new_scalar.obj
 0001:000b3a60       ??3@YAXPAXI@Z              100b4a60 f   MSVCRTD:delete_scalar_size.obj
 0001:000b3a80       @_RTC_AllocaHelper@12      100b4a80 f   MSVCRTD:stack.obj
 0001:000b3ac0       @_RTC_CheckStackVars2@12   100b4ac0 f   MSVCRTD:stack.obj
 0001:000b3bd0       @_RTC_CheckStackVars@8     100b4bd0 f   MSVCRTD:stack.obj
 0001:000b3c40       __RTC_CheckEsp             100b4c40 f   MSVCRTD:stack.obj
 0001:000b3c70       @__security_check_cookie@4 100b4c70 f   MSVCRTD:secchk.obj
 0001:000b3c90       __CRT_RTC_INIT             100b4c90 f   MSVCRTD:init.obj
 0001:000b3ca0       __CRT_RTC_INITW            100b4ca0 f   MSVCRTD:init.obj
 0001:000b3cb0       __RTC_InitBase             100b4cb0 f   MSVCRTD:init.obj
 0001:000b3cf0       __RTC_Shutdown             100b4cf0 f   MSVCRTD:init.obj
 0001:000b3d10       ??1type_info@@UAE@XZ       100b4d10 f   MSVCRTD:std_type_info_static.obj
 0001:000b3d30       ??_Etype_info@@UAEPAXI@Z   100b4d30 f i MSVCRTD:std_type_info_static.obj
 0001:000b3d30       ??_Gtype_info@@UAEPAXI@Z   100b4d30 f i MSVCRTD:std_type_info_static.obj
 0001:000b3d70       ??_U@YAPAXI@Z              100b4d70 f   MSVCRTD:new_array.obj
 0001:000b3d90       ??_V@YAXPAX@Z              100b4d90 f   MSVCRTD:delete_array.obj
 0001:000b3db0       ??_V@YAXPAXI@Z             100b4db0 f   MSVCRTD:delete_array_size.obj
 0001:000b3dd0       ?configure_argv@__scrt_narrow_argv_policy@@SAHXZ 100b4dd0 f i MSVCRTD:utility.obj
 0001:000b3ea0       ?initialize_environment@__scrt_narrow_environment_policy@@SAHXZ 100b4ea0 f i MSVCRTD:utility.obj
 0001:000b3f40       _NtCurrentTeb              100b4f40 f i MSVCRTD:utility.obj
 0001:000b3f50       ___scrt_acquire_startup_lock 100b4f50 f   MSVCRTD:utility.obj
 0001:000b3fb0       ___scrt_dllmain_after_initialize_c 100b4fb0 f   MSVCRTD:utility.obj
 0001:000b3ff0       ___scrt_dllmain_before_initialize_c 100b4ff0 f   MSVCRTD:utility.obj
 0001:000b4020       ___scrt_dllmain_crt_thread_attach 100b5020 f   MSVCRTD:utility.obj
 0001:000b4060       ___scrt_dllmain_crt_thread_detach 100b5060 f   MSVCRTD:utility.obj
 0001:000b4080       ___scrt_dllmain_exception_filter 100b5080 f   MSVCRTD:utility.obj
 0001:000b40e0       ___scrt_dllmain_uninitialize_c 100b50e0 f   MSVCRTD:utility.obj
 0001:000b4120       ___scrt_dllmain_uninitialize_critical 100b5120 f   MSVCRTD:utility.obj
 0001:000b4140       ___scrt_initialize_crt     100b5140 f   MSVCRTD:utility.obj
 0001:000b41a0       ___scrt_initialize_onexit_tables 100b51a0 f   MSVCRTD:utility.obj
 0001:000b42b0       ___scrt_is_nonwritable_in_current_image 100b52b0 f   MSVCRTD:utility.obj
 0001:000b4430       ___scrt_release_startup_lock 100b5430 f   MSVCRTD:utility.obj
 0001:000b4460       ___scrt_uninitialize_crt   100b5460 f   MSVCRTD:utility.obj
 0001:000b44b0       __onexit                   100b54b0 f   MSVCRTD:utility.obj
 0001:000b4530       _at_quick_exit             100b5530 f   MSVCRTD:utility.obj
 0001:000b4580       _atexit                    100b5580 f   MSVCRTD:utility.obj
 0001:000b45c0       __ftoui3                   100b55c0 f   MSVCRTD:ftol3.obj
 0001:000b4620       __ftoul3                   100b5620 f   MSVCRTD:ftol3.obj
 0001:000b46b0       __ftoul3_legacy            100b56b0 f   MSVCRTD:ftol3.obj
 0001:000b46e0       __ftol3                    100b56e0 f   MSVCRTD:ftol3.obj
 0001:000b4770       __dtoui3                   100b5770 f   MSVCRTD:ftol3.obj
 0001:000b4810       __dtoul3                   100b5810 f   MSVCRTD:ftol3.obj
 0001:000b48e0       __dtoul3_legacy            100b58e0 f   MSVCRTD:ftol3.obj
 0001:000b4920       __dtol3                    100b5920 f   MSVCRTD:ftol3.obj
 0001:000b4a00       __ultod3                   100b5a00 f   MSVCRTD:ftol3.obj
 0001:000b4a60       __ltod3                    100b5a60 f   MSVCRTD:ftol3.obj
 0001:000b4ac0       __ultof3                   100b5ac0 f   MSVCRTD:ftol3.obj
 0001:000b4b60       __ltof3                    100b5b60 f   MSVCRTD:ftol3.obj
 0001:000b4bc0       ___raise_securityfailure   100b5bc0 f   MSVCRTD:gs_report.obj
 0001:000b4c00       ___report_gsfailure        100b5c00 f   MSVCRTD:gs_report.obj
 0001:000b4d50       ___report_rangecheckfailure 100b5d50 f   MSVCRTD:gs_report.obj
 0001:000b4d60       ___report_securityfailure  100b5d60 f   MSVCRTD:gs_report.obj
 0001:000b4e70       ___report_securityfailureEx 100b5e70 f   MSVCRTD:gs_report.obj
 0001:000b5090       ?_RTC_AllocaFailure@@YAXPAXPAU_RTC_ALLOCA_NODE@@H@Z 100b6090 f   MSVCRTD:error.obj
 0001:000b51b0       ?_RTC_Failure@@YAXPAXH@Z   100b61b0 f   MSVCRTD:error.obj
 0001:000b5220       ?_RTC_StackFailure@@YAXPAXPBD@Z 100b6220 f   MSVCRTD:error.obj
 0001:000b56d0       __RTC_UninitUse            100b66d0 f   MSVCRTD:error.obj
 0001:000b57b0       __vsprintf_s_l             100b67b0 f i MSVCRTD:error.obj
 0001:000b57f0       _sprintf_s                 100b67f0 f i MSVCRTD:error.obj
 0001:000b5820       __ftol2_sse_excpt          100b6820 f   MSVCRTD:ftol2.obj
 0001:000b5830       __ftol2_sse                100b6830 f   MSVCRTD:ftol2.obj
 0001:000b5840       __ftoi2                    100b6840 f   MSVCRTD:ftol2.obj
 0001:000b58e0       __ftoui2                   100b68e0 f   MSVCRTD:ftol2.obj
 0001:000b59b0       __ftol2                    100b69b0 f   MSVCRTD:ftol2.obj
 0001:000b5a90       __ftoul2                   100b6a90 f   MSVCRTD:ftol2.obj
 0001:000b5b80       __ftoul2_legacy            100b6b80 f   MSVCRTD:ftol2.obj
 0001:000b5ba0       ??_L@YGXPAXIHP6EX0@Z1@Z    100b6ba0 f   MSVCRTD:ehvecctr.obj
 0001:000b5bd0       ??_L@YGXPAXIIP6EX0@Z1@Z    100b6bd0 f   MSVCRTD:ehvecctr.obj
 0001:000b5cc0       ??_M@YGXPAXIHP6EX0@Z@Z     100b6cc0 f   MSVCRTD:ehvecdtr.obj
 0001:000b5cf0       ??_M@YGXPAXIIP6EX0@Z@Z     100b6cf0 f   MSVCRTD:ehvecdtr.obj
 0001:000b5e50       ?__ArrayUnwind@@YGXPAXIIP6EX0@Z@Z 100b6e50 f   MSVCRTD:ehvecdtr.obj
 0001:000b5f30       __Init_thread_abort        100b6f30 f   MSVCRTD:thread_safe_statics.obj
 0001:000b5f60       __Init_thread_footer       100b6f60 f   MSVCRTD:thread_safe_statics.obj
 0001:000b5fc0       __Init_thread_header       100b6fc0 f   MSVCRTD:thread_safe_statics.obj
 0001:000b6050       __Init_thread_lock         100b7050 f   MSVCRTD:thread_safe_statics.obj
 0001:000b6070       __Init_thread_notify       100b7070 f   MSVCRTD:thread_safe_statics.obj
 0001:000b6090       __Init_thread_unlock       100b7090 f   MSVCRTD:thread_safe_statics.obj
 0001:000b60b0       __Init_thread_wait_v2      100b70b0 f   MSVCRTD:thread_safe_statics.obj
 0001:000b60d0       ??3@YAXPAX@Z               100b70d0 f   MSVCRTD:delete_scalar.obj
 0001:000b66f0       __CRT_INIT@12              100b76f0 f   MSVCRTD:dll_dllmain.obj
 0001:000b6710       __DllMainCRTStartup@12     100b7710 f   MSVCRTD:dll_dllmain.obj
 0001:000b6740       __allshl                   100b7740 f   MSVCRTD:llshl.obj
 0001:000b6770       ___isa_available_init      100b7770 f   MSVCRTD:cpu_disp.obj
 0001:000b6d30       ??0bad_alloc@std@@QAE@XZ   100b7d30 f i MSVCRTD:throw_bad_alloc.obj
 0001:000b6d60       ?__scrt_throw_std_bad_alloc@@YAXXZ 100b7d60 f   MSVCRTD:throw_bad_alloc.obj
 0001:000b6d90       ?__scrt_throw_std_bad_array_new_length@@YAXXZ 100b7d90 f   MSVCRTD:throw_bad_alloc.obj
 0001:000b6dc0       ?_RTC_GetErrorFunc@@YAP6AHHPBDH00ZZPBX@Z 100b7dc0 f   MSVCRTD:userapi.obj
 0001:000b6dd0       ?_RTC_GetErrorFuncW@@YAP6AHHPB_WH00ZZPBX@Z 100b7dd0 f   MSVCRTD:userapi.obj
 0001:000b6de0       __RTC_GetErrDesc           100b7de0 f   MSVCRTD:userapi.obj
 0001:000b6e00       __RTC_NumErrors            100b7e00 f   MSVCRTD:userapi.obj
 0001:000b6e10       __RTC_SetErrorFunc         100b7e10 f   MSVCRTD:userapi.obj
 0001:000b6e40       __RTC_SetErrorFuncW        100b7e40 f   MSVCRTD:userapi.obj
 0001:000b6e70       __RTC_SetErrorType         100b7e70 f   MSVCRTD:userapi.obj
 0001:000b6ea0       __get_startup_argv_mode    100b7ea0 f   MSVCRTD:argv_mode.obj
 0001:000b6eb0       ___scrt_is_ucrt_dll_in_use 100b7eb0 f   MSVCRTD:ucrt_detection.obj
 0001:000b6ee0       ___scrt_fastfail           100b7ee0 f   MSVCRTD:utility_desktop.obj
 0001:000b7070       ___scrt_get_show_window_mode 100b8070 f   MSVCRTD:utility_desktop.obj
 0001:000b70c0       ___scrt_initialize_mta     100b80c0 f   MSVCRTD:utility_desktop.obj
 0001:000b70d0       ___scrt_initialize_winrt   100b80d0 f   MSVCRTD:utility_desktop.obj
 0001:000b70e0       ___scrt_is_managed_app     100b80e0 f   MSVCRTD:utility_desktop.obj
 0001:000b7190       ___scrt_set_unhandled_exception_filter 100b8190 f   MSVCRTD:utility_desktop.obj
 0001:000b71b0       ___scrt_exe_initialize_mta 100b81b0 f   MSVCRTD:utility_desktop.obj
 0001:000b71b0       ___scrt_stub_for_initialize_mta 100b81b0 f   MSVCRTD:utility_desktop.obj
 0001:000b71c0       ___scrt_unhandled_exception_filter@4 100b81c0 f   MSVCRTD:utility_desktop.obj
 0001:000b7260       __crt_debugger_hook        100b8260 f   MSVCRTD:utility_desktop.obj
 0001:000b7280       __except_handler4          100b8280 f   MSVCRTD:chandler4gs.obj
 0001:000b72d0       @_guard_check_icall_nop@4  100b82d0 f i MSVCRTD:guard_support.obj
 0001:000b72e0       _ReadNoFence               100b82e0 f i MSVCRTD:guard_support.obj
 0001:000b7300       _ReadPointerNoFence        100b8300 f i MSVCRTD:guard_support.obj
 0001:000b7320       __InlineInterlockedExchangePointer 100b8320 f i MSVCRTD:guard_support.obj
 0001:000b7330       ___castguard_check_failure_debugbreak 100b8330 f i MSVCRTD:guard_support.obj
 0001:000b7350       ___castguard_check_failure_fastfail 100b8350 f i MSVCRTD:guard_support.obj
 0001:000b7380       ___castguard_check_failure_nop 100b8380 f i MSVCRTD:guard_support.obj
 0001:000b7390       ___castguard_check_failure_os_handled 100b8390 f i MSVCRTD:guard_support.obj
 0001:000b7400       ___castguard_check_failure_user_handled 100b8400 f i MSVCRTD:guard_support.obj
 0001:000b74d0       ___castguard_set_user_handler 100b84d0 f i MSVCRTD:guard_support.obj
 0001:000b7500       ___castguard_slow_path_check_debugbreak 100b8500 f i MSVCRTD:guard_support.obj
 0001:000b7540       ___castguard_slow_path_check_fastfail 100b8540 f i MSVCRTD:guard_support.obj
 0001:000b7590       ___castguard_slow_path_check_nop 100b8590 f i MSVCRTD:guard_support.obj
 0001:000b75a0       ___castguard_slow_path_check_os_handled 100b85a0 f i MSVCRTD:guard_support.obj
 0001:000b75f0       ___castguard_slow_path_check_user_handled 100b85f0 f i MSVCRTD:guard_support.obj
 0001:000b7690       __guard_icall_checks_enforced 100b8690 f i MSVCRTD:guard_support.obj
 0001:000b7c70       ?_RTC_GetSrcLine@@YAHPAEPA_WKPAH1K@Z 100b8c70 f   MSVCRTD:pdblkup.obj
 0001:000b80d0       __except_handler4_noexcept 100b90d0 f   MSVCRTD:chandler4_noexcept.obj
 0001:000b81e0       ___security_init_cookie    100b91e0 f   MSVCRTD:gs_support.obj
 0001:000b8280       _DllMain@12                100b9280 f   MSVCRTD:dll_dllmain_stub.obj
 0001:000b82b0       ?__scrt_initialize_type_info@@YAXXZ 100b92b0 f   MSVCRTD:tncleanup.obj
 0001:000b82d0       ?__scrt_uninitialize_type_info@@YAXXZ 100b92d0 f   MSVCRTD:tncleanup.obj
 0001:000b82f0       ___scrt_initialize_default_local_stdio_options 100b92f0 f   MSVCRTD:default_local_stdio_options.obj
 0001:000b8340       ___scrt_get_dyn_tls_init_callback 100b9340 f   MSVCRTD:dyn_tls_init.obj
 0001:000b8350       __RTC_Initialize           100b9350 f   MSVCRTD:initsect.obj
 0001:000b8390       __RTC_Terminate            100b9390 f   MSVCRTD:initsect.obj
 0001:000b83c9       _memcpy                    100b93c9 f   vcruntimed:VCRUNTIME140D.dll
 0001:000b83cf       _memmove                   100b93cf f   vcruntimed:VCRUNTIME140D.dll
 0001:000b83d5       ___std_exception_copy      100b93d5 f   vcruntimed:VCRUNTIME140D.dll
 0001:000b83db       ___std_exception_destroy   100b93db f   vcruntimed:VCRUNTIME140D.dll
 0001:000b83e1       __CxxThrowException@8      100b93e1 f   vcruntimed:VCRUNTIME140D.dll
 0001:000b83e7       ___CxxFrameHandler3        100b93e7 f   vcruntimed:VCRUNTIME140D.dll
 0001:000b83ed       _memset                    100b93ed f   vcruntimed:VCRUNTIME140D.dll
 0001:000b83f3       _memcmp                    100b93f3 f   vcruntimed:VCRUNTIME140D.dll
 0001:000b83f9       ___current_exception       100b93f9 f   vcruntimed:VCRUNTIME140D.dll
 0001:000b83ff       ___current_exception_context 100b93ff f   vcruntimed:VCRUNTIME140D.dll
 0001:000b8405       __except_handler4_common   100b9405 f   vcruntimed:VCRUNTIME140D.dll
 0001:000b840b       ___vcrt_GetModuleFileNameW 100b940b f   vcruntimed:VCRUNTIME140D.dll
 0001:000b8411       ___vcrt_GetModuleHandleW   100b9411 f   vcruntimed:VCRUNTIME140D.dll
 0001:000b8417       ___vcrt_LoadLibraryExW     100b9417 f   vcruntimed:VCRUNTIME140D.dll
 0001:000b841d       ___std_type_info_destroy_list 100b941d f   vcruntimed:VCRUNTIME140D.dll
 0001:000b8423       __invalid_parameter        100b9423 f   ucrtd:ucrtbased.dll
 0001:000b8429       __CrtDbgReport             100b9429 f   ucrtd:ucrtbased.dll
 0001:000b842f       _acos                      100b942f f   ucrtd:ucrtbased.dll
 0001:000b8435       _cos                       100b9435 f   ucrtd:ucrtbased.dll
 0001:000b843b       _sqrt                      100b943b f   ucrtd:ucrtbased.dll
 0001:000b8441       __errno                    100b9441 f   ucrtd:ucrtbased.dll
 0001:000b8447       _strerror                  100b9447 f   ucrtd:ucrtbased.dll
 0001:000b844d       _strlen                    100b944d f   ucrtd:ucrtbased.dll
 0001:000b8453       _fabs                      100b9453 f   ucrtd:ucrtbased.dll
 0001:000b8459       _pow                       100b9459 f   ucrtd:ucrtbased.dll
 0001:000b845f       _sin                       100b945f f   ucrtd:ucrtbased.dll
 0001:000b8465       _abort                     100b9465 f   ucrtd:ucrtbased.dll
 0001:000b846b       _rand                      100b946b f   ucrtd:ucrtbased.dll
 0001:000b8471       _atan2                     100b9471 f   ucrtd:ucrtbased.dll
 0001:000b8477       ___stdio_common_vsprintf   100b9477 f   ucrtd:ucrtbased.dll
 0001:000b847d       _strcpy                    100b947d f   ucrtd:ucrtbased.dll
 0001:000b8483       __time64                   100b9483 f   ucrtd:ucrtbased.dll
 0001:000b8489       _exp                       100b9489 f   ucrtd:ucrtbased.dll
 0001:000b848f       _log                       100b948f f   ucrtd:ucrtbased.dll
 0001:000b8495       _atof                      100b9495 f   ucrtd:ucrtbased.dll
 0001:000b849b       _atoi                      100b949b f   ucrtd:ucrtbased.dll
 0001:000b84a1       ___stdio_common_vsscanf    100b94a1 f   ucrtd:ucrtbased.dll
 0001:000b84a7       _strcmp                    100b94a7 f   ucrtd:ucrtbased.dll
 0001:000b84ad       _isspace                   100b94ad f   ucrtd:ucrtbased.dll
 0001:000b84b3       _asin                      100b94b3 f   ucrtd:ucrtbased.dll
 0001:000b84b9       _fclose                    100b94b9 f   ucrtd:ucrtbased.dll
 0001:000b84bf       _fopen                     100b94bf f   ucrtd:ucrtbased.dll
 0001:000b84c5       _fread                     100b94c5 f   ucrtd:ucrtbased.dll
 0001:000b84cb       _fseek                     100b94cb f   ucrtd:ucrtbased.dll
 0001:000b84d1       _ftell                     100b94d1 f   ucrtd:ucrtbased.dll
 0001:000b84d7       _srand                     100b94d7 f   ucrtd:ucrtbased.dll
 0001:000b84dd       __callnewh                 100b94dd f   ucrtd:ucrtbased.dll
 0001:000b84e3       _malloc                    100b94e3 f   ucrtd:ucrtbased.dll
 0001:000b84e9       __CrtDbgReportW            100b94e9 f   ucrtd:ucrtbased.dll
 0001:000b84ef       __seh_filter_dll           100b94ef f   ucrtd:ucrtbased.dll
 0001:000b84f5       __configure_narrow_argv    100b94f5 f   ucrtd:ucrtbased.dll
 0001:000b84fb       __initialize_narrow_environment 100b94fb f   ucrtd:ucrtbased.dll
 0001:000b8501       __initialize_onexit_table  100b9501 f   ucrtd:ucrtbased.dll
 0001:000b8507       __register_onexit_function 100b9507 f   ucrtd:ucrtbased.dll
 0001:000b850d       __execute_onexit_table     100b950d f   ucrtd:ucrtbased.dll
 0001:000b8513       __crt_atexit               100b9513 f   ucrtd:ucrtbased.dll
 0001:000b8519       __crt_at_quick_exit        100b9519 f   ucrtd:ucrtbased.dll
 0001:000b851f       __cexit                    100b951f f   ucrtd:ucrtbased.dll
 0001:000b8525       __except1                  100b9525 f   ucrtd:ucrtbased.dll
 0001:000b852b       _strcpy_s                  100b952b f   ucrtd:ucrtbased.dll
 0001:000b8531       _strcat_s                  100b9531 f   ucrtd:ucrtbased.dll
 0001:000b8537       ___stdio_common_vsprintf_s 100b9537 f   ucrtd:ucrtbased.dll
 0001:000b853d       _terminate                 100b953d f   ucrtd:ucrtbased.dll
 0001:000b8543       __free_dbg                 100b9543 f   ucrtd:ucrtbased.dll
 0001:000b8549       __initterm                 100b9549 f   ucrtd:ucrtbased.dll
 0001:000b854f       __initterm_e               100b954f f   ucrtd:ucrtbased.dll
 0001:000b8555       __wmakepath_s              100b9555 f   ucrtd:ucrtbased.dll
 0001:000b855b       __wsplitpath_s             100b955b f   ucrtd:ucrtbased.dll
 0001:000b8561       _wcscpy_s                  100b9561 f   ucrtd:ucrtbased.dll
 0001:000b8567       _UnhandledExceptionFilter@4 100b9567 f   kernel32:KERNEL32.dll
 0001:000b856d       _SetUnhandledExceptionFilter@4 100b956d f   kernel32:KERNEL32.dll
 0001:000b8573       _GetCurrentProcess@0       100b9573 f   kernel32:KERNEL32.dll
 0001:000b8579       _TerminateProcess@8        100b9579 f   kernel32:KERNEL32.dll
 0001:000b857f       _IsProcessorFeaturePresent@4 100b957f f   kernel32:KERNEL32.dll
 0001:000b8585       _IsDebuggerPresent@0       100b9585 f   kernel32:KERNEL32.dll
 0001:000b858b       _RaiseException@16         100b958b f   kernel32:KERNEL32.dll
 0001:000b8591       _MultiByteToWideChar@24    100b9591 f   kernel32:KERNEL32.dll
 0001:000b8597       _WideCharToMultiByte@32    100b9597 f   kernel32:KERNEL32.dll
 0001:000b859d       _ReleaseSRWLockExclusive@4 100b959d f   kernel32:KERNEL32.dll
 0001:000b85a3       _AcquireSRWLockExclusive@4 100b95a3 f   kernel32:KERNEL32.dll
 0001:000b85a9       _WakeAllConditionVariable@4 100b95a9 f   kernel32:KERNEL32.dll
 0001:000b85af       _SleepConditionVariableSRW@16 100b95af f   kernel32:KERNEL32.dll
 0001:000b85b5       _GetStartupInfoW@4         100b95b5 f   kernel32:KERNEL32.dll
 0001:000b85bb       _GetModuleHandleW@4        100b95bb f   kernel32:KERNEL32.dll
 0001:000b85c1       _GetLastError@0            100b95c1 f   kernel32:KERNEL32.dll
 0001:000b85c7       _HeapAlloc@12              100b95c7 f   kernel32:KERNEL32.dll
 0001:000b85cd       _HeapFree@12               100b95cd f   kernel32:KERNEL32.dll
 0001:000b85d3       _GetProcessHeap@0          100b95d3 f   kernel32:KERNEL32.dll
 0001:000b85d9       _VirtualQuery@12           100b95d9 f   kernel32:KERNEL32.dll
 0001:000b85df       _FreeLibrary@4             100b95df f   kernel32:KERNEL32.dll
 0001:000b85e5       _GetProcAddress@8          100b95e5 f   kernel32:KERNEL32.dll
 0001:000b85eb       _QueryPerformanceCounter@4 100b95eb f   kernel32:KERNEL32.dll
 0001:000b85f1       _GetCurrentProcessId@0     100b95f1 f   kernel32:KERNEL32.dll
 0001:000b85f7       _GetCurrentThreadId@0      100b95f7 f   kernel32:KERNEL32.dll
 0001:000b85fd       _GetSystemTimeAsFileTime@4 100b95fd f   kernel32:KERNEL32.dll
 0001:000b8603       _DisableThreadLibraryCalls@4 100b9603 f   kernel32:KERNEL32.dll
 0001:000b8609       _InitializeSListHead@4     100b9609 f   kernel32:KERNEL32.dll
 0001:000b8610       ___acrt_initialize         100b9610 f   MSVCRTD:ucrt_stubs.obj
 0001:000b8610       ___scrt_stub_for_acrt_initialize 100b9610 f   MSVCRTD:ucrt_stubs.obj
 0001:000b8610       ___vcrt_initialize         100b9610 f   MSVCRTD:ucrt_stubs.obj
 0001:000b8620       ___acrt_thread_attach      100b9620 f   MSVCRTD:ucrt_stubs.obj
 0001:000b8620       ___scrt_stub_for_acrt_thread_attach 100b9620 f   MSVCRTD:ucrt_stubs.obj
 0001:000b8620       ___vcrt_thread_attach      100b9620 f   MSVCRTD:ucrt_stubs.obj
 0001:000b8630       ___acrt_thread_detach      100b9630 f   MSVCRTD:ucrt_stubs.obj
 0001:000b8630       ___scrt_stub_for_acrt_thread_detach 100b9630 f   MSVCRTD:ucrt_stubs.obj
 0001:000b8630       ___vcrt_thread_detach      100b9630 f   MSVCRTD:ucrt_stubs.obj
 0001:000b8640       ___acrt_uninitialize       100b9640 f   MSVCRTD:ucrt_stubs.obj
 0001:000b8640       ___scrt_stub_for_acrt_uninitialize 100b9640 f   MSVCRTD:ucrt_stubs.obj
 0001:000b8640       ___vcrt_uninitialize       100b9640 f   MSVCRTD:ucrt_stubs.obj
 0001:000b8650       ___acrt_uninitialize_critical 100b9650 f   MSVCRTD:ucrt_stubs.obj
 0001:000b8650       ___scrt_stub_for_acrt_uninitialize_critical 100b9650 f   MSVCRTD:ucrt_stubs.obj
 0001:000b8650       ___vcrt_uninitialize_critical 100b9650 f   MSVCRTD:ucrt_stubs.obj
 0001:000b8660       ___scrt_stub_for_is_c_termination_complete 100b9660 f   MSVCRTD:ucrt_stubs.obj
 0001:000b8660       __is_c_termination_complete 100b9660 f   MSVCRTD:ucrt_stubs.obj
 0001:000b8670       __filter_x86_sse2_floating_point_exception 100b9670 f   MSVCRTD:x86_exception_filter.obj
 0001:000b8670       __filter_x86_sse2_floating_point_exception_default 100b9670 f   MSVCRTD:x86_exception_filter.obj
 0002:00000000       ___xc_a                    100c6000     MSVCRTD:initializers.obj
 0002:00000268       ___xc_z                    100c6268     MSVCRTD:initializers.obj
 0002:0000036c       ___xi_a                    100c636c     MSVCRTD:initializers.obj
 0002:00000470       ___xi_z                    100c6470     MSVCRTD:initializers.obj
 0002:00000574       ___xl_a                    100c6574     MSVCRTD:tlssup.obj
 0002:00000578       ___xl_z                    100c6578     MSVCRTD:tlssup.obj
 0002:0000057c       ___xp_a                    100c657c     MSVCRTD:initializers.obj
 0002:00000680       ___xp_z                    100c6680     MSVCRTD:initializers.obj
 0002:00000784       ___xt_a                    100c6784     MSVCRTD:initializers.obj
 0002:00000888       ___xt_z                    100c6888     MSVCRTD:initializers.obj
 0002:00013ce0       ??_7exception@std@@6B@     100d9ce0     BillboardLeaf.obj
 0002:00013cec       ??_C@_0BC@EOODALEL@Unknown?5exception@ 100d9cec     BillboardLeaf.obj
 0002:00013d08       ??_7bad_alloc@std@@6B@     100d9d08     BillboardLeaf.obj
 0002:00013d18       ??_7bad_array_new_length@std@@6B@ 100d9d18     BillboardLeaf.obj
 0002:00013d24       ??_C@_0BF@KINCDENJ@bad?5array?5new?5length@ 100d9d24     BillboardLeaf.obj
 0002:00013d40       ??_C@_0BB@FCMFBGOM@invalid?5argument@ 100d9d40     BillboardLeaf.obj
 0002:00013d54       ??_C@_02DKCKIIND@?$CFs@    100d9d54     BillboardLeaf.obj
 0002:00013d58       ??_C@_0GC@GDGMGNBP@C?3?2Program?5Files?2Microsoft?5Visu@ 100d9d58     BillboardLeaf.obj
 0002:00013dd0       ??_C@_1ME@KJJNLLPL@?$AAC?$AA?3?$AA?2?$AAP?$AAr?$AAo?$AAg?$AAr?$AAa?$AAm?$AA?5?$AAF?$AAi?$AAl?$AAe@ 100d9dd0     BillboardLeaf.obj
 0002:00013ebc       ??_C@_11LOCGONAA@@         100d9ebc     BillboardLeaf.obj
 0002:00013ec0       ??_C@_1CG@JNLFBNGN@?$AA?$CC?$AAi?$AAn?$AAv?$AAa?$AAl?$AAi?$AAd?$AA?5?$AAa?$AAr?$AAg?$AAu?$AAm?$AAe@ 100d9ec0     BillboardLeaf.obj
 0002:00013ef0       ??_C@_0BA@JFNIOLAK@string?5too?5long@ 100d9ef0     BillboardLeaf.obj
 0002:00013f08       ??_7runtime_error@std@@6B@ 100d9f08     BillboardLeaf.obj
 0002:00013f12       ??_C@_00CNPNBAHC@@         100d9f12     BillboardLeaf.obj
 0002:00013f18       ??_7IdvFileError@@6B@      100d9f18     BillboardLeaf.obj
 0002:00013f24       ??_C@_01LBDDMOBJ@?$FN@     100d9f24     BillboardLeaf.obj
 0002:00013f28       ??_C@_02GBLMOEJC@?5?$FL@   100d9f28     BillboardLeaf.obj
 0002:00013f30       ??_7CBillboardLeaf@@6B@    100d9f30     BillboardLeaf.obj
 0002:00013f3c       ??_C@_0BJ@MNHJFKGP@malformed?5billboard?5leaf@ 100d9f3c     BillboardLeaf.obj
 0002:00013f5c       ??_C@_0BO@PFKOHNJC@vector?5subscript?5out?5of?5range@ 100d9f5c     BillboardLeaf.obj
 0002:00013f80       ??_C@_0GB@FNOFBLAA@C?3?2Program?5Files?2Microsoft?5Visu@ 100d9f80     BillboardLeaf.obj
 0002:00013ff8       ??_C@_1MC@PMNMOCLC@?$AAC?$AA?3?$AA?2?$AAP?$AAr?$AAo?$AAg?$AAr?$AAa?$AAm?$AA?5?$AAF?$AAi?$AAl?$AAe@ 100d9ff8     BillboardLeaf.obj
 0002:000140e0       ??_C@_1EA@LEKOKFNB@?$AA?$CC?$AAv?$AAe?$AAc?$AAt?$AAo?$AAr?$AA?5?$AAs?$AAu?$AAb?$AAs?$AAc?$AAr?$AAi@ 100da0e0     BillboardLeaf.obj
 0002:00014130       ??_C@_0GC@JKKBGBPG@C?3?2Program?5Files?2Microsoft?5Visu@ 100da130     BillboardLeaf.obj
 0002:000141a8       ??_C@_1ME@EHBBECCK@?$AAC?$AA?3?$AA?2?$AAP?$AAr?$AAo?$AAg?$AAr?$AAa?$AAm?$AA?5?$AAF?$AAi?$AAl?$AAe@ 100da1a8     BillboardLeaf.obj
 0002:00014294       ??_C@_0DG@KGHKKGBC@null?5pointer?5cannot?5point?5to?5a?5@ 100da294     BillboardLeaf.obj
 0002:000142d8       ??_C@_1HA@FACCKGGH@?$AA?$CC?$AAn?$AAu?$AAl?$AAl?$AA?5?$AAp?$AAo?$AAi?$AAn?$AAt?$AAe?$AAr?$AA?5?$AAc@ 100da2d8     BillboardLeaf.obj
 0002:00014360       ??_C@_0BGJ@OHAFKLGF@You?5cannot?5concatenate?5the?5same@ 100da360     BillboardLeaf.obj
 0002:00014518       ??_C@_1COI@GKKHJOON@?$AA?$CC?$AAY?$AAo?$AAu?$AA?5?$AAc?$AAa?$AAn?$AAn?$AAo?$AAt?$AA?5?$AAc?$AAo?$AAn@ 100da518     BillboardLeaf.obj
 0002:00014894       ??_C@_0BA@FOIKENOD@vector?5too?5long@ 100da894     BillboardLeaf.obj
 0002:000148a8       __real@3f000000            100da8a8     BillboardLeaf.obj
 0002:000148ac       __real@3f800000            100da8ac     BillboardLeaf.obj
 0002:000148b0       __real@437f0000            100da8b0     BillboardLeaf.obj
 0002:000148b4       __real@bf800000            100da8b4     BillboardLeaf.obj
 0002:000148c0       __xmm@41f00000000000000000000000000000 100da8c0     BillboardLeaf.obj
 0002:00027c14       ??_C@_0BJ@LFDBABJJ@ITERATOR?5LIST?5CORRUPTED?$CB@ 100edc14     Branch.obj
 0002:00027c34       ??_C@_1DG@PLBPCAEM@?$AA?$CC?$AAI?$AAT?$AAE?$AAR?$AAA?$AAT?$AAO?$AAR?$AA?5?$AAL?$AAI?$AAS?$AAT?$AA?5@ 100edc34     Branch.obj
 0002:00027c74       ??_C@_08KPJKAGGE@?0?5file?3?5@ 100edc74     Branch.obj
 0002:00027c80       ??_C@_0BH@GINBHAOG@Assertion?5failed?6Line?5@ 100edc80     Branch.obj
 0002:00027c9c       ??_C@_0BG@DONJIDPI@malformed?5branch?5data@ 100edc9c     Branch.obj
 0002:00027cb8       ??_C@_0CF@ELDGINF@malformed?5general?5branch?5inform@ 100edcb8     Branch.obj
 0002:00027ce4       ??_C@_0DB@IHBNBNHJ@invalid?5case?5in?5switch?5in?5CIdvB@ 100edce4     Branch.obj
 0002:00027d20       ??_C@_0DC@LJMGIMFO@D?3?2pw152?2Common?2SpeedTreeRT?2Sou@ 100edd20     Branch.obj
 0002:00027d60       ??_C@_0GD@EOJAGFMI@C?3?2Program?5Files?2Microsoft?5Visu@ 100edd60     Branch.obj
 0002:00027dd8       ??_C@_1MG@KGDLNGON@?$AAC?$AA?3?$AA?2?$AAP?$AAr?$AAo?$AAg?$AAr?$AAa?$AAm?$AA?5?$AAF?$AAi?$AAl?$AAe@ 100eddd8     Branch.obj
 0002:00027ec8       ??_C@_0DI@PBEELKIF@vector?5iterators?5in?5range?5are?5f@ 100edec8     Branch.obj
 0002:00027f10       ??_C@_1HE@KBMFDAFB@?$AA?$CC?$AAv?$AAe?$AAc?$AAt?$AAo?$AAr?$AA?5?$AAi?$AAt?$AAe?$AAr?$AAa?$AAt?$AAo@ 100edf10     Branch.obj
 0002:00027f9c       ??_C@_0CB@LIAHLBAO@vector?5iterator?5range?5transpose@ 100edf9c     Branch.obj
 0002:00027fc8       ??_C@_1EG@ODKBEHFN@?$AA?$CC?$AAv?$AAe?$AAc?$AAt?$AAo?$AAr?$AA?5?$AAi?$AAt?$AAe?$AAr?$AAa?$AAt?$AAo@ 100edfc8     Branch.obj
 0002:0002801c       ??_C@_0BD@FEEMDEPI@invalid?5comparator@ 100ee01c     Branch.obj
 0002:00028034       ??_C@_1CK@NDNHPKPI@?$AA?$CC?$AAi?$AAn?$AAv?$AAa?$AAl?$AAi?$AAd?$AA?5?$AAc?$AAo?$AAm?$AAp?$AAa?$AAr@ 100ee034     Branch.obj
 0002:00028068       __real@00000000            100ee068     Branch.obj
 0002:0002806c       __real@3c360b61            100ee06c     Branch.obj
 0002:00028070       __real@3f1a36e2eb1c432d    100ee070     Branch.obj
 0002:0002807c       __real@3f59999a            100ee07c     Branch.obj
 0002:00028080       __real@3f733333            100ee080     Branch.obj
 0002:00028084       __real@3fc90fdb            100ee084     Branch.obj
 0002:00028088       __real@40000000            100ee088     Branch.obj
 0002:0002808c       __real@40490fdb            100ee08c     Branch.obj
 0002:00028090       __real@40c90fdb            100ee090     Branch.obj
 0002:00028094       __real@42652ee1            100ee094     Branch.obj
 0002:00028098       __real@42700000            100ee098     Branch.obj
 0002:0002809c       __real@42b40000            100ee09c     Branch.obj
 0002:000280a0       __real@42c80000            100ee0a0     Branch.obj
 0002:000280a4       __real@43340000            100ee0a4     Branch.obj
 0002:000280a8       __real@461c4000            100ee0a8     Branch.obj
 0002:000280ac       __real@46fffe00            100ee0ac     Branch.obj
 0002:000280b0       __real@47c35000            100ee0b0     Branch.obj
 0002:000280b4       __real@49742400            100ee0b4     Branch.obj
 0002:000280b8       __real@c3340000            100ee0b8     Branch.obj
 0002:000280c0       __xmm@80000000800000008000000080000000 100ee0c0     Branch.obj
 0002:0003b414       __real@3dcccccd            10101414     BranchInfo.obj
 0002:0003b418       __real@3e800000            10101418     BranchInfo.obj
 0002:0003b41c       __real@3e99999a            1010141c     BranchInfo.obj
 0002:0003b420       __real@41200000            10101420     BranchInfo.obj
 0002:0003b424       __real@41f00000            10101424     BranchInfo.obj
 0002:0004e768       ??_7CIdvCamera@@6B@        10114768     Camera.obj
 0002:0004e774       __real@3f13b646            10114774     Camera.obj
 0002:00061ab4       ??_C@_0DG@CNNKNHCM@D?3?2pw152?2Common?2SpeedTreeRT?2Sou@ 10127ab4     FileAccess.obj
 0002:00061af4       ??_C@_0BO@LFGPDMIB@string?5subscript?5out?5of?5range@ 10127af4     FileAccess.obj
 0002:00061b18       ??_C@_1EA@OADAPGGK@?$AA?$CC?$AAs?$AAt?$AAr?$AAi?$AAn?$AAg?$AA?5?$AAs?$AAu?$AAb?$AAs?$AAc?$AAr?$AAi@ 10127b18     FileAccess.obj
 0002:00074ea8       ??_C@_0JK@HKLGBGDH@BezierSpline?50?40?51?40?50?40?5?$HL?53?50?5@ 1013aea8     FrondEngine.obj
 0002:00074f60       ??_C@_0CP@EHMNMNFL@malformed?5frond?5texture?5informa@ 1013af60     FrondEngine.obj
 0002:00074f98       ??_C@_0CA@NAMAEODN@malformed?5frond?5info?5?$CItoken?5?$CFd?$CJ@ 1013af98     FrondEngine.obj
 0002:00074fc0       ??_C@_0DH@EFGFGIIK@D?3?2pw152?2Common?2SpeedTreeRT?2Sou@ 1013afc0     FrondEngine.obj
 0002:00075004       ??_C@_0CL@OPLLMFDO@default?5reached?5in?5CFrondEngine@ 1013b004     FrondEngine.obj
 0002:00075038       ??_C@_0BJ@JELLIPHK@frond?5vertices?5exceed?5?$CFd@ 1013b038     FrondEngine.obj
 0002:00075058       ??_C@_0CE@EAMOGAIE@vector?5erase?5iterator?5outside?5r@ 1013b058     FrondEngine.obj
 0002:00075088       ??_C@_1EM@BEMPOGMM@?$AA?$CC?$AAv?$AAe?$AAc?$AAt?$AAo?$AAr?$AA?5?$AAe?$AAr?$AAa?$AAs?$AAe?$AA?5?$AAi@ 1013b088     FrondEngine.obj
 0002:000750e4       ??_C@_0CO@LHPFLLJB@cannot?5seek?5value?9initialized?5v@ 1013b0e4     FrondEngine.obj
 0002:00075120       ??_C@_1GA@EIHBFEJD@?$AA?$CC?$AAc?$AAa?$AAn?$AAn?$AAo?$AAt?$AA?5?$AAs?$AAe?$AAe?$AAk?$AA?5?$AAv?$AAa@ 1013b120     FrondEngine.obj
 0002:00075194       ??_C@_0CI@OOHCOPKB@cannot?5seek?5invalidated?5vector?5@ 1013b194     FrondEngine.obj
 0002:000751c8       ??_C@_1FE@NGOHPDCL@?$AA?$CC?$AAc?$AAa?$AAn?$AAn?$AAo?$AAt?$AA?5?$AAs?$AAe?$AAe?$AAk?$AA?5?$AAi?$AAn@ 1013b1c8     FrondEngine.obj
 0002:0007522c       ??_C@_0CJ@DIFMEJBE@cannot?5seek?5vector?5iterator?5bef@ 1013b22c     FrondEngine.obj
 0002:00075260       ??_C@_1FG@JCGKNFIB@?$AA?$CC?$AAc?$AAa?$AAn?$AAn?$AAo?$AAt?$AA?5?$AAs?$AAe?$AAe?$AAk?$AA?5?$AAv?$AAe@ 1013b260     FrondEngine.obj
 0002:000752c8       ??_C@_0CG@JDIOCKHH@cannot?5seek?5vector?5iterator?5aft@ 1013b2c8     FrondEngine.obj
 0002:000752f8       ??_C@_1FA@LCODAPOP@?$AA?$CC?$AAc?$AAa?$AAn?$AAn?$AAo?$AAt?$AA?5?$AAs?$AAe?$AAe?$AAk?$AA?5?$AAv?$AAe@ 1013b2f8     FrondEngine.obj
 0002:00075358       ??_C@_0CG@PHHCFCMA@vector?5emplace?5iterator?5outside@ 1013b358     FrondEngine.obj
 0002:00075388       ??_C@_1FA@JJEJIKGE@?$AA?$CC?$AAv?$AAe?$AAc?$AAt?$AAo?$AAr?$AA?5?$AAe?$AAm?$AAp?$AAl?$AAa?$AAc?$AAe@ 1013b388     FrondEngine.obj
 0002:000753e8       __real@3d4ccccd            1013b3e8     FrondEngine.obj
 0002:000753ec       __real@3f7fbe77            1013b3ec     FrondEngine.obj
 0002:0008872c       ??_C@_0DJ@PPMMOPLM@D?3?2pw152?2Common?2SpeedTreeRT?2Sou@ 1014e72c     IndexedGeometry.obj
 0002:00088770       ??_C@_0DL@NEAKHHDG@D?3?2pw152?2Common?2SpeedTreeRT?2Sou@ 1014e770     IndexedGeometry.obj
 0002:0009baf4       ??_C@_0DI@EPJEPKOK@D?3?2pw152?2Common?2SpeedTreeRT?2Sou@ 10161af4     LeafGeometry.obj
 0002:000aee74       ??_C@_0CC@DCLKBME@malformed?5single?5leaf?5informati@ 10174e74     LeafInfo.obj
 0002:000aee9c       ??_C@_0CD@MDCLLHJE@malformed?5general?5leaf?5informat@ 10174e9c     LeafInfo.obj
 0002:000aeec8       __real@3df5c28f            10174ec8     LeafInfo.obj
 0002:000aeecc       __real@3e4ccccd            10174ecc     LeafInfo.obj
 0002:000aeed0       __real@3f400000            10174ed0     LeafInfo.obj
 0002:000aeed4       __real@3f4ccccd            10174ed4     LeafInfo.obj
 0002:000c2214       ??_C@_0CE@FFEOOBMH@vector?$DMbool?$DO?5subscript?5out?5of?5r@ 10188214     LeafLod.obj
 0002:000c2240       ??_C@_1EM@HCHFCCIP@?$AA?$CC?$AAv?$AAe?$AAc?$AAt?$AAo?$AAr?$AA?$DM?$AAb?$AAo?$AAo?$AAl?$AA?$DO?$AA?5?$AAs@ 10188240     LeafLod.obj
 0002:000c229c       ??_C@_0DE@CHADHGFF@can?8t?5dereference?5value?9initial@ 1018829c     LeafLod.obj
 0002:000c22e0       ??_C@_1GM@FNBFNBEL@?$AA?$CC?$AAc?$AAa?$AAn?$AA?8?$AAt?$AA?5?$AAd?$AAe?$AAr?$AAe?$AAf?$AAe?$AAr?$AAe@ 101882e0     LeafLod.obj
 0002:000c2364       ??_C@_0CO@PGFNEDAH@can?8t?5dereference?5invalidated?5v@ 10188364     LeafLod.obj
 0002:000c23a0       ??_C@_1GA@CLCDIGKJ@?$AA?$CC?$AAc?$AAa?$AAn?$AA?8?$AAt?$AA?5?$AAd?$AAe?$AAr?$AAe?$AAf?$AAe?$AAr?$AAe@ 101883a0     LeafLod.obj
 0002:000c2414       ??_C@_0CP@MDHADBHN@can?8t?5dereference?5out?5of?5range?5@ 10188414     LeafLod.obj
 0002:000c2450       ??_C@_1GC@JDCKOLAC@?$AA?$CC?$AAc?$AAa?$AAn?$AA?8?$AAt?$AA?5?$AAd?$AAe?$AAr?$AAe?$AAf?$AAe?$AAr?$AAe@ 10188450     LeafLod.obj
 0002:000c24c8       ??_C@_0DL@EIIPGNKA@cannot?5dereference?5value?9initia@ 101884c8     LeafLod.obj
 0002:000c2510       ??_C@_1HK@NLJEKNBE@?$AA?$CC?$AAc?$AAa?$AAn?$AAn?$AAo?$AAt?$AA?5?$AAd?$AAe?$AAr?$AAe?$AAf?$AAe?$AAr@ 10188510     LeafLod.obj
 0002:000c25a4       ??_C@_0CK@FLJLFEAD@vector?$DMbool?$DO?5iterator?5not?5deref@ 101885a4     LeafLod.obj
 0002:000c25d8       ??_C@_1FI@IBAHAGLP@?$AA?$CC?$AAv?$AAe?$AAc?$AAt?$AAo?$AAr?$AA?$DM?$AAb?$AAo?$AAo?$AAl?$AA?$DO?$AA?5?$AAi@ 101885d8     LeafLod.obj
 0002:000c2644       ??_C@_0BO@CAOBBIOC@vector?5iterators?5incompatible@ 10188644     LeafLod.obj
 0002:000c2668       ??_C@_1EA@DJDGNIII@?$AA?$CC?$AAv?$AAe?$AAc?$AAt?$AAo?$AAr?$AA?5?$AAi?$AAt?$AAe?$AAr?$AAa?$AAt?$AAo@ 10188668     LeafLod.obj
 0002:000c26b4       ??_C@_0DC@KEKNBAEB@can?8t?5increment?5value?9initializ@ 101886b4     LeafLod.obj
 0002:000c26f0       ??_C@_1GI@EDCILPL@?$AA?$CC?$AAc?$AAa?$AAn?$AA?8?$AAt?$AA?5?$AAi?$AAn?$AAc?$AAr?$AAe?$AAm?$AAe?$AAn@ 101886f0     LeafLod.obj
 0002:000c276c       ??_C@_0CM@MNNBKIBC@can?8t?5increment?5invalidated?5vec@ 1018876c     LeafLod.obj
 0002:000c27a0       ??_C@_1FM@ICPJNHLL@?$AA?$CC?$AAc?$AAa?$AAn?$AA?8?$AAt?$AA?5?$AAi?$AAn?$AAc?$AAr?$AAe?$AAm?$AAe?$AAn@ 101887a0     LeafLod.obj
 0002:000c2810       ??_C@_0CJ@OAAAAGPM@can?8t?5increment?5vector?5iterator@ 10188810     LeafLod.obj
 0002:000c2848       ??_C@_1FG@LDPPKMGP@?$AA?$CC?$AAc?$AAa?$AAn?$AA?8?$AAt?$AA?5?$AAi?$AAn?$AAc?$AAr?$AAe?$AAm?$AAe?$AAn@ 10188848     LeafLod.obj
 0002:000c28b0       ??_C@_0BG@EOMJEIFA@vector?$DMbool?$DO?5too?5long@ 101888b0     LeafLod.obj
 0002:000c28cc       ??_C@_0DE@MGKMKIAE@cannot?5seek?5value?9initialized?5v@ 101888cc     LeafLod.obj
 0002:000c2910       ??_C@_1GM@NBEGLBDD@?$AA?$CC?$AAc?$AAa?$AAn?$AAn?$AAo?$AAt?$AA?5?$AAs?$AAe?$AAe?$AAk?$AA?5?$AAv?$AAa@ 10188910     LeafLod.obj
 0002:000c2994       ??_C@_0CP@MNPGILOJ@cannot?5seek?5vector?$DMbool?$DO?5iterat@ 10188994     LeafLod.obj
 0002:000c29d0       ??_C@_1GC@IAFFNPAD@?$AA?$CC?$AAc?$AAa?$AAn?$AAn?$AAo?$AAt?$AA?5?$AAs?$AAe?$AAe?$AAk?$AA?5?$AAv?$AAe@ 101889d0     LeafLod.obj
 0002:000c2a48       ??_C@_0CM@DKKJDFLM@cannot?5seek?5vector?$DMbool?$DO?5iterat@ 10188a48     LeafLod.obj
 0002:000c2a80       ??_C@_1FM@MJNHBIAA@?$AA?$CC?$AAc?$AAa?$AAn?$AAn?$AAo?$AAt?$AA?5?$AAs?$AAe?$AAe?$AAk?$AA?5?$AAv?$AAe@ 10188a80     LeafLod.obj
 0002:000c2af0       ??_C@_0CH@KPIOHKJL@vector?$DMbool?$DO?5iterator?5range?5tra@ 10188af0     LeafLod.obj
 0002:000c2b20       ??_C@_1FC@LCJEJGDC@?$AA?$CC?$AAv?$AAe?$AAc?$AAt?$AAo?$AAr?$AA?$DM?$AAb?$AAo?$AAo?$AAl?$AA?$DO?$AA?5?$AAi@ 10188b20     LeafLod.obj
 0002:000c2b84       ??_C@_0CE@IAABIELH@vector?$DMbool?$DO?5iterators?5incompat@ 10188b84     LeafLod.obj
 0002:000c2bb0       ??_C@_1EM@PPONFPNG@?$AA?$CC?$AAv?$AAe?$AAc?$AAt?$AAo?$AAr?$AA?$DM?$AAb?$AAo?$AAo?$AAl?$AA?$DO?$AA?5?$AAi@ 10188bb0     LeafLod.obj
 0002:000c2c0c       __real@7f7fffff            10188c0c     LeafLod.obj
 0002:000c2c10       ??_C@_0O@OPNMNAD@plus?9infinity@ 10188c10     ExtendedReal.obj
 0002:000c2c20       ??_C@_0P@BOBNPGKL@minus?9infinity@ 10188c20     ExtendedReal.obj
 0002:000c2c34       ??_C@_0L@FIIKFJM@indefinite@ 10188c34     ExtendedReal.obj
 0002:000c2c44       ??_C@_07NCACNKHJ@missing@  10188c44     ExtendedReal.obj
 0002:000c2c50       __real@0000000000000000    10188c50     ExtendedReal.obj
 0002:000c2c60       ??_7Random@@6B@            10188c60     IdvRandom.obj
 0002:000c2c90       ??_7Uniform@@6B@           10188c90     IdvRandom.obj
 0002:000c2cbc       __real@3daaaaab            10188cbc     IdvRandom.obj
 0002:000c2cc0       __real@4f000000            10188cc0     IdvRandom.obj
 0002:000c2cc8       ??_7logic_error@std@@6B@   10188cc8     RobertDavies_Random.obj
 0002:000c2cd8       ??_7PosGen@@6B@            10188cd8     RobertDavies_Random.obj
 0002:000c2d08       ??_7SymGen@@6B@            10188d08     RobertDavies_Random.obj
 0002:000c2d38       ??_7Normal@@6B@            10188d38     RobertDavies_Random.obj
 0002:000c2d64       ??_C@_0CI@EEHDCIKK@Random?5number?5generator?5not?5ini@ 10188d64     RobertDavies_Random.obj
 0002:000c2d94       ??_C@_0BM@IGIHGNLE@Newran?3?5illegal?5combination@ 10188d94     RobertDavies_Random.obj
 0002:000c2db8       ??_C@_0BK@PIOKIGDI@Newran?3?5seed?5out?5of?5range@ 10188db8     RobertDavies_Random.obj
 0002:000c2dd8       ??_C@_0BH@FFMMNPKK@Newran?3?5area?5too?5large@ 10188dd8     RobertDavies_Random.obj
 0002:000c2df4       ??_C@_0BH@PNIHCODM@Newran?3?5area?5too?5small@ 10188df4     RobertDavies_Random.obj
 0002:000c2e10       ??_C@_06BEOPDEGP@Random@   10188e10     RobertDavies_Random.obj
 0002:000c2e18       ??_C@_07IBHIHIHC@Uniform@  10188e18     RobertDavies_Random.obj
 0002:000c2e24       ??_C@_06EFAGIKOH@Normal@   10188e24     RobertDavies_Random.obj
 0002:000c2e2c       ??_C@_06LFDHMBMA@PosGen@   10188e2c     RobertDavies_Random.obj
 0002:000c2e34       ??_C@_06IOIABDDI@SymGen@   10188e34     RobertDavies_Random.obj
 0002:000c2e3c       __real@30000000            10188e3c     RobertDavies_Random.obj
 0002:000c2e40       __real@3c23d70a            10188e40     RobertDavies_Random.obj
 0002:000c2e44       __real@3ca3d70a            10188e44     RobertDavies_Random.obj
 0002:000c2e48       __real@3ecc422a            10188e48     RobertDavies_Random.obj
 0002:000c2e50       __real@3fe0000000000000    10188e50     RobertDavies_Random.obj
 0002:000c2e60       __real@3ff0000000000000    10188e60     RobertDavies_Random.obj
 0002:000c2e70       __real@40040d9320000000    10188e70     RobertDavies_Random.obj
 0002:000c2e80       __real@4016000000000000    10188e80     RobertDavies_Random.obj
 0002:000c2e8c       __real@41000000            10188e8c     RobertDavies_Random.obj
 0002:000c2e90       __real@41e0000000000000    10188e90     RobertDavies_Random.obj
 0002:000c2e9c       __real@43000000            10188e9c     RobertDavies_Random.obj
 0002:000c2ea0       __xmm@80000000000000008000000000000000 10188ea0     RobertDavies_Random.obj
 0002:000d6200       ??_C@_0BB@GCADKGJO@map?1set?5too?5long@ 1019c200     IdvSpline.obj
 0002:000d6214       ??_C@_0N@NGFFEKI@BezierSpline@ 1019c214     IdvSpline.obj
 0002:000d6224       ??_C@_0O@ENIEGKCM@BezierSpline?5@ 1019c224     IdvSpline.obj
 0002:000d6234       ??_C@_09BNFLLNNI@?$CFg?5?$CFg?5?$CFg?6@ 1019c234     IdvSpline.obj
 0002:000d6240       ??_C@_02KCPFEJNG@?$HL?6@   1019c240     IdvSpline.obj
 0002:000d6244       ??_C@_04BGBALOOJ@?7?$CFd?6@ 1019c244     IdvSpline.obj
 0002:000d624c       ??_C@_0BB@FLLCMGDC@?7?$CFg?5?$CFg?5?$CFg?5?$CFg?5?$CFg?6@ 1019c24c     IdvSpline.obj
 0002:000d6260       ??_C@_01EEMJAFIK@?6@       1019c260     IdvSpline.obj
 0002:000d6264       ??_C@_02KGHIDFGE@?$HN?6@   1019c264     IdvSpline.obj
 0002:000d6268       ??_C@_0BP@OLDKBHLM@map?1set?5iterators?5incompatible@ 1019c268     IdvSpline.obj
 0002:000d6290       ??_C@_0GA@FLCPNMJP@C?3?2Program?5Files?2Microsoft?5Visu@ 1019c290     IdvSpline.obj
 0002:000d6308       ??_C@_1MA@PBGFLPAL@?$AAC?$AA?3?$AA?2?$AAP?$AAr?$AAo?$AAg?$AAr?$AAa?$AAm?$AA?5?$AAF?$AAi?$AAl?$AAe@ 1019c308     IdvSpline.obj
 0002:000d63f0       ??_C@_1EC@JLIDLCDH@?$AA?$CC?$AAm?$AAa?$AAp?$AA?1?$AAs?$AAe?$AAt?$AA?5?$AAi?$AAt?$AAe?$AAr?$AAa?$AAt@ 1019c3f0     IdvSpline.obj
 0002:000d6440       ??_C@_0DE@DMNPKCGM@cannot?5increment?5value?9initiali@ 1019c440     IdvSpline.obj
 0002:000d6480       ??_C@_1GM@BJMCGEGI@?$AA?$CC?$AAc?$AAa?$AAn?$AAn?$AAo?$AAt?$AA?5?$AAi?$AAn?$AAc?$AAr?$AAe?$AAm?$AAe@ 1019c480     IdvSpline.obj
 0002:000d6504       ??_C@_0CG@NLEHEOHN@cannot?5increment?5end?5map?1set?5it@ 1019c504     IdvSpline.obj
 0002:000d6538       ??_C@_1FA@KLFCDGNE@?$AA?$CC?$AAc?$AAa?$AAn?$AAn?$AAo?$AAt?$AA?5?$AAi?$AAn?$AAc?$AAr?$AAe?$AAm?$AAe@ 1019c538     IdvSpline.obj
 0002:000d6598       ??_C@_0DG@LCFNIIPB@cannot?5dereference?5value?9initia@ 1019c598     IdvSpline.obj
 0002:000d65d8       ??_C@_1HA@ILGCNILF@?$AA?$CC?$AAc?$AAa?$AAn?$AAn?$AAo?$AAt?$AA?5?$AAd?$AAe?$AAr?$AAe?$AAf?$AAe?$AAr@ 1019c5d8     IdvSpline.obj
 0002:000d6660       ??_C@_0CI@OKFEHCEB@cannot?5dereference?5end?5map?1set?5@ 1019c660     IdvSpline.obj
 0002:000d6690       ??_C@_1FE@NKHAAGMB@?$AA?$CC?$AAc?$AAa?$AAn?$AAn?$AAo?$AAt?$AA?5?$AAd?$AAe?$AAr?$AAe?$AAf?$AAe?$AAr@ 1019c690     IdvSpline.obj
 0002:000d66f4       __real@3b0355ad            1019c6f4     IdvSpline.obj
 0002:000d66f8       __real@43f98000            1019c6f8     IdvSpline.obj
 0002:000e9a3c       ??_C@_07EHFFKAP@CRegion@   101afa3c     Region.obj
 0002:000e9a48       ??_C@_08MCOHPCOK@m_cMin?3?5@ 101afa48     Region.obj
 0002:000e9a54       ??_C@_08IHOFLBGI@m_cMax?3?5@ 101afa54     Region.obj
 0002:000e9a60       __real@3eaaaaab            101afa60     Region.obj
 0002:000e9a64       __real@ff7fffff            101afa64     Region.obj
 0002:001100e4       ??_C@_0CM@FIBMACKG@default?5reached?5in?5CTransform?3?3@ 101d60e4     Transform.obj
 0002:00123454       ??_C@_01ODHLEDKK@?$CI@     101e9454     Vec.obj
 0002:00123458       ??_C@_01PKGAHCOL@?$CJ@     101e9458     Vec.obj
 0002:00149adc       ??_C@_0DK@KCNHLKMC@D?3?2pw152?2Common?2SpeedTreeRT?2Sou@ 1020fadc     LightingEngine.obj
 0002:00149b24       ??_C@_0BP@KLGKEDMC@malformed?5lighting?5information@ 1020fb24     LightingEngine.obj
 0002:001701cc       __real@bf000000            102361cc     SimpleBillboard.obj
 0002:0018350c       ??_C@_0DE@PACCNLEK@D?3?2pw152?2Common?2SpeedTreeRT?2Sou@ 1024950c     SpeedTreeRT.obj
 0002:0018354c       ??_C@_0DI@KINJKJPN@D?3?2pw152?2Common?2SpeedTreeRT?2Sou@ 1024954c     SpeedTreeRT.obj
 0002:00183590       ??_C@_0DG@LPJNEMKC@D?3?2pw152?2Common?2SpeedTreeRT?2Sou@ 10249590     SpeedTreeRT.obj
 0002:001835d0       ??_C@_0BO@KEOEHMAH@CSpeedTreeRT?3?3CSpeedTreeRT?$CI?5?$CJ@ 102495d0     SpeedTreeRT.obj
 0002:001835f4       ??_C@_0BB@PLNFOAPE@?$CFs?5?9?5failed?5?$FL?$CFs?$FN@ 102495f4     SpeedTreeRT.obj
 0002:00183608       ??_C@_0CH@HAKOOGJA@?$CFs?5?9?5threw?5an?5unknown?5system?5ex@ 10249608     SpeedTreeRT.obj
 0002:00183638       ??_C@_0DH@MPDFADCB@D?3?2pw152?2Common?2SpeedTreeRT?2Sou@ 10249638     SpeedTreeRT.obj
 0002:0018367c       ??_C@_0CK@KICMMLEH@CSpeedTreeRT?3?3CSpeedTreeRT?$CICSpe@ 1024967c     SpeedTreeRT.obj
 0002:001836b0       ??_C@_0EA@FKCHCHCL@Compute?$CI?$CJ?5called?5more?5than?5once@ 102496b0     SpeedTreeRT.obj
 0002:001836fc       ??_C@_0BG@MNNNHHI@CSpeedTreeRT?3?3Compute@ 102496fc     SpeedTreeRT.obj
 0002:00183718       ??_C@_0DD@OBNCDPAD@cannot?5Clone?$CI?$CJ?5after?5calling?5De@ 10249718     SpeedTreeRT.obj
 0002:00183758       ??_C@_0BE@EBKKKEGA@CSpeedTreeRT?3?3Clone@ 10249758     SpeedTreeRT.obj
 0002:00183770       ??_C@_0DK@LEEALHFM@cannot?5MakeInstance?$CI?$CJ?5after?5cal@ 10249770     SpeedTreeRT.obj
 0002:001837b8       ??_C@_0BL@PNFDFAFA@CSpeedTreeRT?3?3MakeInstance@ 102497b8     SpeedTreeRT.obj
 0002:001837d8       ??_C@_0DL@JAMEDGDD@DeleteTransientData?$CI?$CJ?5called?5wi@ 102497d8     SpeedTreeRT.obj
 0002:00183820       ??_C@_02JDPG@rb@           10249820     SpeedTreeRT.obj
 0002:00183824       ??_C@_0CA@IGGBMNBO@only?5read?5?$CFd?5of?5?$CFd?5from?5?$CFs?5?$FL?$CFs?$FN@ 10249824     SpeedTreeRT.obj
 0002:0018384c       ??_C@_0BO@LOAPLEHO@file?5seek?5failed?5on?5?8?$CFs?8?5?$FL?$CFs?$FN@ 1024984c     SpeedTreeRT.obj
 0002:00183870       ??_C@_0BO@MBMLMKLB@failed?5to?5load?5file?5?8?$CFs?8?5?$FL?$CFs?$FN@ 10249870     SpeedTreeRT.obj
 0002:00183894       ??_C@_0BN@EBOIGFHO@CSpeedTreeRT?3?3Load?5Tree?5?9?5?$CFs@ 10249894     SpeedTreeRT.obj
 0002:001838b8       ??_C@_0DL@NANINALL@CSpeedTreeRT?3?3LoadTree?5?9?5threw?5@ 102498b8     SpeedTreeRT.obj
 0002:00183900       ??_C@_0BH@BPMMAHHL@CSpeedTreeRT?3?3LoadTree@ 10249900     SpeedTreeRT.obj
 0002:0018391c       ??_C@_0DE@NCFONFAJ@cannot?5Save?$CI?$CJ?5after?5DeleteTrans@ 1024991c     SpeedTreeRT.obj
 0002:0018395c       ??_C@_0BH@BABKOJAM@CSpeedTreeRT?3?3SaveTree@ 1024995c     SpeedTreeRT.obj
 0002:00183978       ??_C@_0DN@HHHECPHJ@SetTreeSize?$CI?$CJ?5is?5only?5valid?5for@ 10249978     SpeedTreeRT.obj
 0002:001839c8       ??_C@_0EI@JLMDCMOK@SetTreeSize?$CI?$CJ?5has?5no?5effect?5aft@ 102499c8     SpeedTreeRT.obj
 0002:00183a20       ??_C@_0BK@ECGBHBNP@CSpeedTreeRT?3?3SetTreeSize@ 10249a20     SpeedTreeRT.obj
 0002:00183a40       ??_C@_0EI@NEFFOLNG@SetBranchLightingMethod?$CI?$CJ?5has?5n@ 10249a40     SpeedTreeRT.obj
 0002:00183a98       ??_C@_0CG@JIPGNOHN@CSpeedTreeRT?3?3SetBranchLighting@ 10249a98     SpeedTreeRT.obj
 0002:00183ac8       ??_C@_0EG@NJIHGNJJ@SetLeafLightingMethod?$CI?$CJ?5has?5no?5@ 10249ac8     SpeedTreeRT.obj
 0002:00183b1c       ??_C@_0CE@JEGOHDCD@CSpeedTreeRT?3?3SetLeafLightingMe@ 10249b1c     SpeedTreeRT.obj
 0002:00183b48       ??_C@_0EH@NCCMENJN@SetStaticLightingStyle?$CI?$CJ?5has?5no@ 10249b48     SpeedTreeRT.obj
 0002:00183ba0       ??_C@_0CF@BCLGOANH@CSpeedTreeRT?3?3SetStaticLighting@ 10249ba0     SpeedTreeRT.obj
 0002:00183bd0       ??_C@_0EK@FDHHEDFI@SetLeafLightingAdjustment?$CI?$CJ?5has@ 10249bd0     SpeedTreeRT.obj
 0002:00183c28       ??_C@_0CI@EJKAJJHJ@CSpeedTreeRT?3?3SetLeafLightingAd@ 10249c28     SpeedTreeRT.obj
 0002:00183c58       ??_C@_0EH@NOGLOGJ@SetFrondLightingMethod?$CI?$CJ?5has?5no@ 10249c58     SpeedTreeRT.obj
 0002:00183cb0       ??_C@_0CF@CLEAOJEL@CSpeedTreeRT?3?3SetFrondLightingM@ 10249cb0     SpeedTreeRT.obj
 0002:00183cdc       ??_C@_0CB@HONICPFE@CSpeedTreeRT?3?3SetLightAttribute@ 10249cdc     SpeedTreeRT.obj
 0002:00183d08       ??_C@_0EC@FKMBDLKG@SetBranchMaterial?$CI?$CJ?5has?5no?5effe@ 10249d08     SpeedTreeRT.obj
 0002:00183d58       ??_C@_0CA@MCAEMOA@CSpeedTreeRT?3?3SetBranchMaterial@ 10249d58     SpeedTreeRT.obj
 0002:00183d80       ??_C@_0EA@MFLNIJGM@SetLeafMaterial?$CI?$CJ?5has?5no?5effect@ 10249d80     SpeedTreeRT.obj
 0002:00183dcc       ??_C@_0BO@KAODBPCG@CSpeedTreeRT?3?3SetLeafMaterial@ 10249dcc     SpeedTreeRT.obj
 0002:00183df0       ??_C@_0EB@FAJAKGFC@SetFrondMaterial?$CI?$CJ?5has?5no?5effec@ 10249df0     SpeedTreeRT.obj
 0002:00183e40       ??_C@_0BP@LFKENEJP@CSpeedTreeRT?3?3SetFrondMaterial@ 10249e40     SpeedTreeRT.obj
 0002:00183e68       ??_C@_0DM@INADBBLE@GetCamera?$CI?$CJ?5requires?5non?9NULL?5p@ 10249e68     SpeedTreeRT.obj
 0002:00183eb0       ??_C@_0DM@LIMPHDB@SetCamera?$CI?$CJ?5requires?5non?9NULL?5p@ 10249eb0     SpeedTreeRT.obj
 0002:00183ef8       ??_C@_0BI@GJIKHFEL@CSpeedTreeRT?3?3SetCamera@ 10249ef8     SpeedTreeRT.obj
 0002:00183f14       ??_C@_0BG@MNLGBDFC@CSpeedTreeRT?3?3SetTime@ 10249f14     SpeedTreeRT.obj
 0002:00183f30       ??_C@_0CB@JOANHIIK@CSpeedTreeRT?3?3ComputeWindEffect@ 10249f30     SpeedTreeRT.obj
 0002:00183f58       ??_C@_0EI@IEFOEBHE@SetNumLeafRockingGroups?$CI?$CJ?5has?5n@ 10249f58     SpeedTreeRT.obj
 0002:00183fb0       ??_C@_0CC@KEPCIKJC@CSpeedTreeRT?3?3SetLeafRockingSta@ 10249fb0     SpeedTreeRT.obj
 0002:00183fd8       ??_C@_0EC@JAGFALME@SetLeafWindMethod?$CI?$CJ?5has?5no?5effe@ 10249fd8     SpeedTreeRT.obj
 0002:00184028       ??_C@_0CA@KIINICCD@CSpeedTreeRT?3?3SetLeafWindMethod@ 1024a028     SpeedTreeRT.obj
 0002:00184050       ??_C@_0EE@IEBPHJNM@SetBranchWindMethod?$CI?$CJ?5has?5no?5ef@ 1024a050     SpeedTreeRT.obj
 0002:001840a4       ??_C@_0CC@MHEPFOGG@CSpeedTreeRT?3?3SetBranchWindMeth@ 1024a0a4     SpeedTreeRT.obj
 0002:001840d0       ??_C@_0ED@HKHBLIMN@SetFrondWindMethod?$CI?$CJ?5has?5no?5eff@ 1024a0d0     SpeedTreeRT.obj
 0002:00184120       ??_C@_0CB@JBDMJJKN@CSpeedTreeRT?3?3SetFrondWindMetho@ 1024a120     SpeedTreeRT.obj
 0002:00184148       ??_C@_0DD@IEKNEGPD@SetWindStrength?$CI?$CJ?5expects?5new?5w@ 1024a148     SpeedTreeRT.obj
 0002:00184188       ??_C@_0BO@GJONFFJM@CSpeedTreeRT?3?3SetWindStrength@ 1024a188     SpeedTreeRT.obj
 0002:001841ac       ??_C@_0CB@LHALGCIH@CSpeedTreeRT?3?3SetNumWindMatrice@ 1024a1ac     SpeedTreeRT.obj
 0002:001841d4       ??_C@_0DD@CFNPDLCE@SetWindMatrix?$CI?$CJ?5requires?5a?5non?9@ 1024a1d4     SpeedTreeRT.obj
 0002:00184214       ??_C@_0CM@FDEHPAEM@SetWindMatrix?$CI?$CJ?5?9?5matrix?5index?5@ 1024a214     SpeedTreeRT.obj
 0002:00184248       ??_C@_0BM@CAFNOPKO@CSpeedTreeRT?3?3SetWindMatrix@ 1024a248     SpeedTreeRT.obj
 0002:0018426c       ??_C@_0DN@LOGCFILD@SetLocalMatrices?$CI?$CJ?5parameters?5e@ 1024a26c     SpeedTreeRT.obj
 0002:001842b8       ??_C@_0EB@IGKHMMPL@SetLocalMatrices?$CI?$CJ?5has?5no?5effec@ 1024a2b8     SpeedTreeRT.obj
 0002:00184308       ??_C@_0BP@LNJAODIF@CSpeedTreeRT?3?3SetLocalMatrices@ 1024a308     SpeedTreeRT.obj
 0002:00184330       ??_C@_0BO@NEFNJPOG@CSpeedTreeRT?3?3ComputeLodLevel@ 1024a330     SpeedTreeRT.obj
 0002:00184354       ??_C@_0DJ@ECEAEPMG@SetLodLevel?$CI?$CJ?5expects?5a?5value?5i@ 1024a354     SpeedTreeRT.obj
 0002:00184398       ??_C@_0CD@MCKNGMH@CSpeedTreeRT?3?3DeleteBranchGeome@ 1024a398     SpeedTreeRT.obj
 0002:001843c4       ??_C@_0CE@IBNIGHFD@CSpeedTreeRT?3?3GetLeafBillboardT@ 1024a3c4     SpeedTreeRT.obj
 0002:001843f0       ??_C@_0CO@OEGBIMIE@GetBoundingBox?$CI?$CJ?5expects?5a?5non?9@ 1024a3f0     SpeedTreeRT.obj
 0002:00184428       ??_C@_0CF@LDBPOABP@CSpeedTreeRT?3?3GetBranchTriangle@ 1024a428     SpeedTreeRT.obj
 0002:00184454       ??_C@_0CE@JHCKAGHJ@CSpeedTreeRT?3?3GetFrondTriangleC@ 1024a454     SpeedTreeRT.obj
 0002:00184480       ??_C@_0CI@BADCNPAN@CSpeedTreeRT?3?3ComputeLeafStatic@ 1024a480     SpeedTreeRT.obj
 0002:001844b0       ??_C@_0CE@LMHEPLMK@CSpeedTreeRT?3?3NotifyAllTreesOfE@ 1024a4b0     SpeedTreeRT.obj
 0002:001844dc       ??_C@_0BD@JMAANHEL@malformed?5lod?5info@ 1024a4dc     SpeedTreeRT.obj
 0002:001844f4       ??_C@_0DD@JMFMAINC@premature?5end?5of?5file?5reached?5p@ 1024a4f4     SpeedTreeRT.obj
 0002:00184534       ??_C@_0BI@IDEPHDPE@malformed?5new?5wind?5info@ 1024a534     SpeedTreeRT.obj
 0002:00184550       ??_C@_0DE@FHOGECHL@premature?5end?5of?5file?5reached?5p@ 1024a550     SpeedTreeRT.obj
 0002:00184590       ??_C@_0BN@HDKMKOP@malformed?5texture?5coord?5info@ 1024a590     SpeedTreeRT.obj
 0002:001845b4       ??_C@_0DO@PNMFDPBL@premature?5end?5of?5file?5reached?5p@ 1024a5b4     SpeedTreeRT.obj
 0002:00184600       ??_C@_0DH@IIFFBJOD@collision?5object?5index?5?$CI?$CFd?$CJ?5exc@ 1024a600     SpeedTreeRT.obj
 0002:00184644       ??_C@_0CP@MJBCMBLO@no?5collision?5objects?5are?5stored@ 1024a644     SpeedTreeRT.obj
 0002:0018467c       ??_C@_0CA@BIAOOLMK@malformed?5collision?5object?5info@ 1024a67c     SpeedTreeRT.obj
 0002:001846a4       ??_C@_0BO@GLFBFGPF@unknown?5collision?5object?5type@ 1024a6a4     SpeedTreeRT.obj
 0002:001846c8       ??_C@_0DM@NOGHELOF@premature?5end?5of?5file?5reached?5p@ 1024a6c8     SpeedTreeRT.obj
 0002:00184710       ??_C@_0CC@JHFKHJHB@CSpeedTreeRT?3?3DeleteFrondGeomet@ 1024a710     SpeedTreeRT.obj
 0002:00184738       ??_C@_0CM@DCKGMMJN@CSpeedTreeRT?3?3GetFrondGeometryM@ 1024a738     SpeedTreeRT.obj
 0002:0018476c       ??_C@_0BK@ICBJPCHI@CSpeedTreeRT?3?3GetGeometry@ 1024a76c     SpeedTreeRT.obj
 0002:00184790       ??_C@_0EH@MBPGMKE@no?5branch?5geometry?5exists?0?5poss@ 1024a790     SpeedTreeRT.obj
 0002:001847e8       ??_C@_0EF@KKLNJEEH@no?5frond?5geometry?5exists?0?5possi@ 1024a7e8     SpeedTreeRT.obj
 0002:0018483c       ??_C@_0CI@IJNCGOLC@CSpeedTreeRT?3?3GetLeafLodSizeAdj@ 1024a83c     SpeedTreeRT.obj
 0002:0018486c       ??_C@_0BK@DHPJOIPO@CSpeedTreeRT?3?3GetTextures@ 1024a86c     SpeedTreeRT.obj
 0002:0018488c       ??_C@_0CD@DILLEMNK@CSpeedTreeRT?3?3SetLeafTextureCoo@ 1024a88c     SpeedTreeRT.obj
 0002:001848b8       ??_C@_0CE@MGEADCOJ@CSpeedTreeRT?3?3SetFrondTextureCo@ 1024a8b8     SpeedTreeRT.obj
 0002:001848e8       ??_C@_0FF@PAIDPLB@SetBranchTextureFilename?$CI?$CJ?5has?5@ 1024a8e8     SpeedTreeRT.obj
 0002:00184950       ??_C@_0CH@MDIENIJJ@CSpeedTreeRT?3?3SetBranchTextureF@ 1024a950     SpeedTreeRT.obj
 0002:00184980       ??_C@_0FD@LIMCGLOF@SetLeafTextureFilename?$CI?$CJ?5has?5no@ 1024a980     SpeedTreeRT.obj
 0002:001849e4       ??_C@_0CF@EPFLDMMH@CSpeedTreeRT?3?3SetLeafTextureFil@ 1024a9e4     SpeedTreeRT.obj
 0002:00184a10       ??_C@_0CG@MINPLDH@CSpeedTreeRT?3?3SetFrondTextureFi@ 1024aa10     SpeedTreeRT.obj
 0002:00184a40       __real@3d8f5c29            1024aa40     SpeedTreeRT.obj
 0002:00184a44       __real@3f333333            1024aa44     SpeedTreeRT.obj
 0002:00184a48       __real@42a80000            1024aa48     SpeedTreeRT.obj
 0002:00184a4c       __real@43b40000            1024aa4c     SpeedTreeRT.obj
 0002:00197d8c       ??_C@_0N@JBPIBMHM@__IdvSpt_02_@ 1025dd8c     TreeEngine.obj
 0002:00197da0       ??_7CTreeEngine@@6B@       1025dda0     TreeEngine.obj
 0002:00197dac       ??_C@_0BJ@NKKKIEKD@missing?5begin_file?5token@ 1025ddac     TreeEngine.obj
 0002:00197dcc       ??_C@_0BP@CHDGPFJK@not?5a?5valid?5SpeedTree?5SPT?5file@ 1025ddcc     TreeEngine.obj
 0002:00197df4       ??_C@_0BN@PBDMCPGB@malformed?5SpeedTree?5SPT?5file@ 1025ddf4     TreeEngine.obj
 0002:00197e18       ??_C@_0CD@NPKJOHCE@malformed?5general?5tree?5informat@ 1025de18     TreeEngine.obj
 0002:00197e44       ??_C@_0BJ@PMPKELFJ@too?5many?5leaf?5lod?5levels@ 1025de44     TreeEngine.obj
 0002:00197e64       ??_C@_0BI@EDNOHKHO@malformed?5leaf?5lod?5data@ 1025de64     TreeEngine.obj
 0002:00197e80       ??_C@_0BK@NAGABJBJ@malformed?5engine?5lod?5data@ 1025de80     TreeEngine.obj
 0002:00197ea0       ??_C@_0DG@PDMDFEGC@D?3?2pw152?2Common?2SpeedTreeRT?2Sou@ 1025dea0     TreeEngine.obj
 0002:00197ee0       ??_C@_0BL@GHMMIJGB@malformed?5texture?5controls@ 1025dee0     TreeEngine.obj
 0002:00197f00       ??_C@_0BF@DJBHCOOM@malformed?5flare?5info@ 1025df00     TreeEngine.obj
 0002:001ab25c       __real@42480000            1027125c     TreeInfo.obj
 0002:001ab260       __real@44898000            10271260     TreeInfo.obj
 0002:001be634       __real@3e19999a            10284634     WindEngine.obj
 0002:001be638       __real@be19999a            10284638     WindEngine.obj
 0002:001d197c       ??_C@_0CD@HDDEOOAL@malformed?5general?5wind?5informat@ 1029797c     WindInfo.obj
 0002:001d1a78       __real@7f800000            10297a78     msvcprtd:vector_algorithms.obj
 0002:001d1a80       __real@7ff0000000000000    10297a80     msvcprtd:vector_algorithms.obj
 0002:001d1a8c       __real@ff800000            10297a8c     msvcprtd:vector_algorithms.obj
 0002:001d1a90       __real@fff0000000000000    10297a90     msvcprtd:vector_algorithms.obj
 0002:001d1aa0       __xmm@00000000000000000101010101010101 10297aa0     msvcprtd:vector_algorithms.obj
 0002:001d1ac0       __xmm@00000000000000010000000000000001 10297ac0     msvcprtd:vector_algorithms.obj
 0002:001d1ae0       __xmm@00000000010101010202020203030303 10297ae0     msvcprtd:vector_algorithms.obj
 0002:001d1b00       __xmm@00000001000000010000000100000001 10297b00     msvcprtd:vector_algorithms.obj
 0002:001d1b20       __xmm@00010001000100010001000100010001 10297b20     msvcprtd:vector_algorithms.obj
 0002:001d1b40       __xmm@00010002000400080010002000400080 10297b40     msvcprtd:vector_algorithms.obj
 0002:001d1b60       __xmm@000102030405060708090a0b0c0d0e0f 10297b60     msvcprtd:vector_algorithms.obj
 0002:001d1b80       __xmm@010003020504070609080b0a0d0c0f0e 10297b80     msvcprtd:vector_algorithms.obj
 0002:001d1ba0       __xmm@01010101010101010101010101010101 10297ba0     msvcprtd:vector_algorithms.obj
 0002:001d1bc0       __xmm@01020408102040800102040810204080 10297bc0     msvcprtd:vector_algorithms.obj
 0002:001d1be0       __xmm@0d0c0f0e09080b0a0504070601000302 10297be0     msvcprtd:vector_algorithms.obj
 0002:001d1c00       __xmm@0e0f0c0d0a0b08090607040502030001 10297c00     msvcprtd:vector_algorithms.obj
 0002:001d1c20       __xmm@ffffffffffffffffffffffffffffffff 10297c20     msvcprtd:vector_algorithms.obj
 0002:001d1c40       __ymm@0000000000000001000000020000000300000004000000050000000600000007 10297c40     msvcprtd:vector_algorithms.obj
 0002:001d1c80       __ymm@0000000300000003000000020000000200000001000000010000000000000000 10297c80     msvcprtd:vector_algorithms.obj
 0002:001d1cc0       __ymm@0001000200040008001000200040008000010002000400080010002000400080 10297cc0     msvcprtd:vector_algorithms.obj
 0002:001d1d00       __ymm@000102030405060708090a0b0c0d0e0f000102030405060708090a0b0c0d0e0f 10297d00     msvcprtd:vector_algorithms.obj
 0002:001d1d40       __ymm@010003020504070609080b0a0d0c0f0e010003020504070609080b0a0d0c0f0e 10297d40     msvcprtd:vector_algorithms.obj
 0002:001d1d80       __ymm@0102040810204080010204081020408001020408102040800102040810204080 10297d80     msvcprtd:vector_algorithms.obj
 0002:001d1dac       ??_7type_info@@6B@         10297dac     MSVCRTD:std_type_info_static.obj
 0002:001d1ec8       ??_C@_0NN@JMPELKLB@The?5value?5of?5ESP?5was?5not?5proper@ 10297ec8     MSVCRTD:error.obj
 0002:001d1fd8       ??_C@_0BBN@ELNNILBE@A?5cast?5to?5a?5smaller?5data?5type?5h@ 10297fd8     MSVCRTD:error.obj
 0002:001d2130       ??_C@_0BN@BPOGFMJL@Stack?5memory?5was?5corrupted?$AN?6@ 10298130     MSVCRTD:error.obj
 0002:001d2154       ??_C@_0DG@DAJCDLPN@A?5local?5variable?5was?5used?5befor@ 10298154     MSVCRTD:error.obj
 0002:001d2194       ??_C@_0CM@JMIDGKLA@Stack?5memory?5around?5_alloca?5was@ 10298194     MSVCRTD:error.obj
 0002:001d21c8       ??_C@_0BO@CHIONIOI@Unknown?5Runtime?5Check?5Error?$AN?6@ 102981c8     MSVCRTD:error.obj
 0002:001d21f0       ??_C@_1GM@CNOOJIHC@?$AAR?$AAu?$AAn?$AAt?$AAi?$AAm?$AAe?$AA?5?$AAC?$AAh?$AAe?$AAc?$AAk?$AA?5?$AAE@ 102981f0     MSVCRTD:error.obj
 0002:001d2278       ??_C@_1EA@NFKNIFJP@?$AAR?$AAu?$AAn?$AA?9?$AAT?$AAi?$AAm?$AAe?$AA?5?$AAC?$AAh?$AAe?$AAc?$AAk?$AA?5@ 10298278     MSVCRTD:error.obj
 0002:001d22c4       ??_C@_0BB@PFFGGCJP@Unknown?5Filename@ 102982c4     MSVCRTD:error.obj
 0002:001d22d8       ??_C@_0BE@GNBOBNCK@Unknown?5Module?5Name@ 102982d8     MSVCRTD:error.obj
 0002:001d22f0       ??_C@_0CA@IODNCDPG@Run?9Time?5Check?5Failure?5?$CD?$CFd?5?9?5?$CFs@ 102982f0     MSVCRTD:error.obj
 0002:001d2318       ??_C@_0CG@IAFNJNEE@Stack?5corrupted?5near?5unknown?5va@ 10298318     MSVCRTD:error.obj
 0002:001d2348       ??_C@_05MKKEDADM@?$CF?42X?5@ 10298348     MSVCRTD:error.obj
 0002:001d2350       ??_C@_0EJ@LJKNEOLN@Stack?5area?5around?5_alloca?5memor@ 10298350     MSVCRTD:error.obj
 0002:001d23a8       ??_C@_02LLMPMKNF@?$DO?5@   102983a8     MSVCRTD:error.obj
 0002:001d23ac       ??_C@_08OMAHNMHJ@?6Data?3?5?$DM@ 102983ac     MSVCRTD:error.obj
 0002:001d23b8       ??_C@_0CK@DKGBICFE@?6Allocation?5number?5within?5this?5@ 102983b8     MSVCRTD:error.obj
 0002:001d23ec       ??_C@_07DFDJCKFN@?6Size?3?5@ 102983ec     MSVCRTD:error.obj
 0002:001d23f8       ??_C@_0N@MHFFIMFG@?6Address?3?50x@ 102983f8     MSVCRTD:error.obj
 0002:001d2408       ??_C@_0EI@CLEPFNGI@Stack?5area?5around?5_alloca?5memor@ 10298408     MSVCRTD:error.obj
 0002:001d2460       ??_C@_0BK@ODNDAGKB@?$CFs?$CFs?$CFp?$CFs?$CFzd?$CFs?$CFd?$CFs?$CFs?$CFs?$CFs?$CFs@ 10298460     MSVCRTD:error.obj
 0002:001d2480       ??_C@_0DE@OHJBPMBP@A?5variable?5is?5being?5used?5withou@ 10298480     MSVCRTD:error.obj
 0002:001d24d0       __pDefaultRawDllMain       102984d0     MSVCRTD:dll_dllmain.obj
 0002:001d24d0       __pRawDllMain              102984d0     MSVCRTD:dll_dllmain.obj
 0002:001d24d4       ??_C@_0P@GHFPNOJB@bad?5allocation@ 102984d4     MSVCRTD:throw_bad_alloc.obj
 0002:001d2500       ??_C@_0BJ@HEGAHDFO@Stack?5pointer?5corruption@ 10298500     MSVCRTD:userapi.obj
 0002:001d2520       ??_C@_0CK@FEGOIOPB@Cast?5to?5smaller?5type?5causing?5lo@ 10298520     MSVCRTD:userapi.obj
 0002:001d2554       ??_C@_0BI@CIGMDCBH@Stack?5memory?5corruption@ 10298554     MSVCRTD:userapi.obj
 0002:001d2570       ??_C@_0CK@CNLNOEPB@Local?5variable?5used?5before?5init@ 10298570     MSVCRTD:userapi.obj
 0002:001d25a4       ??_C@_0BP@OGBCLIBO@Stack?5around?5_alloca?5corrupted@ 102985a4     MSVCRTD:userapi.obj
 0002:001d2628       ??_C@_1EI@MLPKHBGE@?$AAa?$AAp?$AAi?$AA?9?$AAm?$AAs?$AA?9?$AAw?$AAi?$AAn?$AA?9?$AAc?$AAo?$AAr?$AAe@ 10298628     MSVCRTD:pdblkup.obj
 0002:001d2680       ??_C@_1BK@JHLNAEJL@?$AAa?$AAd?$AAv?$AAa?$AAp?$AAi?$AA3?$AA2?$AA?4?$AAd?$AAl?$AAl@ 10298680     MSVCRTD:pdblkup.obj
 0002:001d26a0       ??_C@_0O@COHOBMLB@RegOpenKeyExW@ 102986a0     MSVCRTD:pdblkup.obj
 0002:001d26b0       ??_C@_0BB@GLNAEDBD@RegQueryValueExW@ 102986b0     MSVCRTD:pdblkup.obj
 0002:001d26c4       ??_C@_0M@HLOHPNFA@RegCloseKey@ 102986c4     MSVCRTD:pdblkup.obj
 0002:001d26d8       ??_C@_1HE@EBEAGLFB@?$AAS?$AAO?$AAF?$AAT?$AAW?$AAA?$AAR?$AAE?$AA?2?$AAW?$AAo?$AAw?$AA6?$AA4?$AA3@ 102986d8     MSVCRTD:pdblkup.obj
 0002:001d2764       ??_C@_1BG@EABPBLLF@?$AAP?$AAr?$AAo?$AAd?$AAu?$AAc?$AAt?$AAD?$AAi?$AAr@ 10298764     MSVCRTD:pdblkup.obj
 0002:001d27a4       ??_C@_1BC@JINFINNJ@?$AAM?$AAS?$AAP?$AAD?$AAB?$AA1?$AA4?$AA0@ 102987a4     MSVCRTD:pdblkup.obj
 0002:001d27bc       ??_C@_0BB@KCIACLNC@PDBOpenValidate5@ 102987bc     MSVCRTD:pdblkup.obj
 0002:001d27d0       ??_C@_01KDCPPGHE@r@        102987d0     MSVCRTD:pdblkup.obj
 0002:001d27d8       __load_config_used         102987d8     MSVCRTD:loadcfg.obj
 0002:001d2bc0       ___CastGuardVftablesStart  10298bc0     MSVCRTD:guard_support.obj
 0002:001d2d40       ___CastGuardVftablesEnd    10298d40     MSVCRTD:guard_support.obj
 0002:001d2e8c       __tls_used                 10298e8c     MSVCRTD:tlssup.obj
 0002:001d2fa8       ??_R4exception@std@@6B@    10298fa8     BillboardLeaf.obj
 0002:001d2fc0       ??_R3exception@std@@8      10298fc0     BillboardLeaf.obj
 0002:001d2fd4       ??_R2exception@std@@8      10298fd4     BillboardLeaf.obj
 0002:001d2fdc       ??_R1A@?0A@EA@exception@std@@8 10298fdc     BillboardLeaf.obj
 0002:001d3000       ??_R4bad_array_new_length@std@@6B@ 10299000     BillboardLeaf.obj
 0002:001d3018       ??_R3bad_array_new_length@std@@8 10299018     BillboardLeaf.obj
 0002:001d302c       ??_R2bad_array_new_length@std@@8 1029902c     BillboardLeaf.obj
 0002:001d303c       ??_R1A@?0A@EA@bad_array_new_length@std@@8 1029903c     BillboardLeaf.obj
 0002:001d3060       ??_R1A@?0A@EA@bad_alloc@std@@8 10299060     BillboardLeaf.obj
 0002:001d3084       ??_R3bad_alloc@std@@8      10299084     BillboardLeaf.obj
 0002:001d3098       ??_R2bad_alloc@std@@8      10299098     BillboardLeaf.obj
 0002:001d30a4       ??_R4bad_alloc@std@@6B@    102990a4     BillboardLeaf.obj
 0002:001d30bc       ??_R4runtime_error@std@@6B@ 102990bc     BillboardLeaf.obj
 0002:001d30d4       ??_R3runtime_error@std@@8  102990d4     BillboardLeaf.obj
 0002:001d30e8       ??_R2runtime_error@std@@8  102990e8     BillboardLeaf.obj
 0002:001d30f4       ??_R1A@?0A@EA@runtime_error@std@@8 102990f4     BillboardLeaf.obj
 0002:001d3118       ??_R4IdvFileError@@6B@     10299118     BillboardLeaf.obj
 0002:001d3130       ??_R3IdvFileError@@8       10299130     BillboardLeaf.obj
 0002:001d3144       ??_R2IdvFileError@@8       10299144     BillboardLeaf.obj
 0002:001d3154       ??_R1A@?0A@EA@IdvFileError@@8 10299154     BillboardLeaf.obj
 0002:001d3178       ??_R4CBillboardLeaf@@6B@   10299178     BillboardLeaf.obj
 0002:001d3190       ??_R3CBillboardLeaf@@8     10299190     BillboardLeaf.obj
 0002:001d31a4       ??_R2CBillboardLeaf@@8     102991a4     BillboardLeaf.obj
 0002:001d31b0       ??_R1A@?0A@EA@CBillboardLeaf@@8 102991b0     BillboardLeaf.obj
 0002:001d31d4       ??_R1A@?0A@EA@CIdvCamera@@8 102991d4     BillboardLeaf.obj
 0002:001d31f8       ??_R3CIdvCamera@@8         102991f8     BillboardLeaf.obj
 0002:001d320c       ??_R2CIdvCamera@@8         1029920c     BillboardLeaf.obj
 0002:001d3214       ??_R4CIdvCamera@@6B@       10299214     Camera.obj
 0002:001d322c       ??_R4Random@@6B@           1029922c     IdvRandom.obj
 0002:001d3244       ??_R3Random@@8             10299244     IdvRandom.obj
 0002:001d3258       ??_R2Random@@8             10299258     IdvRandom.obj
 0002:001d3260       ??_R1A@?0A@EA@Random@@8    10299260     IdvRandom.obj
 0002:001d3284       ??_R4Uniform@@6B@          10299284     IdvRandom.obj
 0002:001d329c       ??_R3Uniform@@8            1029929c     IdvRandom.obj
 0002:001d32b0       ??_R2Uniform@@8            102992b0     IdvRandom.obj
 0002:001d32bc       ??_R1A@?0A@EA@Uniform@@8   102992bc     IdvRandom.obj
 0002:001d32e0       ??_R4logic_error@std@@6B@  102992e0     RobertDavies_Random.obj
 0002:001d32f8       ??_R3logic_error@std@@8    102992f8     RobertDavies_Random.obj
 0002:001d330c       ??_R2logic_error@std@@8    1029930c     RobertDavies_Random.obj
 0002:001d3318       ??_R1A@?0A@EA@logic_error@std@@8 10299318     RobertDavies_Random.obj
 0002:001d333c       ??_R4PosGen@@6B@           1029933c     RobertDavies_Random.obj
 0002:001d3354       ??_R3PosGen@@8             10299354     RobertDavies_Random.obj
 0002:001d3368       ??_R2PosGen@@8             10299368     RobertDavies_Random.obj
 0002:001d3374       ??_R1A@?0A@EA@PosGen@@8    10299374     RobertDavies_Random.obj
 0002:001d3398       ??_R4SymGen@@6B@           10299398     RobertDavies_Random.obj
 0002:001d33b0       ??_R3SymGen@@8             102993b0     RobertDavies_Random.obj
 0002:001d33c4       ??_R2SymGen@@8             102993c4     RobertDavies_Random.obj
 0002:001d33d4       ??_R1A@?0A@EA@SymGen@@8    102993d4     RobertDavies_Random.obj
 0002:001d33f8       ??_R4Normal@@6B@           102993f8     RobertDavies_Random.obj
 0002:001d3410       ??_R3Normal@@8             10299410     RobertDavies_Random.obj
 0002:001d3424       ??_R2Normal@@8             10299424     RobertDavies_Random.obj
 0002:001d3438       ??_R1A@?0A@EA@Normal@@8    10299438     RobertDavies_Random.obj
 0002:001d345c       ??_R4CTreeEngine@@6B@      1029945c     TreeEngine.obj
 0002:001d3474       ??_R3CTreeEngine@@8        10299474     TreeEngine.obj
 0002:001d3488       ??_R2CTreeEngine@@8        10299488     TreeEngine.obj
 0002:001d3494       ??_R1A@?0A@EA@CTreeEngine@@8 10299494     TreeEngine.obj
 0002:001d34b8       ??_R4type_info@@6B@        102994b8     MSVCRTD:std_type_info_static.obj
 0002:001d34d0       ??_R3type_info@@8          102994d0     MSVCRTD:std_type_info_static.obj
 0002:001d34e4       ??_R2type_info@@8          102994e4     MSVCRTD:std_type_info_static.obj
 0002:001d34ec       ??_R1A@?0A@EA@type_info@@8 102994ec     MSVCRTD:std_type_info_static.obj
 0002:001d3634       ___safe_se_handler_table   10299634     <linker-defined>
 0002:001d4030       ___rtc_iaa                 1029a030     MSVCRTD:initsect.obj
 0002:001d42b8       ___rtc_izz                 1029a2b8     MSVCRTD:initsect.obj
 0002:001d43bc       ___rtc_taa                 1029a3bc     MSVCRTD:initsect.obj
 0002:001d4644       ___rtc_tzz                 1029a644     MSVCRTD:initsect.obj
 0002:001d4aa0       __CT??_R0?AVexception@std@@@8??0exception@std@@QAE@ABV01@@Z12 1029aaa0     BillboardLeaf.obj
 0002:001d4ac0       __TI3?AVbad_array_new_length@std@@ 1029aac0     BillboardLeaf.obj
 0002:001d4ad4       __CTA3?AVbad_array_new_length@std@@ 1029aad4     BillboardLeaf.obj
 0002:001d4ae8       __CT??_R0?AVbad_array_new_length@std@@@8??0bad_array_new_length@std@@QAE@ABV01@@Z12 1029aae8     BillboardLeaf.obj
 0002:001d4b08       __CT??_R0?AVbad_alloc@std@@@8??0bad_alloc@std@@QAE@ABV01@@Z12 1029ab08     BillboardLeaf.obj
 0002:001d4b28       __CT??_R0?AVruntime_error@std@@@8??0runtime_error@std@@QAE@ABV01@@Z12 1029ab28     BillboardLeaf.obj
 0002:001d4b48       __TI3?AVIdvFileError@@     1029ab48     BillboardLeaf.obj
 0002:001d4b5c       __CTA3?AVIdvFileError@@    1029ab5c     BillboardLeaf.obj
 0002:001d4b70       __CT??_R0?AVIdvFileError@@@8??0IdvFileError@@QAE@ABV0@@Z12 1029ab70     BillboardLeaf.obj
 0002:001d6474       __TI2?AVruntime_error@std@@ 1029c474     FrondEngine.obj
 0002:001d6488       __CTA2?AVruntime_error@std@@ 1029c488     FrondEngine.obj
 0002:001d7878       __TI2?AVlogic_error@std@@  1029d878     RobertDavies_Random.obj
 0002:001d788c       __CTA2?AVlogic_error@std@@ 1029d88c     RobertDavies_Random.obj
 0002:001d789c       __CT??_R0?AVlogic_error@std@@@8??0logic_error@std@@QAE@ABV01@@Z12 1029d89c     RobertDavies_Random.obj
 0002:001da0d0       __TI1?AVexception@std@@    102a00d0     SpeedTreeRT.obj
 0002:001da0e4       __CTA1?AVexception@std@@   102a00e4     SpeedTreeRT.obj
 0002:001dade8       __TI2?AVbad_alloc@std@@    102a0de8     MSVCRTD:throw_bad_alloc.obj
 0002:001dadfc       __CTA2?AVbad_alloc@std@@   102a0dfc     MSVCRTD:throw_bad_alloc.obj
 0003:00000000       ?__LINE__Var@?0??_Adjust_manually_vector_aligned@std@@YAXAAPAXAAI@Z@4JA 102a5000     BillboardLeaf.obj
 0003:00000004       ?m_bComputeLeaves@CIdvBranch@@0_NA 102a5004     Branch.obj
 0003:00000008       ?m_nWeightLevel@CIdvBranch@@0HA 102a5008     Branch.obj
 0003:00000010       ?__LINE__Var@?0??MakeLeaf@CIdvBranch@@ABEXABVCVec3@@MPBV2@00MHAAV?$vector@PAVCBillboardLeaf@@V?$allocator@PAVCBillboardLeaf@@@std@@@std@@@Z@4JA 102a5010     Branch.obj
 0003:00000014       ?__LINE__Var@?0??ParseFloat@CTreeFileAccess@@QAEMXZ@4JA 102a5014     FileAccess.obj
 0003:00000018       ?__LINE__Var@?0??ParseInt@CTreeFileAccess@@QAEHXZ@4JA 102a5018     FileAccess.obj
 0003:0000001c       ?__LINE__Var@?0??ParseLong@CTreeFileAccess@@QAEKXZ@4JA 102a501c     FileAccess.obj
 0003:00000020       ?__LINE__Var@?0??ParseShort@CTreeFileAccess@@QAEFXZ@4JA 102a5020     FileAccess.obj
 0003:00000024       ?__LINE__Var@?0??ParseString@CTreeFileAccess@@QAE?AV?$basic_string@DU?$char_traits@D@std@@V?$allocator@D@2@@std@@XZ@4JA 102a5024     FileAccess.obj
 0003:00000028       ?__LINE__Var@?0??ParseVector@CTreeFileAccess@@QAE?AVCVec@@H@Z@4JA 102a5028     FileAccess.obj
 0003:0000002c       ?__LINE__Var@?0??ParseVector3@CTreeFileAccess@@QAE?AVCVec3@@XZ@4JA 102a502c     FileAccess.obj
 0003:00000030       ?__LINE__Var@?0??PeekToken@CTreeFileAccess@@QAE?AW4EFileToken@@XZ@4JA 102a5030     FileAccess.obj
 0003:00000034       ?__LINE__Var@?0??Compute@CFrondEngine@@QAEXPAVCIndexedGeometry@@PAVCLightingEngine@@@Z@4JA 102a5034     FrondEngine.obj
 0003:00000038       ?__LINE__Var@?0??GetNumStrips@CIndexedGeometry@@QBEGF@Z@4JA 102a5038     IndexedGeometry.obj
 0003:0000003c       ?__LINE__Var@?0???0CIndexedGeometry@@QAE@PAVCWindEngine@@_N@Z@4JA 102a503c     IndexedGeometry.obj
 0003:00000040       ?__LINE__Var@?0??AddStrip@CIndexedGeometry@@QAEXGPAGG@Z@4JA 102a5040     IndexedGeometry.obj
 0003:00000044       ?__LINE__Var@?0??AddVertexColor@CIndexedGeometry@@QAEXPBM@Z@4JA 102a5044     IndexedGeometry.obj
 0003:00000048       ?__LINE__Var@?0??AddVertexCoord@CIndexedGeometry@@QAEXPBM@Z@4JA 102a5048     IndexedGeometry.obj
 0003:0000004c       ?__LINE__Var@?0??AddVertexNormal@CIndexedGeometry@@QAEXPBM@Z@4JA 102a504c     IndexedGeometry.obj
 0003:00000050       ?__LINE__Var@?0??AddVertexTexCoord0@CIndexedGeometry@@QAEXPBMF@Z@4JA 102a5050     IndexedGeometry.obj
 0003:00000054       ?__LINE__Var@?0??AddVertexTexCoord1@CIndexedGeometry@@QAEXPBM@Z@4JA 102a5054     IndexedGeometry.obj
 0003:00000058       ?__LINE__Var@?0??AddVertexTangent@CIndexedGeometry@@QAEXPBM@Z@4JA 102a5058     IndexedGeometry.obj
 0003:0000005c       ?__LINE__Var@?0??AddVertexBinormal@CIndexedGeometry@@QAEXPBM@Z@4JA 102a505c     IndexedGeometry.obj
 0003:00000060       ?__LINE__Var@?0??GetStrip@CIndexedGeometry@@QBEPAGGAAG@Z@4JA 102a5060     IndexedGeometry.obj
 0003:00000064       ?__LINE__Var@?0??GetStripsPointer@CIndexedGeometry@@QBEPAPAGG@Z@4JA 102a5064     IndexedGeometry.obj
 0003:00000068       ?__LINE__Var@?0??GetTriangleCount@CIndexedGeometry@@QBEIG@Z@4JA 102a5068     IndexedGeometry.obj
 0003:0000006c       ?__LINE__Var@?0??ComputeWindEffect@CIndexedGeometry@@QAE_NG@Z@4JA 102a506c     IndexedGeometry.obj
 0003:00000070       ?__LINE__Var@?0??DeleteLodStrip@CIndexedGeometry@@QAEXG@Z@4JA 102a5070     IndexedGeometry.obj
 0003:00000074       ?__LINE__Var@?0??GetVertexCoord@CIndexedGeometry@@QBEPBMI@Z@4JA 102a5074     IndexedGeometry.obj
 0003:00000078       ?__LINE__Var@?0??GetVertexTexCoord0@CIndexedGeometry@@QBEPBMI@Z@4JA 102a5078     IndexedGeometry.obj
 0003:0000007c       ?__LINE__Var@?0??GetOrigVertexCoord@CIndexedGeometry@@ABEPBMI@Z@4JA 102a507c     IndexedGeometry.obj
 0003:00000080       ?__LINE__Var@?0??ChangeTexCoord@CIndexedGeometry@@QAEXEPAM@Z@4JA 102a5080     IndexedGeometry.obj
 0003:00000084       ?__LINE__Var@?0???0CLeafGeometry@@QAE@PAVCWindEngine@@@Z@4JA 102a5084     LeafGeometry.obj
 0003:00000088       ?__LINE__Var@?0??Update@CLeafGeometry@@QAEXAAUSLeaf@SGeometry@CSpeedTreeRT@@GMMM@Z@4JA 102a5088     LeafGeometry.obj
 0003:000000cc       ?m_fTolerance@CVec3@@0MA   102a50cc     Vec.obj
 0003:000000d0       ?m_fTolerance@CVec@@0MA    102a50d0     Vec.obj
 0003:000000d8       ?m_afLightAttributes@CLightingEngine@@0PAY0BA@MA 102a50d8     LightingEngine.obj
 0003:00000340       ?__LINE__Var@?0??ComputeStandardStaticLighting@CLightingEngine@@QAEXPBM0PAMW4EMaterial@2@@Z@4JA 102a5340     LightingEngine.obj
 0003:00000344       ?__LINE__Var@?0??SetLightAttributes@CLightingEngine@@SAXIPBM@Z@4JA 102a5344     LightingEngine.obj
 0003:00000348       ?m_fHorizontalFadeStartAngle@CSpeedTreeRT@@0MA 102a5348     SpeedTreeRT.obj
 0003:0000034c       ?m_fHorizontalFadeEndAngle@CSpeedTreeRT@@0MA 102a534c     SpeedTreeRT.obj
 0003:00000350       ?m_fHorizontalFadeValue@CSpeedTreeRT@@0MA 102a5350     SpeedTreeRT.obj
 0003:00000358       ?__LINE__Var@?0??GetStripLengthsPointer@CIndexedGeometry@@QBEPBGG@Z@4JA 102a5358     SpeedTreeRT.obj
 0003:0000035c       ?__LINE__Var@?0???0CSpeedTreeRT@@AAE@PBV1@@Z@4JA 102a535c     SpeedTreeRT.obj
 0003:00000360       ?__LINE__Var@?0???1CSpeedTreeRT@@QAE@XZ@4JA 102a5360     SpeedTreeRT.obj
 0003:00000364       ?__LINE__Var@?0??Clone@CSpeedTreeRT@@QBEPAV2@MMMI@Z@4JA 102a5364     SpeedTreeRT.obj
 0003:00000368       ?__LINE__Var@?0??SetStaticLightingStyle@CSpeedTreeRT@@QAEXW4EStaticLightingStyle@2@@Z@4JA 102a5368     SpeedTreeRT.obj
 0003:0000036c       ?__LINE__Var@?0??SetWindMatrix@CSpeedTreeRT@@SAXIPBM@Z@4JA 102a536c     SpeedTreeRT.obj
 0003:00000370       ?__LINE__Var@?0??GetDiscreteBranchLodLevel@CSpeedTreeRT@@QBEFM@Z@4JA 102a5370     SpeedTreeRT.obj
 0003:00000374       ?__LINE__Var@?0??GetDiscreteFrondLodLevel@CSpeedTreeRT@@QBEFM@Z@4JA 102a5374     SpeedTreeRT.obj
 0003:00000378       ?__LINE__Var@?0??GetDiscreteLeafLodLevel@CSpeedTreeRT@@QBEGM@Z@4JA 102a5378     SpeedTreeRT.obj
 0003:0000037c       ?__LINE__Var@?0??GetGeometry@CSpeedTreeRT@@QAEXAAUSGeometry@2@KFFF@Z@4JA 102a537c     SpeedTreeRT.obj
 0003:00000380       ?__LINE__Var@?0??GetLeafGeometry@CSpeedTreeRT@@AAEXAAUSGeometry@2@F@Z@4JA 102a5380     SpeedTreeRT.obj
 0003:00000384       ?__LINE__Var@?0??SetLeafTextureCoords@CSpeedTreeRT@@QAEXIPBM@Z@4JA 102a5384     SpeedTreeRT.obj
 0003:00000388       ?__LINE__Var@?0??SetBranchTextureFilename@CSpeedTreeRT@@QAEXPBD@Z@4JA 102a5388     SpeedTreeRT.obj
 0003:0000038c       ?__LINE__Var@?0??SetLeafTextureFilename@CSpeedTreeRT@@QAEXIPBD@Z@4JA 102a538c     SpeedTreeRT.obj
 0003:00000390       ?__LINE__Var@?0??SetFrondTextureFilename@CSpeedTreeRT@@QAEXIPBD@Z@4JA 102a5390     SpeedTreeRT.obj
 0003:00000394       ?g_pszHeader@@3PBDB        102a5394     TreeEngine.obj
 0003:00000398       ?__LINE__Var@?0??SetLeafTextureFilename@CTreeEngine@@QAEXIPBD@Z@4JA 102a5398     TreeEngine.obj
 0003:000003c0       ___security_cookie         102a53c0     MSVCRTD:gs_cookie.obj
 0003:00000400       ___security_cookie_complement 102a5400     MSVCRTD:gs_cookie.obj
 0003:00000414       __fltused                  102a5414     MSVCRTD:fltused.obj
 0003:00000418       ___scrt_native_dllmain_reason 102a5418     MSVCRTD:utility.obj
 0003:00000420       ?_RTC_ErrorLevels@@3PAHA   102a5420     MSVCRTD:error.obj
 0003:00000440       __Init_global_epoch        102a5440     MSVCRTD:thread_safe_statics.obj
 0003:00000450       ___isa_inverted            102a5450     MSVCRTD:cpu_disp.obj
 0003:00000458       ___isa_enabled             102a5458     MSVCRTD:cpu_disp.obj
 0003:00000460       ___scrt_ucrt_dll_is_in_use 102a5460     MSVCRTD:ucrt_stubs.obj
 0003:000005a4       ??_R0?AVexception@std@@@8  102a55a4     BillboardLeaf.obj
 0003:000005c8       ??_R0?AVbad_array_new_length@std@@@8 102a55c8     BillboardLeaf.obj
 0003:000005f8       ??_R0?AVbad_alloc@std@@@8  102a55f8     BillboardLeaf.obj
 0003:0000061c       ??_R0?AVruntime_error@std@@@8 102a561c     BillboardLeaf.obj
 0003:00000644       ??_R0?AVIdvFileError@@@8   102a5644     BillboardLeaf.obj
 0003:00000664       ??_R0?AVlogic_error@std@@@8 102a5664     RobertDavies_Random.obj
 0003:0000078c       ??_R0?AVCBillboardLeaf@@@8 102a578c     BillboardLeaf.obj
