; Listing generated by Microsoft (R) Optimizing Compiler Version 19.40.33813.0 

	TITLE	D:\pw152\Common\SpeedTreeRT\RT_DynamicLib\Debug VC 6.0\Transform.obj
	.686P
	.XMM
	include listing.inc
	.model	flat

INCLUDELIB MSVCRTD
INCLUDELIB OLDNAMES

CONST	SEGMENT
?g_fIdvACosTable@@3QBMB DD 040490fdbr		; 3.14159 ; g_fIdvACosTable
	DD	040470fd5r			; 3.11034
	DD	040463bb8r			; 3.09739
	DD	0404598f0r			; 3.08746
	DD	040450fb0r			; 3.07908
	DD	0404496c1r			; 3.0717
	DD	040442969r			; 3.06503
	DD	04043c4d8r			; 3.05889
	DD	04043673ar			; 3.05318
	DD	040430f4ar			; 3.04781
	DD	04042bc1cr			; 3.04273
	DD	040426cfbr			; 3.0379
	DD	04042215er			; 3.03329
	DD	04041d8d5r			; 3.02886
	DD	040419308r			; 3.0246
	DD	040414fadr			; 3.02049
	DD	040410e85r			; 3.01651
	DD	04040cf5cr			; 3.01266
	DD	040409207r			; 3.00891
	DD	04040565er			; 3.00527
	DD	040401c41r			; 3.00172
	DD	0403fe391r			; 2.99826
	DD	0403fac35r			; 2.99489
	DD	0403f7616r			; 2.99158
	DD	0403f411fr			; 2.98835
	DD	0403f0d3er			; 2.98518
	DD	0403eda63r			; 2.98208
	DD	0403ea87er			; 2.97903
	DD	0403e7782r			; 2.97604
	DD	0403e4763r			; 2.97311
	DD	0403e1814r			; 2.97022
	DD	0403de98dr			; 2.96738
	DD	0403dbbc3r			; 2.96459
	DD	0403d8eadr			; 2.96183
	DD	0403d6243r			; 2.95912
	DD	0403d367er			; 2.95645
	DD	0403d0b56r			; 2.95382
	DD	0403ce0c6r			; 2.95122
	DD	0403cb6c6r			; 2.94866
	DD	0403c8d52r			; 2.94613
	DD	0403c6463r			; 2.94363
	DD	0403c3bf6r			; 2.94116
	DD	0403c1405r			; 2.93872
	DD	0403bec8br			; 2.93631
	DD	0403bc585r			; 2.93393
	DD	0403b9eefr			; 2.93158
	DD	0403b78c5r			; 2.92925
	DD	0403b5303r			; 2.92694
	DD	0403b2da6r			; 2.92466
	DD	0403b08abr			; 2.9224
	DD	0403ae410r			; 2.92017
	DD	0403abfd0r			; 2.91796
	DD	0403a9bear			; 2.91577
	DD	0403a785ar			; 2.9136
	DD	0403a551fr			; 2.91145
	DD	0403a3236r			; 2.90931
	DD	0403a0f9dr			; 2.9072
	DD	04039ed51r			; 2.90511
	DD	04039cb51r			; 2.90303
	DD	04039a99br			; 2.90098
	DD	04039882cr			; 2.89894
	DD	040396703r			; 2.89691
	DD	04039461fr			; 2.8949
	DD	04039257dr			; 2.89291
	DD	04039051dr			; 2.89094
	DD	04038e4fbr			; 2.88898
	DD	04038c518r			; 2.88703
	DD	04038a571r			; 2.8851
	DD	040388606r			; 2.88318
	DD	0403866d5r			; 2.88128
	DD	0403847dcr			; 2.87939
	DD	04038291ar			; 2.87751
	DD	040380a8fr			; 2.87564
	DD	04037ec3ar			; 2.87379
	DD	04037ce18r			; 2.87195
	DD	04037b029r			; 2.87013
	DD	04037926cr			; 2.86831
	DD	0403774e0r			; 2.86651
	DD	040375784r			; 2.86472
	DD	040373a57r			; 2.86294
	DD	040371d59r			; 2.86117
	DD	040370088r			; 2.85941
	DD	04036e3e3r			; 2.85766
	DD	04036c76ar			; 2.85592
	DD	04036ab1cr			; 2.85419
	DD	040368ef7r			; 2.85248
	DD	0403672fdr			; 2.85077
	DD	04036572br			; 2.84907
	DD	040363b80r			; 2.84738
	DD	040361ffer			; 2.8457
	DD	0403604a1r			; 2.84403
	DD	04035e96br			; 2.84237
	DD	04035ce5ar			; 2.84072
	DD	04035b36dr			; 2.83908
	DD	0403598a5r			; 2.83744
	DD	040357e00r			; 2.83582
	DD	04035637er			; 2.8342
	DD	04035491fr			; 2.83259
	DD	040352ee1r			; 2.83099
	DD	0403514c5r			; 2.82939
	DD	04034facar			; 2.82781
	DD	04034e0efr			; 2.82623
	DD	04034c734r			; 2.82466
	DD	04034ad98r			; 2.8231
	DD	04034941br			; 2.82154
	DD	040347abdr			; 2.81999
	DD	04034617cr			; 2.81845
	DD	04034485ar			; 2.81692
	DD	040342f54r			; 2.81539
	DD	04034166cr			; 2.81387
	DD	04033fd9fr			; 2.81235
	DD	04033e4efr			; 2.81085
	DD	04033cc5ar			; 2.80935
	DD	04033b3e1r			; 2.80785
	DD	040339b82r			; 2.80637
	DD	04033833er			; 2.80489
	DD	040336b14r			; 2.80341
	DD	040335304r			; 2.80194
	DD	040333b0er			; 2.80048
	DD	040332330r			; 2.79902
	DD	040330b6cr			; 2.79757
	DD	04032f3c0r			; 2.79613
	DD	04032dc2cr			; 2.79469
	DD	04032c4b0r			; 2.79325
	DD	04032ad4cr			; 2.79183
	DD	0403295ffr			; 2.79041
	DD	040327ecar			; 2.78899
	DD	0403267abr			; 2.78758
	DD	0403250a2r			; 2.78617
	DD	0403239b0r			; 2.78477
	DD	0403222d4r			; 2.78338
	DD	040320c0dr			; 2.78199
	DD	04031f55cr			; 2.7806
	DD	04031dec0r			; 2.77922
	DD	04031c839r			; 2.77785
	DD	04031b1c7r			; 2.77648
	DD	040319b6ar			; 2.77511
	DD	040318521r			; 2.77375
	DD	040316eebr			; 2.77239
	DD	0403158car			; 2.77104
	DD	0403142bcr			; 2.7697
	DD	040312cc2r			; 2.76836
	DD	0403116dbr			; 2.76702
	DD	040310107r			; 2.76569
	DD	04030eb46r			; 2.76436
	DD	04030d597r			; 2.76304
	DD	04030bffbr			; 2.76172
	DD	04030aa71r			; 2.7604
	DD	0403094f9r			; 2.75909
	DD	040307f93r			; 2.75779
	DD	040306a3er			; 2.75648
	DD	0403054fbr			; 2.75519
	DD	040303fc9r			; 2.75389
	DD	040302aa9r			; 2.7526
	DD	040301599r			; 2.75132
	DD	04030009ar			; 2.75004
	DD	0402febacr			; 2.74876
	DD	0402fd6cer			; 2.74749
	DD	0402fc201r			; 2.74622
	DD	0402fad44r			; 2.74495
	DD	0402f9896r			; 2.74369
	DD	0402f83f9r			; 2.74243
	DD	0402f6f6br			; 2.74118
	DD	0402f5aedr			; 2.73992
	DD	0402f467er			; 2.73868
	DD	0402f321fr			; 2.73743
	DD	0402f1dcer			; 2.73619
	DD	0402f098dr			; 2.73496
	DD	0402ef55ar			; 2.73373
	DD	0402ee136r			; 2.7325
	DD	0402ecd21r			; 2.73127
	DD	0402eb91ar			; 2.73005
	DD	0402ea522r			; 2.72883
	DD	0402e9137r			; 2.72761
	DD	0402e7d5br			; 2.7264
	DD	0402e698dr			; 2.72519
	DD	0402e55ccr			; 2.72399
	DD	0402e4219r			; 2.72278
	DD	0402e2e74r			; 2.72159
	DD	0402e1adcr			; 2.72039
	DD	0402e0752r			; 2.7192
	DD	0402df3d5r			; 2.71801
	DD	0402de065r			; 2.71682
	DD	0402dcd02r			; 2.71564
	DD	0402db9acr			; 2.71446
	DD	0402da662r			; 2.71328
	DD	0402d9326r			; 2.71211
	DD	0402d7ff6r			; 2.71094
	DD	0402d6cd2r			; 2.70977
	DD	0402d59bbr			; 2.7086
	DD	0402d46b0r			; 2.70744
	DD	0402d33b1r			; 2.70628
	DD	0402d20bfr			; 2.70512
	DD	0402d0dd8r			; 2.70397
	DD	0402cfafer			; 2.70282
	DD	0402ce82fr			; 2.70167
	DD	0402cd56cr			; 2.70053
	DD	0402cc2b4r			; 2.69938
	DD	0402cb008r			; 2.69824
	DD	0402c9d67r			; 2.69711
	DD	0402c8ad2r			; 2.69597
	DD	0402c7848r			; 2.69484
	DD	0402c65car			; 2.69371
	DD	0402c5356r			; 2.69259
	DD	0402c40edr			; 2.69146
	DD	0402c2e90r			; 2.69034
	DD	0402c1c3dr			; 2.68922
	DD	0402c09f5r			; 2.68811
	DD	0402bf7b7r			; 2.68699
	DD	0402be585r			; 2.68588
	DD	0402bd35cr			; 2.68478
	DD	0402bc13er			; 2.68367
	DD	0402baf2br			; 2.68257
	DD	0402b9d22r			; 2.68147
	DD	0402b8b23r			; 2.68037
	DD	0402b792er			; 2.67927
	DD	0402b6744r			; 2.67818
	DD	0402b5563r			; 2.67709
	DD	0402b438dr			; 2.676
	DD	0402b31c0r			; 2.67491
	DD	0402b1ffdr			; 2.67383
	DD	0402b0e44r			; 2.67275
	DD	0402afc94r			; 2.67167
	DD	0402aeaeer			; 2.67059
	DD	0402ad952r			; 2.66951
	DD	0402ac7bfr			; 2.66844
	DD	0402ab635r			; 2.66737
	DD	0402aa4b5r			; 2.6663
	DD	0402a933er			; 2.66524
	DD	0402a81d0r			; 2.66417
	DD	0402a706cr			; 2.66311
	DD	0402a5f10r			; 2.66205
	DD	0402a4dber			; 2.661
	DD	0402a3c74r			; 2.65994
	DD	0402a2b34r			; 2.65889
	DD	0402a19fcr			; 2.65784
	DD	0402a08cdr			; 2.65679
	DD	04029f7a7r			; 2.65574
	DD	04029e68ar			; 2.6547
	DD	04029d575r			; 2.65365
	DD	04029c468r			; 2.65261
	DD	04029b365r			; 2.65157
	DD	04029a269r			; 2.65054
	DD	040299177r			; 2.6495
	DD	04029808cr			; 2.64847
	DD	040296faar			; 2.64744
	DD	040295ed0r			; 2.64641
	DD	040294dfer			; 2.64539
	DD	040293d34r			; 2.64436
	DD	040292c73r			; 2.64334
	DD	040291bbar			; 2.64232
	DD	040290b08r			; 2.6413
	DD	04028fa5fr			; 2.64028
	DD	04028e9bdr			; 2.63927
	DD	04028d923r			; 2.63825
	DD	04028c891r			; 2.63724
	DD	04028b807r			; 2.63623
	DD	04028a785r			; 2.63522
	DD	04028970ar			; 2.63422
	DD	040288697r			; 2.63321
	DD	04028762br			; 2.63221
	DD	0402865c7r			; 2.63121
	DD	04028556ar			; 2.63021
	DD	040284515r			; 2.62922
	DD	0402834c7r			; 2.62822
	DD	040282481r			; 2.62723
	DD	040281442r			; 2.62624
	DD	04028040ar			; 2.62525
	DD	04027f3d9r			; 2.62426
	DD	04027e3b0r			; 2.62327
	DD	04027d38er			; 2.62229
	DD	04027c372r			; 2.6213
	DD	04027b35er			; 2.62032
	DD	04027a351r			; 2.61934
	DD	04027934br			; 2.61837
	DD	04027834cr			; 2.61739
	DD	040277354r			; 2.61641
	DD	040276362r			; 2.61544
	DD	040275378r			; 2.61447
	DD	040274394r			; 2.6135
	DD	0402733b7r			; 2.61253
	DD	0402723e1r			; 2.61156
	DD	040271411r			; 2.6106
	DD	040270448r			; 2.60964
	DD	04026f485r			; 2.60867
	DD	04026e4car			; 2.60771
	DD	04026d514r			; 2.60676
	DD	04026c566r			; 2.6058
	DD	04026b5bdr			; 2.60484
	DD	04026a61br			; 2.60389
	DD	040269680r			; 2.60294
	DD	0402686ebr			; 2.60198
	DD	04026775cr			; 2.60104
	DD	0402667d3r			; 2.60009
	DD	040265851r			; 2.59914
	DD	0402648d5r			; 2.5982
	DD	04026395fr			; 2.59725
	DD	0402629efr			; 2.59631
	DD	040261a86r			; 2.59537
	DD	040260b22r			; 2.59443
	DD	04025fbc5r			; 2.59349
	DD	04025ec6dr			; 2.59256
	DD	04025dd1cr			; 2.59162
	DD	04025cdd1r			; 2.59069
	DD	04025be8br			; 2.58975
	DD	04025af4cr			; 2.58882
	DD	04025a012r			; 2.58789
	DD	0402590der			; 2.58697
	DD	0402581b0r			; 2.58604
	DD	040257288r			; 2.58512
	DD	040256365r			; 2.58419
	DD	040255449r			; 2.58327
	DD	040254532r			; 2.58235
	DD	040253620r			; 2.58143
	DD	040252715r			; 2.58051
	DD	04025180fr			; 2.57959
	DD	04025090er			; 2.57868
	DD	04024fa13r			; 2.57776
	DD	04024eb1er			; 2.57685
	DD	04024dc2er			; 2.57594
	DD	04024cd44r			; 2.57503
	DD	04024be5fr			; 2.57412
	DD	04024af7fr			; 2.57321
	DD	04024a0a5r			; 2.5723
	DD	0402491d0r			; 2.5714
	DD	040248301r			; 2.5705
	DD	040247437r			; 2.56959
	DD	040246572r			; 2.56869
	DD	0402456b3r			; 2.56779
	DD	0402447f9r			; 2.56689
	DD	040243944r			; 2.566
	DD	040242a94r			; 2.5651
	DD	040241be9r			; 2.5642
	DD	040240d44r			; 2.56331
	DD	04023fea3r			; 2.56242
	DD	04023f008r			; 2.56153
	DD	04023e172r			; 2.56064
	DD	04023d2e1r			; 2.55975
	DD	04023c455r			; 2.55886
	DD	04023b5cer			; 2.55797
	DD	04023a74cr			; 2.55709
	DD	0402398cfr			; 2.5562
	DD	040238a57r			; 2.55532
	DD	040237be3r			; 2.55444
	DD	040236d75r			; 2.55356
	DD	040235f0cr			; 2.55268
	DD	0402350a7r			; 2.5518
	DD	040234247r			; 2.55092
	DD	0402333ecr			; 2.55004
	DD	040232596r			; 2.54917
	DD	040231745r			; 2.5483
	DD	0402308f8r			; 2.54742
	DD	04022fab0r			; 2.54655
	DD	04022ec6dr			; 2.54568
	DD	04022de2er			; 2.54481
	DD	04022cff4r			; 2.54394
	DD	04022c1bfr			; 2.54308
	DD	04022b38er			; 2.54221
	DD	04022a562r			; 2.54134
	DD	04022973br			; 2.54048
	DD	040228918r			; 2.53962
	DD	040227af9r			; 2.53876
	DD	040226ce0r			; 2.5379
	DD	040225ecar			; 2.53704
	DD	0402250b9r			; 2.53618
	DD	0402242adr			; 2.53532
	DD	0402234a5r			; 2.53446
	DD	0402226a1r			; 2.53361
	DD	0402218a2r			; 2.53275
	DD	040220aa8r			; 2.5319
	DD	04021fcb1r			; 2.53105
	DD	04021eebfr			; 2.5302
	DD	04021e0d1r			; 2.52935
	DD	04021d2e8r			; 2.5285
	DD	04021c503r			; 2.52765
	DD	04021b722r			; 2.5268
	DD	04021a945r			; 2.52596
	DD	040219b6dr			; 2.52511
	DD	040218d99r			; 2.52427
	DD	040217fc9r			; 2.52342
	DD	0402171fdr			; 2.52258
	DD	040216436r			; 2.52174
	DD	040215672r			; 2.5209
	DD	0402148b3r			; 2.52006
	DD	040213af8r			; 2.51922
	DD	040212d41r			; 2.51839
	DD	040211f8er			; 2.51755
	DD	0402111dfr			; 2.51672
	DD	040210434r			; 2.51588
	DD	04020f68dr			; 2.51505
	DD	04020e8ebr			; 2.51422
	DD	04020db4cr			; 2.51338
	DD	04020cdb1r			; 2.51255
	DD	04020c01ar			; 2.51172
	DD	04020b287r			; 2.5109
	DD	04020a4f8r			; 2.51007
	DD	04020976dr			; 2.50924
	DD	0402089e6r			; 2.50842
	DD	040207c63r			; 2.50759
	DD	040206ee4r			; 2.50677
	DD	040206168r			; 2.50595
	DD	0402053f1r			; 2.50512
	DD	04020467dr			; 2.5043
	DD	04020390dr			; 2.50348
	DD	040202ba1r			; 2.50266
	DD	040201e38r			; 2.50184
	DD	0402010d3r			; 2.50103
	DD	040200373r			; 2.50021
	DD	0401ff615r			; 2.49939
	DD	0401fe8bcr			; 2.49858
	DD	0401fdb66r			; 2.49777
	DD	0401fce14r			; 2.49695
	DD	0401fc0c6r			; 2.49614
	DD	0401fb37br			; 2.49533
	DD	0401fa634r			; 2.49452
	DD	0401f98f1r			; 2.49371
	DD	0401f8bb1r			; 2.4929
	DD	0401f7e75r			; 2.49209
	DD	0401f713dr			; 2.49129
	DD	0401f6408r			; 2.49048
	DD	0401f56d6r			; 2.48968
	DD	0401f49a9r			; 2.48887
	DD	0401f3c7er			; 2.48807
	DD	0401f2f58r			; 2.48726
	DD	0401f2234r			; 2.48646
	DD	0401f1515r			; 2.48566
	DD	0401f07f8r			; 2.48486
	DD	0401efae0r			; 2.48406
	DD	0401eedcbr			; 2.48326
	DD	0401ee0b9r			; 2.48247
	DD	0401ed3aar			; 2.48167
	DD	0401ec69fr			; 2.48087
	DD	0401eb998r			; 2.48008
	DD	0401eac94r			; 2.47928
	DD	0401e9f93r			; 2.47849
	DD	0401e9296r			; 2.4777
	DD	0401e859cr			; 2.4769
	DD	0401e78a5r			; 2.47611
	DD	0401e6bb2r			; 2.47532
	DD	0401e5ec2r			; 2.47453
	DD	0401e51d5r			; 2.47374
	DD	0401e44ecr			; 2.47296
	DD	0401e3806r			; 2.47217
	DD	0401e2b23r			; 2.47138
	DD	0401e1e44r			; 2.4706
	DD	0401e1168r			; 2.46981
	DD	0401e048fr			; 2.46903
	DD	0401df7b9r			; 2.46824
	DD	0401deae6r			; 2.46746
	DD	0401dde17r			; 2.46668
	DD	0401dd14br			; 2.4659
	DD	0401dc482r			; 2.46512
	DD	0401db7bcr			; 2.46434
	DD	0401daafar			; 2.46356
	DD	0401d9e3ar			; 2.46278
	DD	0401d917er			; 2.46201
	DD	0401d84c5r			; 2.46123
	DD	0401d780fr			; 2.46045
	DD	0401d6b5cr			; 2.45968
	DD	0401d5eacr			; 2.4589
	DD	0401d5200r			; 2.45813
	DD	0401d4556r			; 2.45736
	DD	0401d38afr			; 2.45658
	DD	0401d2c0cr			; 2.45581
	DD	0401d1f6br			; 2.45504
	DD	0401d12cer			; 2.45427
	DD	0401d0634r			; 2.4535
	DD	0401cf99cr			; 2.45273
	DD	0401ced08r			; 2.45197
	DD	0401ce076r			; 2.4512
	DD	0401cd3e8r			; 2.45043
	DD	0401cc75dr			; 2.44967
	DD	0401cbad4r			; 2.4489
	DD	0401cae4fr			; 2.44814
	DD	0401ca1ccr			; 2.44738
	DD	0401c954dr			; 2.44661
	DD	0401c88d0r			; 2.44585
	DD	0401c7c56r			; 2.44509
	DD	0401c6fdfr			; 2.44433
	DD	0401c636br			; 2.44357
	DD	0401c56far			; 2.44281
	DD	0401c4a8cr			; 2.44205
	DD	0401c3e21r			; 2.44129
	DD	0401c31b8r			; 2.44053
	DD	0401c2552r			; 2.43978
	DD	0401c18f0r			; 2.43902
	DD	0401c0c90r			; 2.43827
	DD	0401c0033r			; 2.43751
	DD	0401bf3d8r			; 2.43676
	DD	0401be781r			; 2.436
	DD	0401bdb2cr			; 2.43525
	DD	0401bcedar			; 2.4345
	DD	0401bc28br			; 2.43375
	DD	0401bb63er			; 2.433
	DD	0401ba9f5r			; 2.43225
	DD	0401b9daer			; 2.4315
	DD	0401b9169r			; 2.43075
	DD	0401b8528r			; 2.43
	DD	0401b78e9r			; 2.42925
	DD	0401b6cadr			; 2.42851
	DD	0401b6074r			; 2.42776
	DD	0401b543dr			; 2.42702
	DD	0401b4809r			; 2.42627
	DD	0401b3bd8r			; 2.42553
	DD	0401b2fa9r			; 2.42478
	DD	0401b237dr			; 2.42404
	DD	0401b1754r			; 2.4233
	DD	0401b0b2dr			; 2.42256
	DD	0401aff09r			; 2.42182
	DD	0401af2e8r			; 2.42108
	DD	0401ae6c9r			; 2.42034
	DD	0401adaadr			; 2.4196
	DD	0401ace93r			; 2.41886
	DD	0401ac27cr			; 2.41812
	DD	0401ab668r			; 2.41738
	DD	0401aaa56r			; 2.41665
	DD	0401a9e47r			; 2.41591
	DD	0401a923ar			; 2.41517
	DD	0401a8630r			; 2.41444
	DD	0401a7a29r			; 2.41371
	DD	0401a6e23r			; 2.41297
	DD	0401a6221r			; 2.41224
	DD	0401a5621r			; 2.41151
	DD	0401a4a23r			; 2.41077
	DD	0401a3e28r			; 2.41004
	DD	0401a3230r			; 2.40931
	DD	0401a263ar			; 2.40858
	DD	0401a1a46r			; 2.40785
	DD	0401a0e55r			; 2.40712
	DD	0401a0267r			; 2.4064
	DD	04019f67ar			; 2.40567
	DD	04019ea91r			; 2.40494
	DD	04019dea9r			; 2.40422
	DD	04019d2c5r			; 2.40349
	DD	04019c6e2r			; 2.40276
	DD	04019bb02r			; 2.40204
	DD	04019af25r			; 2.40131
	DD	04019a34ar			; 2.40059
	DD	040199771r			; 2.39987
	DD	040198b9ar			; 2.39915
	DD	040197fc6r			; 2.39842
	DD	0401973f5r			; 2.3977
	DD	040196826r			; 2.39698
	DD	040195c59r			; 2.39626
	DD	04019508er			; 2.39554
	DD	0401944c6r			; 2.39482
	DD	040193900r			; 2.3941
	DD	040192d3dr			; 2.39339
	DD	04019217cr			; 2.39267
	DD	0401915bdr			; 2.39195
	DD	040190a00r			; 2.39124
	DD	04018fe46r			; 2.39052
	DD	04018f28er			; 2.3898
	DD	04018e6d8r			; 2.38909
	DD	04018db25r			; 2.38838
	DD	04018cf74r			; 2.38766
	DD	04018c3c5r			; 2.38695
	DD	04018b819r			; 2.38624
	DD	04018ac6fr			; 2.38552
	DD	04018a0c7r			; 2.38481
	DD	040189521r			; 2.3841
	DD	04018897dr			; 2.38339
	DD	040187ddcr			; 2.38268
	DD	04018723dr			; 2.38197
	DD	0401866a0r			; 2.38126
	DD	040185b05r			; 2.38056
	DD	040184f6dr			; 2.37985
	DD	0401843d7r			; 2.37914
	DD	040183843r			; 2.37843
	DD	040182cb1r			; 2.37773
	DD	040182121r			; 2.37702
	DD	040181594r			; 2.37632
	DD	040180a08r			; 2.37561
	DD	04017fe7fr			; 2.37491
	DD	04017f2f8r			; 2.3742
	DD	04017e773r			; 2.3735
	DD	04017dbf1r			; 2.3728
	DD	04017d070r			; 2.3721
	DD	04017c4f2r			; 2.3714
	DD	04017b975r			; 2.37069
	DD	04017adfbr			; 2.36999
	DD	04017a283r			; 2.36929
	DD	04017970dr			; 2.36859
	DD	040178b99r			; 2.3679
	DD	040178028r			; 2.3672
	DD	0401774b8r			; 2.3665
	DD	04017694ar			; 2.3658
	DD	040175ddfr			; 2.3651
	DD	040175276r			; 2.36441
	DD	04017470er			; 2.36371
	DD	040173ba9r			; 2.36302
	DD	040173046r			; 2.36232
	DD	0401724e4r			; 2.36163
	DD	040171985r			; 2.36093
	DD	040170e28r			; 2.36024
	DD	0401702cdr			; 2.35955
	DD	04016f774r			; 2.35885
	DD	04016ec1dr			; 2.35816
	DD	04016e0c8r			; 2.35747
	DD	04016d575r			; 2.35678
	DD	04016ca24r			; 2.35609
	DD	04016bed5r			; 2.3554
	DD	04016b388r			; 2.35471
	DD	04016a83dr			; 2.35402
	DD	040169cf4r			; 2.35333
	DD	0401691adr			; 2.35264
	DD	040168668r			; 2.35195
	DD	040167b25r			; 2.35127
	DD	040166fe3r			; 2.35058
	DD	0401664a4r			; 2.34989
	DD	040165967r			; 2.34921
	DD	040164e2cr			; 2.34852
	DD	0401642f2r			; 2.34784
	DD	0401637bbr			; 2.34715
	DD	040162c85r			; 2.34647
	DD	040162152r			; 2.34578
	DD	040161620r			; 2.3451
	DD	040160af0r			; 2.34442
	DD	04015ffc3r			; 2.34374
	DD	04015f497r			; 2.34305
	DD	04015e96dr			; 2.34237
	DD	04015de44r			; 2.34169
	DD	04015d31er			; 2.34101
	DD	04015c7far			; 2.34033
	DD	04015bcd7r			; 2.33965
	DD	04015b1b7r			; 2.33897
	DD	04015a698r			; 2.33829
	DD	040159b7br			; 2.33761
	DD	040159060r			; 2.33694
	DD	040158547r			; 2.33626
	DD	040157a2fr			; 2.33558
	DD	040156f1ar			; 2.33491
	DD	040156406r			; 2.33423
	DD	0401558f5r			; 2.33355
	DD	040154de5r			; 2.33288
	DD	0401542d6r			; 2.3322
	DD	0401537car			; 2.33153
	DD	040152cbfr			; 2.33086
	DD	0401521b7r			; 2.33018
	DD	0401516b0r			; 2.32951
	DD	040150babr			; 2.32884
	DD	0401500a7r			; 2.32816
	DD	04014f5a6r			; 2.32749
	DD	04014eaa6r			; 2.32682
	DD	04014dfa8r			; 2.32615
	DD	04014d4acr			; 2.32548
	DD	04014c9b2r			; 2.32481
	DD	04014beb9r			; 2.32414
	DD	04014b3c2r			; 2.32347
	DD	04014a8cdr			; 2.3228
	DD	040149ddar			; 2.32213
	DD	0401492e8r			; 2.32147
	DD	0401487f8r			; 2.3208
	DD	040147d0ar			; 2.32013
	DD	04014721dr			; 2.31946
	DD	040146733r			; 2.3188
	DD	040145c4ar			; 2.31813
	DD	040145163r			; 2.31747
	DD	04014467dr			; 2.3168
	DD	040143b99r			; 2.31614
	DD	0401430b7r			; 2.31547
	DD	0401425d7r			; 2.31481
	DD	040141af8r			; 2.31415
	DD	04014101br			; 2.31348
	DD	040140540r			; 2.31282
	DD	04013fa66r			; 2.31216
	DD	04013ef8er			; 2.3115
	DD	04013e4b8r			; 2.31083
	DD	04013d9e4r			; 2.31017
	DD	04013cf11r			; 2.30951
	DD	04013c43fr			; 2.30885
	DD	04013b970r			; 2.30819
	DD	04013aea2r			; 2.30753
	DD	04013a3d6r			; 2.30687
	DD	04013990br			; 2.30622
	DD	040138e42r			; 2.30556
	DD	04013837br			; 2.3049
	DD	0401378b5r			; 2.30424
	DD	040136df1r			; 2.30359
	DD	04013632fr			; 2.30293
	DD	04013586er			; 2.30227
	DD	040134dafr			; 2.30162
	DD	0401342f1r			; 2.30096
	DD	040133835r			; 2.30031
	DD	040132d7br			; 2.29965
	DD	0401322c2r			; 2.299
	DD	04013180br			; 2.29834
	DD	040130d55r			; 2.29769
	DD	0401302a1r			; 2.29704
	DD	04012f7efr			; 2.29638
	DD	04012ed3er			; 2.29573
	DD	04012e28fr			; 2.29508
	DD	04012d7e2r			; 2.29443
	DD	04012cd35r			; 2.29377
	DD	04012c28br			; 2.29312
	DD	04012b7e2r			; 2.29247
	DD	04012ad3br			; 2.29182
	DD	04012a295r			; 2.29117
	DD	0401297f1r			; 2.29052
	DD	040128d4er			; 2.28987
	DD	0401282adr			; 2.28923
	DD	04012780dr			; 2.28858
	DD	040126d6fr			; 2.28793
	DD	0401262d3r			; 2.28728
	DD	040125838r			; 2.28663
	DD	040124d9er			; 2.28599
	DD	040124306r			; 2.28534
	DD	040123870r			; 2.28469
	DD	040122ddbr			; 2.28405
	DD	040122348r			; 2.2834
	DD	0401218b6r			; 2.28276
	DD	040120e25r			; 2.28211
	DD	040120397r			; 2.28147
	DD	04011f909r			; 2.28082
	DD	04011ee7dr			; 2.28018
	DD	04011e3f3r			; 2.27954
	DD	04011d96ar			; 2.27889
	DD	04011cee3r			; 2.27825
	DD	04011c45dr			; 2.27761
	DD	04011b9d8r			; 2.27697
	DD	04011af55r			; 2.27633
	DD	04011a4d4r			; 2.27569
	DD	040119a54r			; 2.27504
	DD	040118fd5r			; 2.2744
	DD	040118558r			; 2.27376
	DD	040117adcr			; 2.27312
	DD	040117062r			; 2.27248
	DD	0401165e9r			; 2.27185
	DD	040115b72r			; 2.27121
	DD	0401150fcr			; 2.27057
	DD	040114688r			; 2.26993
	DD	040113c15r			; 2.26929
	DD	0401131a3r			; 2.26865
	DD	040112733r			; 2.26802
	DD	040111cc4r			; 2.26738
	DD	040111257r			; 2.26674
	DD	0401107ebr			; 2.26611
	DD	04010fd81r			; 2.26547
	DD	04010f317r			; 2.26484
	DD	04010e8b0r			; 2.2642
	DD	04010de4ar			; 2.26357
	DD	04010d3e5r			; 2.26293
	DD	04010c981r			; 2.2623
	DD	04010bf1fr			; 2.26167
	DD	04010b4bfr			; 2.26103
	DD	04010aa5fr			; 2.2604
	DD	04010a001r			; 2.25977
	DD	0401095a5r			; 2.25913
	DD	040108b4ar			; 2.2585
	DD	0401080f0r			; 2.25787
	DD	040107698r			; 2.25724
	DD	040106c41r			; 2.25661
	DD	0401061ebr			; 2.25598
	DD	040105797r			; 2.25535
	DD	040104d44r			; 2.25472
	DD	0401042f2r			; 2.25409
	DD	0401038a2r			; 2.25346
	DD	040102e53r			; 2.25283
	DD	040102406r			; 2.2522
	DD	0401019bar			; 2.25157
	DD	040100f6fr			; 2.25094
	DD	040100525r			; 2.25031
	DD	0400ffaddr			; 2.24969
	DD	0400ff096r			; 2.24906
	DD	0400fe651r			; 2.24843
	DD	0400fdc0dr			; 2.24781
	DD	0400fd1car			; 2.24718
	DD	0400fc788r			; 2.24655
	DD	0400fbd48r			; 2.24593
	DD	0400fb309r			; 2.2453
	DD	0400fa8ccr			; 2.24468
	DD	0400f9e8fr			; 2.24405
	DD	0400f9455r			; 2.24343
	DD	0400f8a1br			; 2.2428
	DD	0400f7fe3r			; 2.24218
	DD	0400f75abr			; 2.24156
	DD	0400f6b76r			; 2.24093
	DD	0400f6141r			; 2.24031
	DD	0400f570er			; 2.23969
	DD	0400f4cdcr			; 2.23907
	DD	0400f42abr			; 2.23844
	DD	0400f387cr			; 2.23782
	DD	0400f2e4er			; 2.2372
	DD	0400f2421r			; 2.23658
	DD	0400f19f6r			; 2.23596
	DD	0400f0fcbr			; 2.23534
	DD	0400f05a2r			; 2.23472
	DD	0400efb7br			; 2.2341
	DD	0400ef154r			; 2.23348
	DD	0400ee72fr			; 2.23286
	DD	0400edd0br			; 2.23224
	DD	0400ed2e8r			; 2.23162
	DD	0400ec8c7r			; 2.231
	DD	0400ebea7r			; 2.23039
	DD	0400eb488r			; 2.22977
	DD	0400eaa6ar			; 2.22915
	DD	0400ea04dr			; 2.22853
	DD	0400e9632r			; 2.22792
	DD	0400e8c18r			; 2.2273
	DD	0400e81ffr			; 2.22668
	DD	0400e77e8r			; 2.22607
	DD	0400e6dd1r			; 2.22545
	DD	0400e63bcr			; 2.22484
	DD	0400e59a8r			; 2.22422
	DD	0400e4f95r			; 2.22361
	DD	0400e4584r			; 2.22299
	DD	0400e3b74r			; 2.22238
	DD	0400e3165r			; 2.22176
	DD	0400e2757r			; 2.22115
	DD	0400e1d4ar			; 2.22054
	DD	0400e133fr			; 2.21992
	DD	0400e0934r			; 2.21931
	DD	0400dff2br			; 2.2187
	DD	0400df523r			; 2.21809
	DD	0400deb1cr			; 2.21747
	DD	0400de117r			; 2.21686
	DD	0400dd713r			; 2.21625
	DD	0400dcd0fr			; 2.21564
	DD	0400dc30dr			; 2.21503
	DD	0400db90dr			; 2.21442
	DD	0400daf0dr			; 2.21381
	DD	0400da50er			; 2.2132
	DD	0400d9b11r			; 2.21259
	DD	0400d9115r			; 2.21198
	DD	0400d871ar			; 2.21137
	DD	0400d7d20r			; 2.21076
	DD	0400d7328r			; 2.21015
	DD	0400d6930r			; 2.20955
	DD	0400d5f3ar			; 2.20894
	DD	0400d5544r			; 2.20833
	DD	0400d4b50r			; 2.20772
	DD	0400d415dr			; 2.20711
	DD	0400d376cr			; 2.20651
	DD	0400d2d7br			; 2.2059
	DD	0400d238cr			; 2.20529
	DD	0400d199dr			; 2.20469
	DD	0400d0fb0r			; 2.20408
	DD	0400d05c4r			; 2.20348
	DD	0400cfbd9r			; 2.20287
	DD	0400cf1efr			; 2.20227
	DD	0400ce806r			; 2.20166
	DD	0400cde1fr			; 2.20106
	DD	0400cd438r			; 2.20045
	DD	0400cca53r			; 2.19985
	DD	0400cc06fr			; 2.19925
	DD	0400cb68br			; 2.19864
	DD	0400caca9r			; 2.19804
	DD	0400ca2c8r			; 2.19744
	DD	0400c98e9r			; 2.19683
	DD	0400c8f0ar			; 2.19623
	DD	0400c852cr			; 2.19563
	DD	0400c7b50r			; 2.19503
	DD	0400c7174r			; 2.19442
	DD	0400c679ar			; 2.19382
	DD	0400c5dc1r			; 2.19322
	DD	0400c53e8r			; 2.19262
	DD	0400c4a11r			; 2.19202
	DD	0400c403br			; 2.19142
	DD	0400c3666r			; 2.19082
	DD	0400c2c93r			; 2.19022
	DD	0400c22c0r			; 2.18962
	DD	0400c18eer			; 2.18902
	DD	0400c0f1dr			; 2.18842
	DD	0400c054er			; 2.18782
	DD	0400bfb7fr			; 2.18723
	DD	0400bf1b2r			; 2.18663
	DD	0400be7e6r			; 2.18603
	DD	0400bde1ar			; 2.18543
	DD	0400bd450r			; 2.18483
	DD	0400bca87r			; 2.18424
	DD	0400bc0bfr			; 2.18364
	DD	0400bb6f8r			; 2.18304
	DD	0400bad32r			; 2.18245
	DD	0400ba36dr			; 2.18185
	DD	0400b99a9r			; 2.18125
	DD	0400b8fe6r			; 2.18066
	DD	0400b8624r			; 2.18006
	DD	0400b7c63r			; 2.17947
	DD	0400b72a3r			; 2.17887
	DD	0400b68e4r			; 2.17828
	DD	0400b5f27r			; 2.17768
	DD	0400b556ar			; 2.17709
	DD	0400b4baer			; 2.17649
	DD	0400b41f4r			; 2.1759
	DD	0400b383ar			; 2.17531
	DD	0400b2e81r			; 2.17471
	DD	0400b24car			; 2.17412
	DD	0400b1b13r			; 2.17353
	DD	0400b115er			; 2.17294
	DD	0400b07a9r			; 2.17234
	DD	0400afdf6r			; 2.17175
	DD	0400af443r			; 2.17116
	DD	0400aea92r			; 2.17057
	DD	0400ae0e1r			; 2.16998
	DD	0400ad731r			; 2.16938
	DD	0400acd83r			; 2.16879
	DD	0400ac3d5r			; 2.1682
	DD	0400aba29r			; 2.16761
	DD	0400ab07dr			; 2.16702
	DD	0400aa6d3r			; 2.16643
	DD	0400a9d29r			; 2.16584
	DD	0400a9381r			; 2.16525
	DD	0400a89d9r			; 2.16466
	DD	0400a8033r			; 2.16407
	DD	0400a768dr			; 2.16349
	DD	0400a6ce8r			; 2.1629
	DD	0400a6345r			; 2.16231
	DD	0400a59a2r			; 2.16172
	DD	0400a5000r			; 2.16113
	DD	0400a465fr			; 2.16055
	DD	0400a3cc0r			; 2.15996
	DD	0400a3321r			; 2.15937
	DD	0400a2983r			; 2.15878
	DD	0400a1fe6r			; 2.1582
	DD	0400a164ar			; 2.15761
	DD	0400a0cafr			; 2.15702
	DD	0400a0315r			; 2.15644
	DD	04009f97cr			; 2.15585
	DD	04009efe4r			; 2.15527
	DD	04009e64dr			; 2.15468
	DD	04009dcb7r			; 2.1541
	DD	04009d321r			; 2.15351
	DD	04009c98dr			; 2.15293
	DD	04009bffar			; 2.15234
	DD	04009b667r			; 2.15176
	DD	04009acd6r			; 2.15117
	DD	04009a345r			; 2.15059
	DD	0400999b6r			; 2.15001
	DD	040099027r			; 2.14942
	DD	040098699r			; 2.14884
	DD	040097d0dr			; 2.14826
	DD	040097381r			; 2.14767
	DD	0400969f6r			; 2.14709
	DD	04009606cr			; 2.14651
	DD	0400956e3r			; 2.14593
	DD	040094d5ar			; 2.14535
	DD	0400943d3r			; 2.14476
	DD	040093a4dr			; 2.14418
	DD	0400930c7r			; 2.1436
	DD	040092743r			; 2.14302
	DD	040091dbfr			; 2.14244
	DD	04009143cr			; 2.14186
	DD	040090abbr			; 2.14128
	DD	04009013ar			; 2.1407
	DD	04008f7bar			; 2.14012
	DD	04008ee3br			; 2.13954
	DD	04008e4bcr			; 2.13896
	DD	04008db3fr			; 2.13838
	DD	04008d1c3r			; 2.1378
	DD	04008c847r			; 2.13722
	DD	04008becdr			; 2.13665
	DD	04008b553r			; 2.13607
	DD	04008abdar			; 2.13549
	DD	04008a262r			; 2.13491
	DD	0400898ebr			; 2.13433
	DD	040088f75r			; 2.13376
	DD	040088600r			; 2.13318
	DD	040087c8br			; 2.1326
	DD	040087318r			; 2.13202
	DD	0400869a5r			; 2.13145
	DD	040086033r			; 2.13087
	DD	0400856c3r			; 2.1303
	DD	040084d52r			; 2.12972
	DD	0400843e3r			; 2.12914
	DD	040083a75r			; 2.12857
	DD	040083108r			; 2.12799
	DD	04008279br			; 2.12742
	DD	040081e2fr			; 2.12684
	DD	0400814c5r			; 2.12627
	DD	040080b5br			; 2.12569
	DD	0400801f1r			; 2.12512
	DD	04007f889r			; 2.12454
	DD	04007ef22r			; 2.12397
	DD	04007e5bbr			; 2.1234
	DD	04007dc56r			; 2.12282
	DD	04007d2f1r			; 2.12225
	DD	04007c98dr			; 2.12168
	DD	04007c02ar			; 2.1211
	DD	04007b6c7r			; 2.12053
	DD	04007ad66r			; 2.11996
	DD	04007a405r			; 2.11939
	DD	040079aa5r			; 2.11881
	DD	040079146r			; 2.11824
	DD	0400787e8r			; 2.11767
	DD	040077e8br			; 2.1171
	DD	04007752fr			; 2.11653
	DD	040076bd3r			; 2.11596
	DD	040076278r			; 2.11539
	DD	04007591er			; 2.11481
	DD	040074fc5r			; 2.11424
	DD	04007466dr			; 2.11367
	DD	040073d15r			; 2.1131
	DD	0400733bfr			; 2.11253
	DD	040072a69r			; 2.11196
	DD	040072114r			; 2.11139
	DD	0400717c0r			; 2.11082
	DD	040070e6cr			; 2.11026
	DD	04007051ar			; 2.10969
	DD	04006fbc8r			; 2.10912
	DD	04006f277r			; 2.10855
	DD	04006e927r			; 2.10798
	DD	04006dfd7r			; 2.10741
	DD	04006d689r			; 2.10684
	DD	04006cd3br			; 2.10628
	DD	04006c3eer			; 2.10571
	DD	04006baa2r			; 2.10514
	DD	04006b157r			; 2.10457
	DD	04006a80cr			; 2.10401
	DD	040069ec3r			; 2.10344
	DD	04006957ar			; 2.10287
	DD	040068c31r			; 2.10231
	DD	0400682ear			; 2.10174
	DD	0400679a4r			; 2.10117
	DD	04006705er			; 2.10061
	DD	040066719r			; 2.10004
	DD	040065dd5r			; 2.09948
	DD	040065491r			; 2.09891
	DD	040064b4er			; 2.09835
	DD	04006420dr			; 2.09778
	DD	0400638ccr			; 2.09722
	DD	040062f8br			; 2.09665
	DD	04006264cr			; 2.09609
	DD	040061d0dr			; 2.09552
	DD	0400613cfr			; 2.09496
	DD	040060a92r			; 2.0944
	DD	040060155r			; 2.09383
	DD	04005f81ar			; 2.09327
	DD	04005eedfr			; 2.0927
	DD	04005e5a5r			; 2.09214
	DD	04005dc6br			; 2.09158
	DD	04005d333r			; 2.09102
	DD	04005c9fbr			; 2.09045
	DD	04005c0c4r			; 2.08989
	DD	04005b78dr			; 2.08933
	DD	04005ae58r			; 2.08877
	DD	04005a523r			; 2.0882
	DD	040059befr			; 2.08764
	DD	0400592bcr			; 2.08708
	DD	040058989r			; 2.08652
	DD	040058057r			; 2.08596
	DD	040057726r			; 2.0854
	DD	040056df6r			; 2.08484
	DD	0400564c6r			; 2.08428
	DD	040055b97r			; 2.08372
	DD	040055269r			; 2.08315
	DD	04005493cr			; 2.08259
	DD	04005400fr			; 2.08203
	DD	0400536e3r			; 2.08148
	DD	040052db8r			; 2.08092
	DD	04005248er			; 2.08036
	DD	040051b64r			; 2.0798
	DD	04005123br			; 2.07924
	DD	040050913r			; 2.07868
	DD	04004ffebr			; 2.07812
	DD	04004f6c5r			; 2.07756
	DD	04004ed9fr			; 2.077
	DD	04004e479r			; 2.07644
	DD	04004db55r			; 2.07589
	DD	04004d231r			; 2.07533
	DD	04004c90er			; 2.07477
	DD	04004bfebr			; 2.07421
	DD	04004b6car			; 2.07366
	DD	04004ada9r			; 2.0731
	DD	04004a488r			; 2.07254
	DD	040049b69r			; 2.07199
	DD	04004924ar			; 2.07143
	DD	04004892cr			; 2.07087
	DD	04004800er			; 2.07032
	DD	0400476f2r			; 2.06976
	DD	040046dd6r			; 2.0692
	DD	0400464bar			; 2.06865
	DD	040045ba0r			; 2.06809
	DD	040045286r			; 2.06754
	DD	04004496dr			; 2.06698
	DD	040044054r			; 2.06643
	DD	04004373cr			; 2.06587
	DD	040042e25r			; 2.06532
	DD	04004250fr			; 2.06476
	DD	040041bf9r			; 2.06421
	DD	0400412e4r			; 2.06365
	DD	0400409d0r			; 2.0631
	DD	0400400bcr			; 2.06254
	DD	04003f7a9r			; 2.06199
	DD	04003ee97r			; 2.06144
	DD	04003e585r			; 2.06088
	DD	04003dc75r			; 2.06033
	DD	04003d364r			; 2.05978
	DD	04003ca55r			; 2.05922
	DD	04003c146r			; 2.05867
	DD	04003b838r			; 2.05812
	DD	04003af2ar			; 2.05757
	DD	04003a61er			; 2.05701
	DD	040039d11r			; 2.05646
	DD	040039406r			; 2.05591
	DD	040038afbr			; 2.05536
	DD	0400381f1r			; 2.05481
	DD	0400378e8r			; 2.05425
	DD	040036fdfr			; 2.0537
	DD	0400366d7r			; 2.05315
	DD	040035dcfr			; 2.0526
	DD	0400354c9r			; 2.05205
	DD	040034bc3r			; 2.0515
	DD	0400342bdr			; 2.05095
	DD	0400339b8r			; 2.0504
	DD	0400330b4r			; 2.04985
	DD	0400327b1r			; 2.0493
	DD	040031eaer			; 2.04875
	DD	0400315acr			; 2.0482
	DD	040030caar			; 2.04765
	DD	0400303aar			; 2.0471
	DD	04002faa9r			; 2.04655
	DD	04002f1aar			; 2.046
	DD	04002e8abr			; 2.04545
	DD	04002dfadr			; 2.0449
	DD	04002d6afr			; 2.04435
	DD	04002cdb2r			; 2.0438
	DD	04002c4b6r			; 2.04326
	DD	04002bbbar			; 2.04271
	DD	04002b2bfr			; 2.04216
	DD	04002a9c5r			; 2.04161
	DD	04002a0cbr			; 2.04106
	DD	0400297d2r			; 2.04052
	DD	040028edar			; 2.03997
	DD	0400285e2r			; 2.03942
	DD	040027cebr			; 2.03887
	DD	0400273f4r			; 2.03833
	DD	040026afer			; 2.03778
	DD	040026209r			; 2.03723
	DD	040025915r			; 2.03669
	DD	040025021r			; 2.03614
	DD	04002472dr			; 2.03559
	DD	040023e3ar			; 2.03505
	DD	040023548r			; 2.0345
	DD	040022c57r			; 2.03396
	DD	040022366r			; 2.03341
	DD	040021a76r			; 2.03287
	DD	040021186r			; 2.03232
	DD	040020897r			; 2.03177
	DD	04001ffa9r			; 2.03123
	DD	04001f6bbr			; 2.03068
	DD	04001edcer			; 2.03014
	DD	04001e4e1r			; 2.02959
	DD	04001dbf5r			; 2.02905
	DD	04001d30ar			; 2.02851
	DD	04001ca1fr			; 2.02796
	DD	04001c135r			; 2.02742
	DD	04001b84cr			; 2.02687
	DD	04001af63r			; 2.02633
	DD	04001a67br			; 2.02579
	DD	040019d93r			; 2.02524
	DD	0400194acr			; 2.0247
	DD	040018bc6r			; 2.02416
	DD	0400182e0r			; 2.02361
	DD	0400179fbr			; 2.02307
	DD	040017116r			; 2.02253
	DD	040016832r			; 2.02198
	DD	040015f4er			; 2.02144
	DD	04001566cr			; 2.0209
	DD	040014d89r			; 2.02036
	DD	0400144a8r			; 2.01982
	DD	040013bc7r			; 2.01927
	DD	0400132e6r			; 2.01873
	DD	040012a06r			; 2.01819
	DD	040012127r			; 2.01765
	DD	040011848r			; 2.01711
	DD	040010f6ar			; 2.01657
	DD	04001068dr			; 2.01602
	DD	04000fdb0r			; 2.01548
	DD	04000f4d3r			; 2.01494
	DD	04000ebf8r			; 2.0144
	DD	04000e31dr			; 2.01386
	DD	04000da42r			; 2.01332
	DD	04000d168r			; 2.01278
	DD	04000c88er			; 2.01224
	DD	04000bfb6r			; 2.0117
	DD	04000b6ddr			; 2.01116
	DD	04000ae06r			; 2.01062
	DD	04000a52fr			; 2.01008
	DD	040009c58r			; 2.00954
	DD	040009382r			; 2.009
	DD	040008aadr			; 2.00846
	DD	0400081d8r			; 2.00793
	DD	040007903r			; 2.00739
	DD	040007030r			; 2.00685
	DD	04000675dr			; 2.00631
	DD	040005e8ar			; 2.00577
	DD	0400055b8r			; 2.00523
	DD	040004ce7r			; 2.00469
	DD	040004416r			; 2.00416
	DD	040003b45r			; 2.00362
	DD	040003276r			; 2.00308
	DD	0400029a6r			; 2.00254
	DD	0400020d8r			; 2.002
	DD	04000180ar			; 2.00147
	DD	040000f3cr			; 2.00093
	DD	04000066fr			; 2.00039
	DD	03ffffb46r			; 1.99986
	DD	03fffe9aer			; 1.99932
	DD	03fffd817r			; 1.99878
	DD	03fffc682r			; 1.99825
	DD	03fffb4edr			; 1.99771
	DD	03fffa35ar			; 1.99717
	DD	03fff91c8r			; 1.99664
	DD	03fff8037r			; 1.9961
	DD	03fff6ea7r			; 1.99556
	DD	03fff5d18r			; 1.99503
	DD	03fff4b8ar			; 1.99449
	DD	03fff39fdr			; 1.99396
	DD	03fff2871r			; 1.99342
	DD	03fff16e7r			; 1.99289
	DD	03fff055dr			; 1.99235
	DD	03ffef3d5r			; 1.99182
	DD	03ffee24dr			; 1.99128
	DD	03ffed0c7r			; 1.99075
	DD	03ffebf42r			; 1.99021
	DD	03ffeadber			; 1.98968
	DD	03ffe9c3ar			; 1.98914
	DD	03ffe8ab8r			; 1.98861
	DD	03ffe7937r			; 1.98807
	DD	03ffe67b8r			; 1.98754
	DD	03ffe5639r			; 1.98701
	DD	03ffe44bbr			; 1.98647
	DD	03ffe333er			; 1.98594
	DD	03ffe21c2r			; 1.98541
	DD	03ffe1048r			; 1.98487
	DD	03ffdfecer			; 1.98434
	DD	03ffded56r			; 1.98381
	DD	03ffddbder			; 1.98327
	DD	03ffdca68r			; 1.98274
	DD	03ffdb8f2r			; 1.98221
	DD	03ffda77er			; 1.98167
	DD	03ffd960br			; 1.98114
	DD	03ffd8498r			; 1.98061
	DD	03ffd7327r			; 1.98008
	DD	03ffd61b7r			; 1.97954
	DD	03ffd5048r			; 1.97901
	DD	03ffd3ed9r			; 1.97848
	DD	03ffd2d6cr			; 1.97795
	DD	03ffd1c00r			; 1.97742
	DD	03ffd0a95r			; 1.97689
	DD	03ffcf92br			; 1.97635
	DD	03ffce7c2r			; 1.97582
	DD	03ffcd65ar			; 1.97529
	DD	03ffcc4f3r			; 1.97476
	DD	03ffcb38dr			; 1.97423
	DD	03ffca228r			; 1.9737
	DD	03ffc90c4r			; 1.97317
	DD	03ffc7f61r			; 1.97264
	DD	03ffc6dffr			; 1.97211
	DD	03ffc5c9er			; 1.97158
	DD	03ffc4b3er			; 1.97105
	DD	03ffc39dfr			; 1.97052
	DD	03ffc2881r			; 1.96999
	DD	03ffc1723r			; 1.96946
	DD	03ffc05c7r			; 1.96893
	DD	03ffbf46cr			; 1.9684
	DD	03ffbe312r			; 1.96787
	DD	03ffbd1b9r			; 1.96734
	DD	03ffbc061r			; 1.96681
	DD	03ffbaf0ar			; 1.96628
	DD	03ffb9db4r			; 1.96575
	DD	03ffb8c5fr			; 1.96522
	DD	03ffb7b0br			; 1.96469
	DD	03ffb69b7r			; 1.96416
	DD	03ffb5865r			; 1.96364
	DD	03ffb4714r			; 1.96311
	DD	03ffb35c4r			; 1.96258
	DD	03ffb2474r			; 1.96205
	DD	03ffb1326r			; 1.96152
	DD	03ffb01d9r			; 1.96099
	DD	03ffaf08cr			; 1.96047
	DD	03ffadf41r			; 1.95994
	DD	03ffacdf6r			; 1.95941
	DD	03ffabcadr			; 1.95888
	DD	03ffaab64r			; 1.95836
	DD	03ffa9a1cr			; 1.95783
	DD	03ffa88d6r			; 1.9573
	DD	03ffa7790r			; 1.95677
	DD	03ffa664br			; 1.95625
	DD	03ffa5507r			; 1.95572
	DD	03ffa43c4r			; 1.95519
	DD	03ffa3283r			; 1.95467
	DD	03ffa2141r			; 1.95414
	DD	03ffa1001r			; 1.95361
	DD	03ff9fec2r			; 1.95309
	DD	03ff9ed84r			; 1.95256
	DD	03ff9dc47r			; 1.95203
	DD	03ff9cb0ar			; 1.95151
	DD	03ff9b9cfr			; 1.95098
	DD	03ff9a894r			; 1.95046
	DD	03ff9975br			; 1.94993
	DD	03ff98622r			; 1.94941
	DD	03ff974ebr			; 1.94888
	DD	03ff963b4r			; 1.94836
	DD	03ff9527er			; 1.94783
	DD	03ff94149r			; 1.9473
	DD	03ff93015r			; 1.94678
	DD	03ff91ee2r			; 1.94625
	DD	03ff90dafr			; 1.94573
	DD	03ff8fc7er			; 1.94521
	DD	03ff8eb4er			; 1.94468
	DD	03ff8da1er			; 1.94416
	DD	03ff8c8f0r			; 1.94363
	DD	03ff8b7c2r			; 1.94311
	DD	03ff8a695r			; 1.94258
	DD	03ff89569r			; 1.94206
	DD	03ff8843er			; 1.94154
	DD	03ff87314r			; 1.94101
	DD	03ff861ebr			; 1.94049
	DD	03ff850c2r			; 1.93996
	DD	03ff83f9br			; 1.93944
	DD	03ff82e74r			; 1.93892
	DD	03ff81d4fr			; 1.93839
	DD	03ff80c2ar			; 1.93787
	DD	03ff7fb06r			; 1.93735
	DD	03ff7e9e3r			; 1.93683
	DD	03ff7d8c1r			; 1.9363
	DD	03ff7c7a0r			; 1.93578
	DD	03ff7b67fr			; 1.93526
	DD	03ff7a560r			; 1.93473
	DD	03ff79441r			; 1.93421
	DD	03ff78323r			; 1.93369
	DD	03ff77206r			; 1.93317
	DD	03ff760ear			; 1.93265
	DD	03ff74fcfr			; 1.93212
	DD	03ff73eb5r			; 1.9316
	DD	03ff72d9br			; 1.93108
	DD	03ff71c83r			; 1.93056
	DD	03ff70b6br			; 1.93004
	DD	03ff6fa54r			; 1.92951
	DD	03ff6e93er			; 1.92899
	DD	03ff6d829r			; 1.92847
	DD	03ff6c715r			; 1.92795
	DD	03ff6b601r			; 1.92743
	DD	03ff6a4efr			; 1.92691
	DD	03ff693ddr			; 1.92639
	DD	03ff682ccr			; 1.92587
	DD	03ff671bcr			; 1.92535
	DD	03ff660adr			; 1.92483
	DD	03ff64f9er			; 1.9243
	DD	03ff63e91r			; 1.92378
	DD	03ff62d84r			; 1.92326
	DD	03ff61c78r			; 1.92274
	DD	03ff60b6dr			; 1.92222
	DD	03ff5fa63r			; 1.9217
	DD	03ff5e959r			; 1.92118
	DD	03ff5d851r			; 1.92066
	DD	03ff5c749r			; 1.92014
	DD	03ff5b642r			; 1.91962
	DD	03ff5a53cr			; 1.91911
	DD	03ff59437r			; 1.91859
	DD	03ff58332r			; 1.91807
	DD	03ff5722fr			; 1.91755
	DD	03ff5612cr			; 1.91703
	DD	03ff5502ar			; 1.91651
	DD	03ff53f29r			; 1.91599
	DD	03ff52e28r			; 1.91547
	DD	03ff51d29r			; 1.91495
	DD	03ff50c2ar			; 1.91443
	DD	03ff4fb2cr			; 1.91392
	DD	03ff4ea2fr			; 1.9134
	DD	03ff4d933r			; 1.91288
	DD	03ff4c837r			; 1.91236
	DD	03ff4b73dr			; 1.91184
	DD	03ff4a643r			; 1.91132
	DD	03ff49549r			; 1.91081
	DD	03ff48451r			; 1.91029
	DD	03ff4735ar			; 1.90977
	DD	03ff46263r			; 1.90925
	DD	03ff4516dr			; 1.90873
	DD	03ff44078r			; 1.90822
	DD	03ff42f83r			; 1.9077
	DD	03ff41e90r			; 1.90718
	DD	03ff40d9dr			; 1.90667
	DD	03ff3fcabr			; 1.90615
	DD	03ff3ebbar			; 1.90563
	DD	03ff3dac9r			; 1.90511
	DD	03ff3c9dar			; 1.9046
	DD	03ff3b8ebr			; 1.90408
	DD	03ff3a7fdr			; 1.90356
	DD	03ff3970fr			; 1.90305
	DD	03ff38623r			; 1.90253
	DD	03ff37537r			; 1.90201
	DD	03ff3644cr			; 1.9015
	DD	03ff35361r			; 1.90098
	DD	03ff34278r			; 1.90047
	DD	03ff3318fr			; 1.89995
	DD	03ff320a7r			; 1.89943
	DD	03ff30fc0r			; 1.89892
	DD	03ff2fedar			; 1.8984
	DD	03ff2edf4r			; 1.89789
	DD	03ff2dd0fr			; 1.89737
	DD	03ff2cc2br			; 1.89686
	DD	03ff2bb47r			; 1.89634
	DD	03ff2aa65r			; 1.89583
	DD	03ff29983r			; 1.89531
	DD	03ff288a1r			; 1.89479
	DD	03ff277c1r			; 1.89428
	DD	03ff266e1r			; 1.89376
	DD	03ff25602r			; 1.89325
	DD	03ff24524r			; 1.89274
	DD	03ff23447r			; 1.89222
	DD	03ff2236ar			; 1.89171
	DD	03ff2128er			; 1.89119
	DD	03ff201b3r			; 1.89068
	DD	03ff1f0d8r			; 1.89016
	DD	03ff1dffer			; 1.88965
	DD	03ff1cf25r			; 1.88913
	DD	03ff1be4dr			; 1.88862
	DD	03ff1ad76r			; 1.88811
	DD	03ff19c9fr			; 1.88759
	DD	03ff18bc9r			; 1.88708
	DD	03ff17af3r			; 1.88656
	DD	03ff16a1er			; 1.88605
	DD	03ff1594ar			; 1.88554
	DD	03ff14877r			; 1.88502
	DD	03ff137a5r			; 1.88451
	DD	03ff126d3r			; 1.884
	DD	03ff11602r			; 1.88348
	DD	03ff10531r			; 1.88297
	DD	03ff0f462r			; 1.88246
	DD	03ff0e393r			; 1.88195
	DD	03ff0d2c5r			; 1.88143
	DD	03ff0c1f7r			; 1.88092
	DD	03ff0b12ar			; 1.88041
	DD	03ff0a05er			; 1.87989
	DD	03ff08f93r			; 1.87938
	DD	03ff07ec8r			; 1.87887
	DD	03ff06dfer			; 1.87836
	DD	03ff05d35r			; 1.87784
	DD	03ff04c6cr			; 1.87733
	DD	03ff03ba4r			; 1.87682
	DD	03ff02addr			; 1.87631
	DD	03ff01a16r			; 1.8758
	DD	03ff00950r			; 1.87528
	DD	03feff88br			; 1.87477
	DD	03fefe7c7r			; 1.87426
	DD	03fefd703r			; 1.87375
	DD	03fefc640r			; 1.87324
	DD	03fefb57er			; 1.87273
	DD	03fefa4bcr			; 1.87221
	DD	03fef93fbr			; 1.8717
	DD	03fef833ar			; 1.87119
	DD	03fef727br			; 1.87068
	DD	03fef61bcr			; 1.87017
	DD	03fef50fdr			; 1.86966
	DD	03fef4040r			; 1.86915
	DD	03fef2f83r			; 1.86864
	DD	03fef1ec6r			; 1.86813
	DD	03fef0e0br			; 1.86762
	DD	03feefd50r			; 1.86711
	DD	03feeec96r			; 1.8666
	DD	03feedbdcr			; 1.86608
	DD	03feecb23r			; 1.86557
	DD	03feeba6br			; 1.86506
	DD	03feea9b3r			; 1.86455
	DD	03fee98fcr			; 1.86404
	DD	03fee8846r			; 1.86353
	DD	03fee7790r			; 1.86302
	DD	03fee66dbr			; 1.86251
	DD	03fee5627r			; 1.862
	DD	03fee4573r			; 1.86149
	DD	03fee34c0r			; 1.86098
	DD	03fee240dr			; 1.86048
	DD	03fee135cr			; 1.85997
	DD	03fee02abr			; 1.85946
	DD	03fedf1far			; 1.85895
	DD	03fede14ar			; 1.85844
	DD	03fedd09br			; 1.85793
	DD	03fedbfedr			; 1.85742
	DD	03fedaf3fr			; 1.85691
	DD	03fed9e92r			; 1.8564
	DD	03fed8de5r			; 1.85589
	DD	03fed7d39r			; 1.85538
	DD	03fed6c8er			; 1.85488
	DD	03fed5be3r			; 1.85437
	DD	03fed4b39r			; 1.85386
	DD	03fed3a8fr			; 1.85335
	DD	03fed29e7r			; 1.85284
	DD	03fed193er			; 1.85233
	DD	03fed0897r			; 1.85182
	DD	03fecf7f0r			; 1.85132
	DD	03fece74ar			; 1.85081
	DD	03fecd6a4r			; 1.8503
	DD	03fecc5ffr			; 1.84979
	DD	03fecb55ar			; 1.84928
	DD	03feca4b7r			; 1.84878
	DD	03fec9413r			; 1.84827
	DD	03fec8371r			; 1.84776
	DD	03fec72cfr			; 1.84725
	DD	03fec622dr			; 1.84675
	DD	03fec518dr			; 1.84624
	DD	03fec40edr			; 1.84573
	DD	03fec304dr			; 1.84522
	DD	03fec1faer			; 1.84472
	DD	03fec0f10r			; 1.84421
	DD	03febfe72r			; 1.8437
	DD	03febedd5r			; 1.8432
	DD	03febdd38r			; 1.84269
	DD	03febcc9dr			; 1.84218
	DD	03febbc01r			; 1.84167
	DD	03febab67r			; 1.84117
	DD	03feb9accr			; 1.84066
	DD	03feb8a33r			; 1.84016
	DD	03feb799ar			; 1.83965
	DD	03feb6902r			; 1.83914
	DD	03feb586ar			; 1.83864
	DD	03feb47d3r			; 1.83813
	DD	03feb373cr			; 1.83762
	DD	03feb26a6r			; 1.83712
	DD	03feb1611r			; 1.83661
	DD	03feb057cr			; 1.8361
	DD	03feaf4e8r			; 1.8356
	DD	03feae454r			; 1.83509
	DD	03fead3c1r			; 1.83459
	DD	03feac32fr			; 1.83408
	DD	03feab29dr			; 1.83358
	DD	03feaa20br			; 1.83307
	DD	03fea917br			; 1.83256
	DD	03fea80ebr			; 1.83206
	DD	03fea705br			; 1.83155
	DD	03fea5fccr			; 1.83105
	DD	03fea4f3dr			; 1.83054
	DD	03fea3eb0r			; 1.83004
	DD	03fea2e22r			; 1.82953
	DD	03fea1d95r			; 1.82903
	DD	03fea0d09r			; 1.82852
	DD	03fe9fc7er			; 1.82802
	DD	03fe9ebf3r			; 1.82751
	DD	03fe9db68r			; 1.82701
	DD	03fe9cader			; 1.8265
	DD	03fe9ba55r			; 1.826
	DD	03fe9a9ccr			; 1.82549
	DD	03fe99944r			; 1.82499
	DD	03fe988bcr			; 1.82449
	DD	03fe97835r			; 1.82398
	DD	03fe967aer			; 1.82348
	DD	03fe95728r			; 1.82297
	DD	03fe946a3r			; 1.82247
	DD	03fe9361er			; 1.82196
	DD	03fe92599r			; 1.82146
	DD	03fe91515r			; 1.82096
	DD	03fe90492r			; 1.82045
	DD	03fe8f40fr			; 1.81995
	DD	03fe8e38dr			; 1.81944
	DD	03fe8d30br			; 1.81894
	DD	03fe8c28ar			; 1.81844
	DD	03fe8b20ar			; 1.81793
	DD	03fe8a18ar			; 1.81743
	DD	03fe8910ar			; 1.81693
	DD	03fe8808br			; 1.81642
	DD	03fe8700dr			; 1.81592
	DD	03fe85f8fr			; 1.81542
	DD	03fe84f11r			; 1.81491
	DD	03fe83e94r			; 1.81441
	DD	03fe82e18r			; 1.81391
	DD	03fe81d9cr			; 1.8134
	DD	03fe80d21r			; 1.8129
	DD	03fe7fca6r			; 1.8124
	DD	03fe7ec2cr			; 1.81189
	DD	03fe7dbb2r			; 1.81139
	DD	03fe7cb39r			; 1.81089
	DD	03fe7bac0r			; 1.81039
	DD	03fe7aa48r			; 1.80988
	DD	03fe799d0r			; 1.80938
	DD	03fe78959r			; 1.80888
	DD	03fe778e2r			; 1.80838
	DD	03fe7686cr			; 1.80787
	DD	03fe757f7r			; 1.80737
	DD	03fe74782r			; 1.80687
	DD	03fe7370dr			; 1.80637
	DD	03fe72699r			; 1.80587
	DD	03fe71625r			; 1.80536
	DD	03fe705b2r			; 1.80486
	DD	03fe6f540r			; 1.80436
	DD	03fe6e4cer			; 1.80386
	DD	03fe6d45cr			; 1.80336
	DD	03fe6c3ebr			; 1.80285
	DD	03fe6b37ar			; 1.80235
	DD	03fe6a30ar			; 1.80185
	DD	03fe6929br			; 1.80135
	DD	03fe6822cr			; 1.80085
	DD	03fe671bdr			; 1.80035
	DD	03fe6614fr			; 1.79984
	DD	03fe650e1r			; 1.79934
	DD	03fe64074r			; 1.79884
	DD	03fe63008r			; 1.79834
	DD	03fe61f9cr			; 1.79784
	DD	03fe60f30r			; 1.79734
	DD	03fe5fec5r			; 1.79684
	DD	03fe5ee5ar			; 1.79634
	DD	03fe5ddf0r			; 1.79584
	DD	03fe5cd86r			; 1.79533
	DD	03fe5bd1dr			; 1.79483
	DD	03fe5acb4r			; 1.79433
	DD	03fe59c4cr			; 1.79383
	DD	03fe58be4r			; 1.79333
	DD	03fe57b7dr			; 1.79283
	DD	03fe56b16r			; 1.79233
	DD	03fe55ab0r			; 1.79183
	DD	03fe54a4ar			; 1.79133
	DD	03fe539e4r			; 1.79083
	DD	03fe5297fr			; 1.79033
	DD	03fe5191br			; 1.78983
	DD	03fe508b7r			; 1.78933
	DD	03fe4f853r			; 1.78883
	DD	03fe4e7f0r			; 1.78833
	DD	03fe4d78er			; 1.78783
	DD	03fe4c72br			; 1.78733
	DD	03fe4b6car			; 1.78683
	DD	03fe4a668r			; 1.78633
	DD	03fe49608r			; 1.78583
	DD	03fe485a7r			; 1.78533
	DD	03fe47547r			; 1.78483
	DD	03fe464e8r			; 1.78433
	DD	03fe45489r			; 1.78383
	DD	03fe4442br			; 1.78333
	DD	03fe433ccr			; 1.78283
	DD	03fe4236fr			; 1.78233
	DD	03fe41312r			; 1.78183
	DD	03fe402b5r			; 1.78133
	DD	03fe3f259r			; 1.78083
	DD	03fe3e1fdr			; 1.78033
	DD	03fe3d1a2r			; 1.77983
	DD	03fe3c147r			; 1.77934
	DD	03fe3b0ecr			; 1.77884
	DD	03fe3a092r			; 1.77834
	DD	03fe39038r			; 1.77784
	DD	03fe37fdfr			; 1.77734
	DD	03fe36f87r			; 1.77684
	DD	03fe35f2er			; 1.77634
	DD	03fe34ed6r			; 1.77584
	DD	03fe33e7fr			; 1.77534
	DD	03fe32e28r			; 1.77485
	DD	03fe31dd1r			; 1.77435
	DD	03fe30d7br			; 1.77385
	DD	03fe2fd26r			; 1.77335
	DD	03fe2ecd0r			; 1.77285
	DD	03fe2dc7cr			; 1.77235
	DD	03fe2cc27r			; 1.77186
	DD	03fe2bbd3r			; 1.77136
	DD	03fe2ab80r			; 1.77086
	DD	03fe29b2cr			; 1.77036
	DD	03fe28adar			; 1.76986
	DD	03fe27a87r			; 1.76936
	DD	03fe26a35r			; 1.76887
	DD	03fe259e4r			; 1.76837
	DD	03fe24993r			; 1.76787
	DD	03fe23942r			; 1.76737
	DD	03fe228f2r			; 1.76687
	DD	03fe218a2r			; 1.76638
	DD	03fe20853r			; 1.76588
	DD	03fe1f804r			; 1.76538
	DD	03fe1e7b5r			; 1.76488
	DD	03fe1d767r			; 1.76439
	DD	03fe1c719r			; 1.76389
	DD	03fe1b6ccr			; 1.76339
	DD	03fe1a67fr			; 1.76289
	DD	03fe19632r			; 1.7624
	DD	03fe185e6r			; 1.7619
	DD	03fe1759br			; 1.7614
	DD	03fe1654fr			; 1.7609
	DD	03fe15504r			; 1.76041
	DD	03fe144bar			; 1.75991
	DD	03fe13470r			; 1.75941
	DD	03fe12426r			; 1.75892
	DD	03fe113dcr			; 1.75842
	DD	03fe10393r			; 1.75792
	DD	03fe0f34br			; 1.75742
	DD	03fe0e303r			; 1.75693
	DD	03fe0d2bbr			; 1.75643
	DD	03fe0c273r			; 1.75593
	DD	03fe0b22cr			; 1.75544
	DD	03fe0a1e6r			; 1.75494
	DD	03fe091a0r			; 1.75444
	DD	03fe0815ar			; 1.75395
	DD	03fe07114r			; 1.75345
	DD	03fe060cfr			; 1.75295
	DD	03fe0508ar			; 1.75246
	DD	03fe04046r			; 1.75196
	DD	03fe03002r			; 1.75147
	DD	03fe01fbfr			; 1.75097
	DD	03fe00f7br			; 1.75047
	DD	03fdfff39r			; 1.74998
	DD	03fdfeef6r			; 1.74948
	DD	03fdfdeb4r			; 1.74898
	DD	03fdfce72r			; 1.74849
	DD	03fdfbe31r			; 1.74799
	DD	03fdfadf0r			; 1.7475
	DD	03fdf9dafr			; 1.747
	DD	03fdf8d6fr			; 1.7465
	DD	03fdf7d2fr			; 1.74601
	DD	03fdf6cf0r			; 1.74551
	DD	03fdf5cb1r			; 1.74502
	DD	03fdf4c72r			; 1.74452
	DD	03fdf3c33r			; 1.74402
	DD	03fdf2bf5r			; 1.74353
	DD	03fdf1bb8r			; 1.74303
	DD	03fdf0b7ar			; 1.74254
	DD	03fdefb3dr			; 1.74204
	DD	03fdeeb01r			; 1.74155
	DD	03fdedac4r			; 1.74105
	DD	03fdeca89r			; 1.74056
	DD	03fdeba4dr			; 1.74006
	DD	03fdeaa12r			; 1.73957
	DD	03fde99d7r			; 1.73907
	DD	03fde899cr			; 1.73857
	DD	03fde7962r			; 1.73808
	DD	03fde6928r			; 1.73758
	DD	03fde58efr			; 1.73709
	DD	03fde48b6r			; 1.73659
	DD	03fde387dr			; 1.7361
	DD	03fde2845r			; 1.7356
	DD	03fde180dr			; 1.73511
	DD	03fde07d5r			; 1.73461
	DD	03fddf79dr			; 1.73412
	DD	03fdde766r			; 1.73362
	DD	03fddd730r			; 1.73313
	DD	03fddc6f9r			; 1.73263
	DD	03fddb6c3r			; 1.73214
	DD	03fdda68dr			; 1.73165
	DD	03fdd9658r			; 1.73115
	DD	03fdd8623r			; 1.73066
	DD	03fdd75eer			; 1.73016
	DD	03fdd65bar			; 1.72967
	DD	03fdd5586r			; 1.72917
	DD	03fdd4552r			; 1.72868
	DD	03fdd351fr			; 1.72818
	DD	03fdd24ebr			; 1.72769
	DD	03fdd14b9r			; 1.72719
	DD	03fdd0486r			; 1.7267
	DD	03fdcf454r			; 1.72621
	DD	03fdce422r			; 1.72571
	DD	03fdcd3f1r			; 1.72522
	DD	03fdcc3c0r			; 1.72472
	DD	03fdcb38fr			; 1.72423
	DD	03fdca35er			; 1.72374
	DD	03fdc932er			; 1.72324
	DD	03fdc82fer			; 1.72275
	DD	03fdc72cfr			; 1.72225
	DD	03fdc629fr			; 1.72176
	DD	03fdc5270r			; 1.72127
	DD	03fdc4242r			; 1.72077
	DD	03fdc3213r			; 1.72028
	DD	03fdc21e5r			; 1.71978
	DD	03fdc11b8r			; 1.71929
	DD	03fdc018ar			; 1.7188
	DD	03fdbf15dr			; 1.7183
	DD	03fdbe130r			; 1.71781
	DD	03fdbd104r			; 1.71732
	DD	03fdbc0d7r			; 1.71682
	DD	03fdbb0acr			; 1.71633
	DD	03fdba080r			; 1.71584
	DD	03fdb9055r			; 1.71534
	DD	03fdb802ar			; 1.71485
	DD	03fdb6fffr			; 1.71436
	DD	03fdb5fd4r			; 1.71386
	DD	03fdb4faar			; 1.71337
	DD	03fdb3f80r			; 1.71288
	DD	03fdb2f57r			; 1.71238
	DD	03fdb1f2er			; 1.71189
	DD	03fdb0f05r			; 1.7114
	DD	03fdafedcr			; 1.7109
	DD	03fdaeeb4r			; 1.71041
	DD	03fdade8cr			; 1.70992
	DD	03fdace64r			; 1.70942
	DD	03fdabe3cr			; 1.70893
	DD	03fdaae15r			; 1.70844
	DD	03fda9deer			; 1.70794
	DD	03fda8dc7r			; 1.70745
	DD	03fda7da1r			; 1.70696
	DD	03fda6d7br			; 1.70647
	DD	03fda5d55r			; 1.70597
	DD	03fda4d2fr			; 1.70548
	DD	03fda3d0ar			; 1.70499
	DD	03fda2ce5r			; 1.7045
	DD	03fda1cc0r			; 1.704
	DD	03fda0c9cr			; 1.70351
	DD	03fd9fc78r			; 1.70302
	DD	03fd9ec54r			; 1.70252
	DD	03fd9dc30r			; 1.70203
	DD	03fd9cc0dr			; 1.70154
	DD	03fd9bbe9r			; 1.70105
	DD	03fd9abc7r			; 1.70055
	DD	03fd99ba4r			; 1.70006
	DD	03fd98b82r			; 1.69957
	DD	03fd97b60r			; 1.69908
	DD	03fd96b3er			; 1.69859
	DD	03fd95b1cr			; 1.69809
	DD	03fd94afbr			; 1.6976
	DD	03fd93adar			; 1.69711
	DD	03fd92ab9r			; 1.69662
	DD	03fd91a99r			; 1.69612
	DD	03fd90a78r			; 1.69563
	DD	03fd8fa58r			; 1.69514
	DD	03fd8ea39r			; 1.69465
	DD	03fd8da19r			; 1.69416
	DD	03fd8c9far			; 1.69366
	DD	03fd8b9dbr			; 1.69317
	DD	03fd8a9bcr			; 1.69268
	DD	03fd8999er			; 1.69219
	DD	03fd88980r			; 1.6917
	DD	03fd87962r			; 1.6912
	DD	03fd86944r			; 1.69071
	DD	03fd85926r			; 1.69022
	DD	03fd84909r			; 1.68973
	DD	03fd838ecr			; 1.68924
	DD	03fd828cfr			; 1.68875
	DD	03fd818b3r			; 1.68825
	DD	03fd80896r			; 1.68776
	DD	03fd7f87ar			; 1.68727
	DD	03fd7e85er			; 1.68678
	DD	03fd7d843r			; 1.68629
	DD	03fd7c828r			; 1.6858
	DD	03fd7b80cr			; 1.6853
	DD	03fd7a7f2r			; 1.68481
	DD	03fd797d7r			; 1.68432
	DD	03fd787bcr			; 1.68383
	DD	03fd777a2r			; 1.68334
	DD	03fd76788r			; 1.68285
	DD	03fd7576fr			; 1.68236
	DD	03fd74755r			; 1.68186
	DD	03fd7373cr			; 1.68137
	DD	03fd72723r			; 1.68088
	DD	03fd7170ar			; 1.68039
	DD	03fd706f1r			; 1.6799
	DD	03fd6f6d9r			; 1.67941
	DD	03fd6e6c1r			; 1.67892
	DD	03fd6d6a9r			; 1.67843
	DD	03fd6c691r			; 1.67793
	DD	03fd6b67ar			; 1.67744
	DD	03fd6a662r			; 1.67695
	DD	03fd6964br			; 1.67646
	DD	03fd68634r			; 1.67597
	DD	03fd6761er			; 1.67548
	DD	03fd66607r			; 1.67499
	DD	03fd655f1r			; 1.6745
	DD	03fd645dbr			; 1.67401
	DD	03fd635c5r			; 1.67352
	DD	03fd625b0r			; 1.67303
	DD	03fd6159ar			; 1.67253
	DD	03fd60585r			; 1.67204
	DD	03fd5f570r			; 1.67155
	DD	03fd5e55br			; 1.67106
	DD	03fd5d547r			; 1.67057
	DD	03fd5c532r			; 1.67008
	DD	03fd5b51er			; 1.66959
	DD	03fd5a50ar			; 1.6691
	DD	03fd594f6r			; 1.66861
	DD	03fd584e3r			; 1.66812
	DD	03fd574cfr			; 1.66763
	DD	03fd564bcr			; 1.66714
	DD	03fd554a9r			; 1.66665
	DD	03fd54496r			; 1.66616
	DD	03fd53484r			; 1.66567
	DD	03fd52471r			; 1.66517
	DD	03fd5145fr			; 1.66468
	DD	03fd5044dr			; 1.66419
	DD	03fd4f43br			; 1.6637
	DD	03fd4e42ar			; 1.66321
	DD	03fd4d418r			; 1.66272
	DD	03fd4c407r			; 1.66223
	DD	03fd4b3f6r			; 1.66174
	DD	03fd4a3e5r			; 1.66125
	DD	03fd493d4r			; 1.66076
	DD	03fd483c4r			; 1.66027
	DD	03fd473b3r			; 1.65978
	DD	03fd463a3r			; 1.65929
	DD	03fd45393r			; 1.6588
	DD	03fd44383r			; 1.65831
	DD	03fd43374r			; 1.65782
	DD	03fd42364r			; 1.65733
	DD	03fd41355r			; 1.65684
	DD	03fd40346r			; 1.65635
	DD	03fd3f337r			; 1.65586
	DD	03fd3e328r			; 1.65537
	DD	03fd3d319r			; 1.65488
	DD	03fd3c30br			; 1.65439
	DD	03fd3b2fdr			; 1.6539
	DD	03fd3a2efr			; 1.65341
	DD	03fd392e1r			; 1.65292
	DD	03fd382d3r			; 1.65243
	DD	03fd372c5r			; 1.65194
	DD	03fd362b8r			; 1.65145
	DD	03fd352abr			; 1.65096
	DD	03fd3429er			; 1.65047
	DD	03fd33291r			; 1.64998
	DD	03fd32284r			; 1.64949
	DD	03fd31277r			; 1.649
	DD	03fd3026br			; 1.64851
	DD	03fd2f25er			; 1.64802
	DD	03fd2e252r			; 1.64753
	DD	03fd2d246r			; 1.64704
	DD	03fd2c23ar			; 1.64655
	DD	03fd2b22fr			; 1.64606
	DD	03fd2a223r			; 1.64557
	DD	03fd29218r			; 1.64508
	DD	03fd2820cr			; 1.64459
	DD	03fd27201r			; 1.6441
	DD	03fd261f6r			; 1.64361
	DD	03fd251ecr			; 1.64313
	DD	03fd241e1r			; 1.64264
	DD	03fd231d6r			; 1.64215
	DD	03fd221ccr			; 1.64166
	DD	03fd211c2r			; 1.64117
	DD	03fd201b8r			; 1.64068
	DD	03fd1f1aer			; 1.64019
	DD	03fd1e1a4r			; 1.6397
	DD	03fd1d19ar			; 1.63921
	DD	03fd1c191r			; 1.63872
	DD	03fd1b187r			; 1.63823
	DD	03fd1a17er			; 1.63774
	DD	03fd19175r			; 1.63725
	DD	03fd1816cr			; 1.63676
	DD	03fd17163r			; 1.63627
	DD	03fd1615ar			; 1.63578
	DD	03fd15152r			; 1.63529
	DD	03fd14149r			; 1.6348
	DD	03fd13141r			; 1.63432
	DD	03fd12139r			; 1.63383
	DD	03fd11131r			; 1.63334
	DD	03fd10129r			; 1.63285
	DD	03fd0f121r			; 1.63236
	DD	03fd0e119r			; 1.63187
	DD	03fd0d111r			; 1.63138
	DD	03fd0c10ar			; 1.63089
	DD	03fd0b103r			; 1.6304
	DD	03fd0a0fbr			; 1.62991
	DD	03fd090f4r			; 1.62942
	DD	03fd080edr			; 1.62893
	DD	03fd070e6r			; 1.62845
	DD	03fd060e0r			; 1.62796
	DD	03fd050d9r			; 1.62747
	DD	03fd040d3r			; 1.62698
	DD	03fd030ccr			; 1.62649
	DD	03fd020c6r			; 1.626
	DD	03fd010c0r			; 1.62551
	DD	03fd000bar			; 1.62502
	DD	03fcff0b4r			; 1.62453
	DD	03fcfe0aer			; 1.62404
	DD	03fcfd0a8r			; 1.62356
	DD	03fcfc0a2r			; 1.62307
	DD	03fcfb09dr			; 1.62258
	DD	03fcfa097r			; 1.62209
	DD	03fcf9092r			; 1.6216
	DD	03fcf808dr			; 1.62111
	DD	03fcf7088r			; 1.62062
	DD	03fcf6083r			; 1.62013
	DD	03fcf507er			; 1.61964
	DD	03fcf4079r			; 1.61916
	DD	03fcf3074r			; 1.61867
	DD	03fcf206fr			; 1.61818
	DD	03fcf106br			; 1.61769
	DD	03fcf0066r			; 1.6172
	DD	03fcef062r			; 1.61671
	DD	03fcee05er			; 1.61622
	DD	03fced059r			; 1.61573
	DD	03fcec055r			; 1.61524
	DD	03fceb051r			; 1.61476
	DD	03fcea04dr			; 1.61427
	DD	03fce904ar			; 1.61378
	DD	03fce8046r			; 1.61329
	DD	03fce7042r			; 1.6128
	DD	03fce603fr			; 1.61231
	DD	03fce503br			; 1.61182
	DD	03fce4038r			; 1.61133
	DD	03fce3034r			; 1.61085
	DD	03fce2031r			; 1.61036
	DD	03fce102er			; 1.60987
	DD	03fce002br			; 1.60938
	DD	03fcdf028r			; 1.60889
	DD	03fcde025r			; 1.6084
	DD	03fcdd022r			; 1.60791
	DD	03fcdc01fr			; 1.60743
	DD	03fcdb01dr			; 1.60694
	DD	03fcda01ar			; 1.60645
	DD	03fcd9017r			; 1.60596
	DD	03fcd8015r			; 1.60547
	DD	03fcd7012r			; 1.60498
	DD	03fcd6010r			; 1.60449
	DD	03fcd500er			; 1.60401
	DD	03fcd400cr			; 1.60352
	DD	03fcd3009r			; 1.60303
	DD	03fcd2007r			; 1.60254
	DD	03fcd1005r			; 1.60205
	DD	03fcd0003r			; 1.60156
	DD	03fccf001r			; 1.60107
	DD	03fcce000r			; 1.60059
	DD	03fcccffer			; 1.6001
	DD	03fccbffcr			; 1.59961
	DD	03fccaffar			; 1.59912
	DD	03fcc9ff9r			; 1.59863
	DD	03fcc8ff7r			; 1.59814
	DD	03fcc7ff6r			; 1.59766
	DD	03fcc6ff4r			; 1.59717
	DD	03fcc5ff3r			; 1.59668
	DD	03fcc4ff2r			; 1.59619
	DD	03fcc3ff0r			; 1.5957
	DD	03fcc2fefr			; 1.59521
	DD	03fcc1feer			; 1.59472
	DD	03fcc0fedr			; 1.59424
	DD	03fcbffecr			; 1.59375
	DD	03fcbefear			; 1.59326
	DD	03fcbdfe9r			; 1.59277
	DD	03fcbcfe9r			; 1.59228
	DD	03fcbbfe8r			; 1.59179
	DD	03fcbafe7r			; 1.59131
	DD	03fcb9fe6r			; 1.59082
	DD	03fcb8fe5r			; 1.59033
	DD	03fcb7fe4r			; 1.58984
	DD	03fcb6fe4r			; 1.58935
	DD	03fcb5fe3r			; 1.58886
	DD	03fcb4fe2r			; 1.58838
	DD	03fcb3fe2r			; 1.58789
	DD	03fcb2fe1r			; 1.5874
	DD	03fcb1fe0r			; 1.58691
	DD	03fcb0fe0r			; 1.58642
	DD	03fcaffdfr			; 1.58593
	DD	03fcaefdfr			; 1.58545
	DD	03fcadfdfr			; 1.58496
	DD	03fcacfder			; 1.58447
	DD	03fcabfder			; 1.58398
	DD	03fcaafddr			; 1.58349
	DD	03fca9fddr			; 1.583
	DD	03fca8fddr			; 1.58252
	DD	03fca7fddr			; 1.58203
	DD	03fca6fdcr			; 1.58154
	DD	03fca5fdcr			; 1.58105
	DD	03fca4fdcr			; 1.58056
	DD	03fca3fdcr			; 1.58007
	DD	03fca2fdcr			; 1.57959
	DD	03fca1fdbr			; 1.5791
	DD	03fca0fdbr			; 1.57861
	DD	03fc9ffdbr			; 1.57812
	DD	03fc9efdbr			; 1.57763
	DD	03fc9dfdbr			; 1.57714
	DD	03fc9cfdbr			; 1.57666
	DD	03fc9bfdbr			; 1.57617
	DD	03fc9afdbr			; 1.57568
	DD	03fc99fdbr			; 1.57519
	DD	03fc98fdbr			; 1.5747
	DD	03fc97fdbr			; 1.57421
	DD	03fc96fdbr			; 1.57373
	DD	03fc95fdbr			; 1.57324
	DD	03fc94fdbr			; 1.57275
	DD	03fc93fdbr			; 1.57226
	DD	03fc92fdbr			; 1.57177
	DD	03fc91fdbr			; 1.57128
	DD	03fc90fdbr			; 1.5708
	DD	03fc8ffdbr			; 1.57031
	DD	03fc8efdbr			; 1.56982
	DD	03fc8dfdbr			; 1.56933
	DD	03fc8cfdbr			; 1.56884
	DD	03fc8bfdbr			; 1.56835
	DD	03fc8afdbr			; 1.56787
	DD	03fc89fdbr			; 1.56738
	DD	03fc88fdbr			; 1.56689
	DD	03fc87fdbr			; 1.5664
	DD	03fc86fdar			; 1.56591
	DD	03fc85fdar			; 1.56543
	DD	03fc84fdar			; 1.56494
	DD	03fc83fdar			; 1.56445
	DD	03fc82fdar			; 1.56396
	DD	03fc81fdar			; 1.56347
	DD	03fc80fdar			; 1.56298
	DD	03fc7ffdar			; 1.5625
	DD	03fc7efdar			; 1.56201
	DD	03fc7dfdar			; 1.56152
	DD	03fc7cfd9r			; 1.56103
	DD	03fc7bfd9r			; 1.56054
	DD	03fc7afd9r			; 1.56005
	DD	03fc79fd9r			; 1.55957
	DD	03fc78fd8r			; 1.55908
	DD	03fc77fd8r			; 1.55859
	DD	03fc76fd8r			; 1.5581
	DD	03fc75fd7r			; 1.55761
	DD	03fc74fd7r			; 1.55712
	DD	03fc73fd7r			; 1.55664
	DD	03fc72fd6r			; 1.55615
	DD	03fc71fd6r			; 1.55566
	DD	03fc70fd5r			; 1.55517
	DD	03fc6ffd5r			; 1.55468
	DD	03fc6efd4r			; 1.55419
	DD	03fc6dfd4r			; 1.55371
	DD	03fc6cfd3r			; 1.55322
	DD	03fc6bfd2r			; 1.55273
	DD	03fc6afd2r			; 1.55224
	DD	03fc69fd1r			; 1.55175
	DD	03fc68fd0r			; 1.55126
	DD	03fc67fcfr			; 1.55078
	DD	03fc66fcfr			; 1.55029
	DD	03fc65fcer			; 1.5498
	DD	03fc64fcdr			; 1.54931
	DD	03fc63fccr			; 1.54882
	DD	03fc62fcbr			; 1.54833
	DD	03fc61fcar			; 1.54785
	DD	03fc60fc9r			; 1.54736
	DD	03fc5ffc7r			; 1.54687
	DD	03fc5efc6r			; 1.54638
	DD	03fc5dfc5r			; 1.54589
	DD	03fc5cfc4r			; 1.5454
	DD	03fc5bfc2r			; 1.54491
	DD	03fc5afc1r			; 1.54443
	DD	03fc59fc0r			; 1.54394
	DD	03fc58fber			; 1.54345
	DD	03fc57fbcr			; 1.54296
	DD	03fc56fbbr			; 1.54247
	DD	03fc55fb9r			; 1.54198
	DD	03fc54fb7r			; 1.5415
	DD	03fc53fb6r			; 1.54101
	DD	03fc52fb4r			; 1.54052
	DD	03fc51fb2r			; 1.54003
	DD	03fc50fb0r			; 1.53954
	DD	03fc4ffaer			; 1.53905
	DD	03fc4efacr			; 1.53856
	DD	03fc4dfaar			; 1.53808
	DD	03fc4cfa7r			; 1.53759
	DD	03fc4bfa5r			; 1.5371
	DD	03fc4afa3r			; 1.53661
	DD	03fc49fa0r			; 1.53612
	DD	03fc48f9er			; 1.53563
	DD	03fc47f9br			; 1.53514
	DD	03fc46f99r			; 1.53466
	DD	03fc45f96r			; 1.53417
	DD	03fc44f93r			; 1.53368
	DD	03fc43f90r			; 1.53319
	DD	03fc42f8dr			; 1.5327
	DD	03fc41f8ar			; 1.53221
	DD	03fc40f87r			; 1.53172
	DD	03fc3ff84r			; 1.53124
	DD	03fc3ef81r			; 1.53075
	DD	03fc3df7er			; 1.53026
	DD	03fc3cf7ar			; 1.52977
	DD	03fc3bf77r			; 1.52928
	DD	03fc3af73r			; 1.52879
	DD	03fc39f6fr			; 1.5283
	DD	03fc38f6cr			; 1.52781
	DD	03fc37f68r			; 1.52733
	DD	03fc36f64r			; 1.52684
	DD	03fc35f60r			; 1.52635
	DD	03fc34f5cr			; 1.52586
	DD	03fc33f58r			; 1.52537
	DD	03fc32f53r			; 1.52488
	DD	03fc31f4fr			; 1.52439
	DD	03fc30f4ar			; 1.5239
	DD	03fc2ff46r			; 1.52342
	DD	03fc2ef41r			; 1.52293
	DD	03fc2df3dr			; 1.52244
	DD	03fc2cf38r			; 1.52195
	DD	03fc2bf33r			; 1.52146
	DD	03fc2af2er			; 1.52097
	DD	03fc29f29r			; 1.52048
	DD	03fc28f23r			; 1.51999
	DD	03fc27f1er			; 1.5195
	DD	03fc26f19r			; 1.51902
	DD	03fc25f13r			; 1.51853
	DD	03fc24f0dr			; 1.51804
	DD	03fc23f08r			; 1.51755
	DD	03fc22f02r			; 1.51706
	DD	03fc21efcr			; 1.51657
	DD	03fc20ef6r			; 1.51608
	DD	03fc1feefr			; 1.51559
	DD	03fc1eee9r			; 1.5151
	DD	03fc1dee3r			; 1.51461
	DD	03fc1cedcr			; 1.51413
	DD	03fc1bed6r			; 1.51364
	DD	03fc1aecfr			; 1.51315
	DD	03fc19ec8r			; 1.51266
	DD	03fc18ec1r			; 1.51217
	DD	03fc17ebar			; 1.51168
	DD	03fc16eb3r			; 1.51119
	DD	03fc15eabr			; 1.5107
	DD	03fc14ea4r			; 1.51021
	DD	03fc13e9cr			; 1.50972
	DD	03fc12e94r			; 1.50923
	DD	03fc11e8dr			; 1.50874
	DD	03fc10e85r			; 1.50826
	DD	03fc0fe7dr			; 1.50777
	DD	03fc0ee74r			; 1.50728
	DD	03fc0de6cr			; 1.50679
	DD	03fc0ce64r			; 1.5063
	DD	03fc0be5br			; 1.50581
	DD	03fc0ae52r			; 1.50532
	DD	03fc09e49r			; 1.50483
	DD	03fc08e40r			; 1.50434
	DD	03fc07e37r			; 1.50385
	DD	03fc06e2er			; 1.50336
	DD	03fc05e25r			; 1.50287
	DD	03fc04e1br			; 1.50238
	DD	03fc03e11r			; 1.50189
	DD	03fc02e08r			; 1.5014
	DD	03fc01dfer			; 1.50092
	DD	03fc00df4r			; 1.50043
	DD	03fbffde9r			; 1.49994
	DD	03fbfeddfr			; 1.49945
	DD	03fbfddd4r			; 1.49896
	DD	03fbfcdcar			; 1.49847
	DD	03fbfbdbfr			; 1.49798
	DD	03fbfadb4r			; 1.49749
	DD	03fbf9da9r			; 1.497
	DD	03fbf8d9er			; 1.49651
	DD	03fbf7d92r			; 1.49602
	DD	03fbf6d87r			; 1.49553
	DD	03fbf5d7br			; 1.49504
	DD	03fbf4d6fr			; 1.49455
	DD	03fbf3d63r			; 1.49406
	DD	03fbf2d57r			; 1.49357
	DD	03fbf1d4br			; 1.49308
	DD	03fbf0d3er			; 1.49259
	DD	03fbefd31r			; 1.4921
	DD	03fbeed25r			; 1.49161
	DD	03fbedd18r			; 1.49112
	DD	03fbecd0br			; 1.49063
	DD	03fbebcfdr			; 1.49014
	DD	03fbeacf0r			; 1.48965
	DD	03fbe9ce2r			; 1.48916
	DD	03fbe8cd5r			; 1.48867
	DD	03fbe7cc7r			; 1.48818
	DD	03fbe6cb9r			; 1.48769
	DD	03fbe5caar			; 1.4872
	DD	03fbe4c9cr			; 1.48671
	DD	03fbe3c8dr			; 1.48622
	DD	03fbe2c7er			; 1.48573
	DD	03fbe1c6fr			; 1.48524
	DD	03fbe0c60r			; 1.48475
	DD	03fbdfc51r			; 1.48426
	DD	03fbdec42r			; 1.48377
	DD	03fbddc32r			; 1.48328
	DD	03fbdcc22r			; 1.48279
	DD	03fbdbc12r			; 1.4823
	DD	03fbdac02r			; 1.48181
	DD	03fbd9bf2r			; 1.48132
	DD	03fbd8be1r			; 1.48083
	DD	03fbd7bd0r			; 1.48034
	DD	03fbd6bbfr			; 1.47985
	DD	03fbd5baer			; 1.47936
	DD	03fbd4b9dr			; 1.47887
	DD	03fbd3b8cr			; 1.47838
	DD	03fbd2b7ar			; 1.47789
	DD	03fbd1b68r			; 1.4774
	DD	03fbd0b56r			; 1.47691
	DD	03fbcfb44r			; 1.47642
	DD	03fbceb31r			; 1.47593
	DD	03fbcdb1fr			; 1.47544
	DD	03fbccb0cr			; 1.47495
	DD	03fbcbaf9r			; 1.47446
	DD	03fbcaae6r			; 1.47397
	DD	03fbc9ad3r			; 1.47347
	DD	03fbc8abfr			; 1.47298
	DD	03fbc7aabr			; 1.47249
	DD	03fbc6a97r			; 1.472
	DD	03fbc5a83r			; 1.47151
	DD	03fbc4a6fr			; 1.47102
	DD	03fbc3a5ar			; 1.47053
	DD	03fbc2a45r			; 1.47004
	DD	03fbc1a30r			; 1.46955
	DD	03fbc0a1br			; 1.46906
	DD	03fbbfa06r			; 1.46857
	DD	03fbbe9f0r			; 1.46808
	DD	03fbbd9dar			; 1.46759
	DD	03fbbc9c4r			; 1.46709
	DD	03fbbb9aer			; 1.4666
	DD	03fbba998r			; 1.46611
	DD	03fbb9981r			; 1.46562
	DD	03fbb896ar			; 1.46513
	DD	03fbb7953r			; 1.46464
	DD	03fbb693cr			; 1.46415
	DD	03fbb5924r			; 1.46366
	DD	03fbb490cr			; 1.46317
	DD	03fbb38f5r			; 1.46268
	DD	03fbb28dcr			; 1.46218
	DD	03fbb18c4r			; 1.46169
	DD	03fbb08abr			; 1.4612
	DD	03fbaf893r			; 1.46071
	DD	03fbae879r			; 1.46022
	DD	03fbad860r			; 1.45973
	DD	03fbac847r			; 1.45924
	DD	03fbab82dr			; 1.45875
	DD	03fbaa813r			; 1.45825
	DD	03fba97f9r			; 1.45776
	DD	03fba87der			; 1.45727
	DD	03fba77c4r			; 1.45678
	DD	03fba67a9r			; 1.45629
	DD	03fba578er			; 1.4558
	DD	03fba4772r			; 1.45531
	DD	03fba3757r			; 1.45481
	DD	03fba273br			; 1.45432
	DD	03fba171fr			; 1.45383
	DD	03fba0703r			; 1.45334
	DD	03fb9f6e6r			; 1.45285
	DD	03fb9e6c9r			; 1.45236
	DD	03fb9d6acr			; 1.45186
	DD	03fb9c68fr			; 1.45137
	DD	03fb9b672r			; 1.45088
	DD	03fb9a654r			; 1.45039
	DD	03fb99636r			; 1.4499
	DD	03fb98618r			; 1.4494
	DD	03fb975f9r			; 1.44891
	DD	03fb965dar			; 1.44842
	DD	03fb955bbr			; 1.44793
	DD	03fb9459cr			; 1.44744
	DD	03fb9357dr			; 1.44694
	DD	03fb9255dr			; 1.44645
	DD	03fb9153dr			; 1.44596
	DD	03fb9051dr			; 1.44547
	DD	03fb8f4fcr			; 1.44498
	DD	03fb8e4dbr			; 1.44448
	DD	03fb8d4bar			; 1.44399
	DD	03fb8c499r			; 1.4435
	DD	03fb8b477r			; 1.44301
	DD	03fb8a456r			; 1.44252
	DD	03fb89434r			; 1.44202
	DD	03fb88411r			; 1.44153
	DD	03fb873efr			; 1.44104
	DD	03fb863ccr			; 1.44055
	DD	03fb853a9r			; 1.44005
	DD	03fb84385r			; 1.43956
	DD	03fb83362r			; 1.43907
	DD	03fb8233er			; 1.43858
	DD	03fb81319r			; 1.43808
	DD	03fb802f5r			; 1.43759
	DD	03fb7f2d0r			; 1.4371
	DD	03fb7e2abr			; 1.4366
	DD	03fb7d286r			; 1.43611
	DD	03fb7c260r			; 1.43562
	DD	03fb7b23br			; 1.43513
	DD	03fb7a214r			; 1.43463
	DD	03fb791eer			; 1.43414
	DD	03fb781c7r			; 1.43365
	DD	03fb771a0r			; 1.43316
	DD	03fb76179r			; 1.43266
	DD	03fb75152r			; 1.43217
	DD	03fb7412ar			; 1.43168
	DD	03fb73102r			; 1.43118
	DD	03fb720d9r			; 1.43069
	DD	03fb710b1r			; 1.4302
	DD	03fb70088r			; 1.4297
	DD	03fb6f05er			; 1.42921
	DD	03fb6e035r			; 1.42872
	DD	03fb6d00br			; 1.42822
	DD	03fb6bfe1r			; 1.42773
	DD	03fb6afb6r			; 1.42724
	DD	03fb69f8cr			; 1.42674
	DD	03fb68f61r			; 1.42625
	DD	03fb67f35r			; 1.42576
	DD	03fb66f0ar			; 1.42526
	DD	03fb65eder			; 1.42477
	DD	03fb64eb2r			; 1.42428
	DD	03fb63e85r			; 1.42378
	DD	03fb62e58r			; 1.42329
	DD	03fb61e2br			; 1.4228
	DD	03fb60dfer			; 1.4223
	DD	03fb5fdd0r			; 1.42181
	DD	03fb5eda2r			; 1.42131
	DD	03fb5dd74r			; 1.42082
	DD	03fb5cd45r			; 1.42033
	DD	03fb5bd16r			; 1.41983
	DD	03fb5ace7r			; 1.41934
	DD	03fb59cb7r			; 1.41885
	DD	03fb58c87r			; 1.41835
	DD	03fb57c57r			; 1.41786
	DD	03fb56c26r			; 1.41736
	DD	03fb55bf6r			; 1.41687
	DD	03fb54bc4r			; 1.41637
	DD	03fb53b93r			; 1.41588
	DD	03fb52b61r			; 1.41539
	DD	03fb51b2fr			; 1.41489
	DD	03fb50afdr			; 1.4144
	DD	03fb4facar			; 1.4139
	DD	03fb4ea97r			; 1.41341
	DD	03fb4da63r			; 1.41291
	DD	03fb4ca30r			; 1.41242
	DD	03fb4b9fbr			; 1.41193
	DD	03fb4a9c7r			; 1.41143
	DD	03fb49992r			; 1.41094
	DD	03fb4895dr			; 1.41044
	DD	03fb47928r			; 1.40995
	DD	03fb468f2r			; 1.40945
	DD	03fb458bcr			; 1.40896
	DD	03fb44886r			; 1.40846
	DD	03fb4384fr			; 1.40797
	DD	03fb42818r			; 1.40747
	DD	03fb417e0r			; 1.40698
	DD	03fb407a9r			; 1.40648
	DD	03fb3f771r			; 1.40599
	DD	03fb3e738r			; 1.40549
	DD	03fb3d6ffr			; 1.405
	DD	03fb3c6c6r			; 1.4045
	DD	03fb3b68dr			; 1.40401
	DD	03fb3a653r			; 1.40351
	DD	03fb39619r			; 1.40302
	DD	03fb385der			; 1.40252
	DD	03fb375a3r			; 1.40203
	DD	03fb36568r			; 1.40153
	DD	03fb3552dr			; 1.40104
	DD	03fb344f1r			; 1.40054
	DD	03fb334b5r			; 1.40005
	DD	03fb32478r			; 1.39955
	DD	03fb3143br			; 1.39905
	DD	03fb303fer			; 1.39856
	DD	03fb2f3c0r			; 1.39806
	DD	03fb2e382r			; 1.39757
	DD	03fb2d343r			; 1.39707
	DD	03fb2c305r			; 1.39658
	DD	03fb2b2c6r			; 1.39608
	DD	03fb2a286r			; 1.39558
	DD	03fb29246r			; 1.39509
	DD	03fb28206r			; 1.39459
	DD	03fb271c5r			; 1.3941
	DD	03fb26184r			; 1.3936
	DD	03fb25143r			; 1.3931
	DD	03fb24101r			; 1.39261
	DD	03fb230bfr			; 1.39211
	DD	03fb2207dr			; 1.39162
	DD	03fb2103ar			; 1.39112
	DD	03fb1fff7r			; 1.39062
	DD	03fb1efb3r			; 1.39013
	DD	03fb1df6fr			; 1.38963
	DD	03fb1cf2br			; 1.38913
	DD	03fb1bee6r			; 1.38864
	DD	03fb1aea1r			; 1.38814
	DD	03fb19e5cr			; 1.38765
	DD	03fb18e16r			; 1.38715
	DD	03fb17dcfr			; 1.38665
	DD	03fb16d89r			; 1.38616
	DD	03fb15d42r			; 1.38566
	DD	03fb14cfar			; 1.38516
	DD	03fb13cb3r			; 1.38466
	DD	03fb12c6ar			; 1.38417
	DD	03fb11c22r			; 1.38367
	DD	03fb10bd9r			; 1.38317
	DD	03fb0fb8fr			; 1.38268
	DD	03fb0eb46r			; 1.38218
	DD	03fb0dafcr			; 1.38168
	DD	03fb0cab1r			; 1.38119
	DD	03fb0ba66r			; 1.38069
	DD	03fb0aa1br			; 1.38019
	DD	03fb099cfr			; 1.37969
	DD	03fb08983r			; 1.3792
	DD	03fb07936r			; 1.3787
	DD	03fb068e9r			; 1.3782
	DD	03fb0589cr			; 1.3777
	DD	03fb0484er			; 1.37721
	DD	03fb03800r			; 1.37671
	DD	03fb027b1r			; 1.37621
	DD	03fb01762r			; 1.37571
	DD	03fb00713r			; 1.37522
	DD	03faff6c3r			; 1.37472
	DD	03fafe673r			; 1.37422
	DD	03fafd622r			; 1.37372
	DD	03fafc5d1r			; 1.37322
	DD	03fafb580r			; 1.37273
	DD	03fafa52er			; 1.37223
	DD	03faf94dcr			; 1.37173
	DD	03faf8489r			; 1.37123
	DD	03faf7436r			; 1.37073
	DD	03faf63e2r			; 1.37024
	DD	03faf538er			; 1.36974
	DD	03faf433ar			; 1.36924
	DD	03faf32e5r			; 1.36874
	DD	03faf2290r			; 1.36824
	DD	03faf123ar			; 1.36774
	DD	03faf01e4r			; 1.36725
	DD	03faef18dr			; 1.36675
	DD	03faee136r			; 1.36625
	DD	03faed0dfr			; 1.36575
	DD	03faec087r			; 1.36525
	DD	03faeb02fr			; 1.36475
	DD	03fae9fd6r			; 1.36425
	DD	03fae8f7dr			; 1.36375
	DD	03fae7f23r			; 1.36325
	DD	03fae6ec9r			; 1.36276
	DD	03fae5e6fr			; 1.36226
	DD	03fae4e14r			; 1.36176
	DD	03fae3db8r			; 1.36126
	DD	03fae2d5dr			; 1.36076
	DD	03fae1d00r			; 1.36026
	DD	03fae0ca4r			; 1.35976
	DD	03fadfc46r			; 1.35926
	DD	03fadebe9r			; 1.35876
	DD	03faddb8br			; 1.35826
	DD	03fadcb2cr			; 1.35776
	DD	03fadbacdr			; 1.35726
	DD	03fadaa6er			; 1.35676
	DD	03fad9a0er			; 1.35626
	DD	03fad89aer			; 1.35576
	DD	03fad794dr			; 1.35526
	DD	03fad68ecr			; 1.35476
	DD	03fad588ar			; 1.35426
	DD	03fad4828r			; 1.35376
	DD	03fad37c5r			; 1.35326
	DD	03fad2762r			; 1.35276
	DD	03fad16fer			; 1.35226
	DD	03fad069ar			; 1.35176
	DD	03facf636r			; 1.35126
	DD	03face5d1r			; 1.35076
	DD	03facd56cr			; 1.35026
	DD	03facc506r			; 1.34976
	DD	03facb49fr			; 1.34926
	DD	03faca438r			; 1.34876
	DD	03fac93d1r			; 1.34826
	DD	03fac8369r			; 1.34776
	DD	03fac7301r			; 1.34726
	DD	03fac6298r			; 1.34676
	DD	03fac522fr			; 1.34626
	DD	03fac41c5r			; 1.34576
	DD	03fac315br			; 1.34526
	DD	03fac20f1r			; 1.34476
	DD	03fac1085r			; 1.34425
	DD	03fac001ar			; 1.34375
	DD	03fabefaer			; 1.34325
	DD	03fabdf41r			; 1.34275
	DD	03fabced4r			; 1.34225
	DD	03fabbe66r			; 1.34175
	DD	03fabadf8r			; 1.34125
	DD	03fab9d8ar			; 1.34075
	DD	03fab8d1ar			; 1.34024
	DD	03fab7cabr			; 1.33974
	DD	03fab6c3br			; 1.33924
	DD	03fab5bcar			; 1.33874
	DD	03fab4b59r			; 1.33824
	DD	03fab3ae8r			; 1.33774
	DD	03fab2a76r			; 1.33723
	DD	03fab1a03r			; 1.33673
	DD	03fab0990r			; 1.33623
	DD	03faaf91cr			; 1.33573
	DD	03faae8a8r			; 1.33523
	DD	03faad834r			; 1.33472
	DD	03faac7bfr			; 1.33422
	DD	03faab749r			; 1.33372
	DD	03faaa6d3r			; 1.33322
	DD	03faa965cr			; 1.33271
	DD	03faa85e5r			; 1.33221
	DD	03faa756dr			; 1.33171
	DD	03faa64f5r			; 1.33121
	DD	03faa547cr			; 1.3307
	DD	03faa4403r			; 1.3302
	DD	03faa338ar			; 1.3297
	DD	03faa230fr			; 1.32919
	DD	03faa1294r			; 1.32869
	DD	03faa0219r			; 1.32819
	DD	03fa9f19dr			; 1.32769
	DD	03fa9e121r			; 1.32718
	DD	03fa9d0a4r			; 1.32668
	DD	03fa9c027r			; 1.32618
	DD	03fa9afa9r			; 1.32567
	DD	03fa99f2ar			; 1.32517
	DD	03fa98eabr			; 1.32467
	DD	03fa97e2cr			; 1.32416
	DD	03fa96dacr			; 1.32366
	DD	03fa95d2br			; 1.32316
	DD	03fa94caar			; 1.32265
	DD	03fa93c28r			; 1.32215
	DD	03fa92ba6r			; 1.32164
	DD	03fa91b23r			; 1.32114
	DD	03fa90aa0r			; 1.32064
	DD	03fa8fa1cr			; 1.32013
	DD	03fa8e998r			; 1.31963
	DD	03fa8d913r			; 1.31912
	DD	03fa8c88dr			; 1.31862
	DD	03fa8b807r			; 1.31812
	DD	03fa8a780r			; 1.31761
	DD	03fa896f9r			; 1.31711
	DD	03fa88672r			; 1.3166
	DD	03fa875e9r			; 1.3161
	DD	03fa86560r			; 1.31559
	DD	03fa854d7r			; 1.31509
	DD	03fa8444dr			; 1.31458
	DD	03fa833c3r			; 1.31408
	DD	03fa82338r			; 1.31357
	DD	03fa812acr			; 1.31307
	DD	03fa80220r			; 1.31256
	DD	03fa7f193r			; 1.31206
	DD	03fa7e106r			; 1.31155
	DD	03fa7d078r			; 1.31105
	DD	03fa7bfe9r			; 1.31054
	DD	03fa7af5ar			; 1.31004
	DD	03fa79ecbr			; 1.30953
	DD	03fa78e3br			; 1.30903
	DD	03fa77daar			; 1.30852
	DD	03fa76d19r			; 1.30802
	DD	03fa75c87r			; 1.30751
	DD	03fa74bf4r			; 1.30701
	DD	03fa73b61r			; 1.3065
	DD	03fa72acdr			; 1.30599
	DD	03fa71a39r			; 1.30549
	DD	03fa709a4r			; 1.30498
	DD	03fa6f90fr			; 1.30448
	DD	03fa6e879r			; 1.30397
	DD	03fa6d7e3r			; 1.30346
	DD	03fa6c74br			; 1.30296
	DD	03fa6b6b4r			; 1.30245
	DD	03fa6a61br			; 1.30194
	DD	03fa69582r			; 1.30144
	DD	03fa684e9r			; 1.30093
	DD	03fa6744fr			; 1.30042
	DD	03fa663b4r			; 1.29992
	DD	03fa65319r			; 1.29941
	DD	03fa6427dr			; 1.2989
	DD	03fa631e0r			; 1.2984
	DD	03fa62143r			; 1.29789
	DD	03fa610a6r			; 1.29738
	DD	03fa60007r			; 1.29688
	DD	03fa5ef68r			; 1.29637
	DD	03fa5dec9r			; 1.29586
	DD	03fa5ce29r			; 1.29535
	DD	03fa5bd88r			; 1.29485
	DD	03fa5ace6r			; 1.29434
	DD	03fa59c44r			; 1.29383
	DD	03fa58ba2r			; 1.29332
	DD	03fa57affr			; 1.29282
	DD	03fa56a5br			; 1.29231
	DD	03fa559b6r			; 1.2918
	DD	03fa54911r			; 1.29129
	DD	03fa5386cr			; 1.29078
	DD	03fa527c5r			; 1.29028
	DD	03fa5171er			; 1.28977
	DD	03fa50677r			; 1.28926
	DD	03fa4f5cfr			; 1.28875
	DD	03fa4e526r			; 1.28824
	DD	03fa4d47cr			; 1.28773
	DD	03fa4c3d2r			; 1.28723
	DD	03fa4b328r			; 1.28672
	DD	03fa4a27cr			; 1.28621
	DD	03fa491d0r			; 1.2857
	DD	03fa48124r			; 1.28519
	DD	03fa47076r			; 1.28468
	DD	03fa45fc9r			; 1.28417
	DD	03fa44f1ar			; 1.28366
	DD	03fa43e6br			; 1.28315
	DD	03fa42dbbr			; 1.28265
	DD	03fa41d0br			; 1.28214
	DD	03fa40c5ar			; 1.28163
	DD	03fa3fba8r			; 1.28112
	DD	03fa3eaf5r			; 1.28061
	DD	03fa3da42r			; 1.2801
	DD	03fa3c98fr			; 1.27959
	DD	03fa3b8dar			; 1.27908
	DD	03fa3a825r			; 1.27857
	DD	03fa39770r			; 1.27806
	DD	03fa386b9r			; 1.27755
	DD	03fa37602r			; 1.27704
	DD	03fa3654br			; 1.27653
	DD	03fa35492r			; 1.27602
	DD	03fa343d9r			; 1.27551
	DD	03fa33320r			; 1.275
	DD	03fa32265r			; 1.27449
	DD	03fa311aar			; 1.27398
	DD	03fa300efr			; 1.27347
	DD	03fa2f033r			; 1.27296
	DD	03fa2df76r			; 1.27244
	DD	03fa2ceb8r			; 1.27193
	DD	03fa2bdfar			; 1.27142
	DD	03fa2ad3br			; 1.27091
	DD	03fa29c7br			; 1.2704
	DD	03fa28bbbr			; 1.26989
	DD	03fa27af9r			; 1.26938
	DD	03fa26a38r			; 1.26887
	DD	03fa25975r			; 1.26836
	DD	03fa248b2r			; 1.26784
	DD	03fa237eer			; 1.26733
	DD	03fa2272ar			; 1.26682
	DD	03fa21665r			; 1.26631
	DD	03fa2059fr			; 1.2658
	DD	03fa1f4d8r			; 1.26528
	DD	03fa1e411r			; 1.26477
	DD	03fa1d349r			; 1.26426
	DD	03fa1c281r			; 1.26375
	DD	03fa1b1b7r			; 1.26324
	DD	03fa1a0edr			; 1.26272
	DD	03fa19023r			; 1.26221
	DD	03fa17f57r			; 1.2617
	DD	03fa16e8br			; 1.26119
	DD	03fa15dber			; 1.26067
	DD	03fa14cf1r			; 1.26016
	DD	03fa13c22r			; 1.25965
	DD	03fa12b54r			; 1.25913
	DD	03fa11a84r			; 1.25862
	DD	03fa109b3r			; 1.25811
	DD	03fa0f8e2r			; 1.2576
	DD	03fa0e811r			; 1.25708
	DD	03fa0d73er			; 1.25657
	DD	03fa0c66br			; 1.25606
	DD	03fa0b597r			; 1.25554
	DD	03fa0a4c2r			; 1.25503
	DD	03fa093edr			; 1.25451
	DD	03fa08317r			; 1.254
	DD	03fa07240r			; 1.25349
	DD	03fa06168r			; 1.25297
	DD	03fa05090r			; 1.25246
	DD	03fa03fb7r			; 1.25194
	DD	03fa02eddr			; 1.25143
	DD	03fa01e03r			; 1.25092
	DD	03fa00d27r			; 1.2504
	DD	03f9ffc4br			; 1.24989
	DD	03f9feb6fr			; 1.24937
	DD	03f9fda91r			; 1.24886
	DD	03f9fc9b3r			; 1.24834
	DD	03f9fb8d4r			; 1.24783
	DD	03f9fa7f4r			; 1.24731
	DD	03f9f9714r			; 1.2468
	DD	03f9f8633r			; 1.24628
	DD	03f9f7551r			; 1.24577
	DD	03f9f646er			; 1.24525
	DD	03f9f538br			; 1.24474
	DD	03f9f42a6r			; 1.24422
	DD	03f9f31c1r			; 1.24371
	DD	03f9f20dcr			; 1.24319
	DD	03f9f0ff5r			; 1.24267
	DD	03f9eff0er			; 1.24216
	DD	03f9eee26r			; 1.24164
	DD	03f9edd3dr			; 1.24113
	DD	03f9ecc54r			; 1.24061
	DD	03f9ebb6ar			; 1.24009
	DD	03f9eaa7er			; 1.23958
	DD	03f9e9993r			; 1.23906
	DD	03f9e88a6r			; 1.23855
	DD	03f9e77b9r			; 1.23803
	DD	03f9e66cbr			; 1.23751
	DD	03f9e55dcr			; 1.237
	DD	03f9e44ecr			; 1.23648
	DD	03f9e33fcr			; 1.23596
	DD	03f9e230ar			; 1.23544
	DD	03f9e1218r			; 1.23493
	DD	03f9e0126r			; 1.23441
	DD	03f9df032r			; 1.23389
	DD	03f9ddf3er			; 1.23338
	DD	03f9dce48r			; 1.23286
	DD	03f9dbd52r			; 1.23234
	DD	03f9dac5cr			; 1.23182
	DD	03f9d9b64r			; 1.2313
	DD	03f9d8a6cr			; 1.23079
	DD	03f9d7973r			; 1.23027
	DD	03f9d6879r			; 1.22975
	DD	03f9d577er			; 1.22923
	DD	03f9d4683r			; 1.22871
	DD	03f9d3586r			; 1.2282
	DD	03f9d2489r			; 1.22768
	DD	03f9d138br			; 1.22716
	DD	03f9d028cr			; 1.22664
	DD	03f9cf18dr			; 1.22612
	DD	03f9ce08cr			; 1.2256
	DD	03f9ccf8br			; 1.22508
	DD	03f9cbe89r			; 1.22456
	DD	03f9cad86r			; 1.22405
	DD	03f9c9c83r			; 1.22353
	DD	03f9c8b7er			; 1.22301
	DD	03f9c7a79r			; 1.22249
	DD	03f9c6973r			; 1.22197
	DD	03f9c586cr			; 1.22145
	DD	03f9c4764r			; 1.22093
	DD	03f9c365cr			; 1.22041
	DD	03f9c2552r			; 1.21989
	DD	03f9c1448r			; 1.21937
	DD	03f9c033dr			; 1.21885
	DD	03f9bf231r			; 1.21833
	DD	03f9be125r			; 1.21781
	DD	03f9bd017r			; 1.21729
	DD	03f9bbf09r			; 1.21677
	DD	03f9badf9r			; 1.21625
	DD	03f9b9ce9r			; 1.21573
	DD	03f9b8bd8r			; 1.21521
	DD	03f9b7ac7r			; 1.21468
	DD	03f9b69b4r			; 1.21416
	DD	03f9b58a1r			; 1.21364
	DD	03f9b478cr			; 1.21312
	DD	03f9b3677r			; 1.2126
	DD	03f9b2561r			; 1.21208
	DD	03f9b144ar			; 1.21156
	DD	03f9b0333r			; 1.21104
	DD	03f9af21ar			; 1.21051
	DD	03f9ae100r			; 1.20999
	DD	03f9acfe6r			; 1.20947
	DD	03f9abecbr			; 1.20895
	DD	03f9aadafr			; 1.20843
	DD	03f9a9c92r			; 1.2079
	DD	03f9a8b74r			; 1.20738
	DD	03f9a7a56r			; 1.20686
	DD	03f9a6936r			; 1.20634
	DD	03f9a5816r			; 1.20581
	DD	03f9a46f4r			; 1.20529
	DD	03f9a35d2r			; 1.20477
	DD	03f9a24afr			; 1.20424
	DD	03f9a138br			; 1.20372
	DD	03f9a0267r			; 1.2032
	DD	03f99f141r			; 1.20267
	DD	03f99e01ar			; 1.20215
	DD	03f99cef3r			; 1.20163
	DD	03f99bdcbr			; 1.2011
	DD	03f99aca1r			; 1.20058
	DD	03f999b77r			; 1.20006
	DD	03f998a4cr			; 1.19953
	DD	03f997920r			; 1.19901
	DD	03f9967f3r			; 1.19848
	DD	03f9956c6r			; 1.19796
	DD	03f994597r			; 1.19744
	DD	03f993468r			; 1.19691
	DD	03f992337r			; 1.19639
	DD	03f991206r			; 1.19586
	DD	03f9900d4r			; 1.19534
	DD	03f98efa0r			; 1.19481
	DD	03f98de6cr			; 1.19429
	DD	03f98cd37r			; 1.19376
	DD	03f98bc02r			; 1.19324
	DD	03f98aacbr			; 1.19271
	DD	03f989993r			; 1.19219
	DD	03f98885ar			; 1.19166
	DD	03f987721r			; 1.19114
	DD	03f9865e6r			; 1.19061
	DD	03f9854abr			; 1.19008
	DD	03f98436fr			; 1.18956
	DD	03f983231r			; 1.18903
	DD	03f9820f3r			; 1.18851
	DD	03f980fb4r			; 1.18798
	DD	03f97fe74r			; 1.18745
	DD	03f97ed33r			; 1.18693
	DD	03f97dbf1r			; 1.1864
	DD	03f97caaer			; 1.18587
	DD	03f97b96ar			; 1.18535
	DD	03f97a825r			; 1.18482
	DD	03f9796dfr			; 1.18429
	DD	03f978599r			; 1.18376
	DD	03f977451r			; 1.18324
	DD	03f976309r			; 1.18271
	DD	03f9751bfr			; 1.18218
	DD	03f974074r			; 1.18165
	DD	03f972f29r			; 1.18113
	DD	03f971dddr			; 1.1806
	DD	03f970c8fr			; 1.18007
	DD	03f96fb41r			; 1.17954
	DD	03f96e9f2r			; 1.17901
	DD	03f96d8a1r			; 1.17849
	DD	03f96c750r			; 1.17796
	DD	03f96b5fer			; 1.17743
	DD	03f96a4abr			; 1.1769
	DD	03f969356r			; 1.17637
	DD	03f968201r			; 1.17584
	DD	03f9670abr			; 1.17531
	DD	03f965f54r			; 1.17478
	DD	03f964dfcr			; 1.17425
	DD	03f963ca3r			; 1.17373
	DD	03f962b49r			; 1.1732
	DD	03f9619eer			; 1.17267
	DD	03f960892r			; 1.17214
	DD	03f95f735r			; 1.17161
	DD	03f95e5d7r			; 1.17108
	DD	03f95d478r			; 1.17055
	DD	03f95c318r			; 1.17002
	DD	03f95b1b7r			; 1.16949
	DD	03f95a055r			; 1.16896
	DD	03f958ef2r			; 1.16842
	DD	03f957d8er			; 1.16789
	DD	03f956c29r			; 1.16736
	DD	03f955ac3r			; 1.16683
	DD	03f95495cr			; 1.1663
	DD	03f9537f3r			; 1.16577
	DD	03f95268ar			; 1.16524
	DD	03f951520r			; 1.16471
	DD	03f9503b5r			; 1.16418
	DD	03f94f249r			; 1.16364
	DD	03f94e0dcr			; 1.16311
	DD	03f94cf6er			; 1.16258
	DD	03f94bdfer			; 1.16205
	DD	03f94ac8er			; 1.16152
	DD	03f949b1dr			; 1.16098
	DD	03f9489abr			; 1.16045
	DD	03f947837r			; 1.15992
	DD	03f9466c3r			; 1.15939
	DD	03f94554er			; 1.15885
	DD	03f9443d7r			; 1.15832
	DD	03f943260r			; 1.15779
	DD	03f9420e7r			; 1.15725
	DD	03f940f6dr			; 1.15672
	DD	03f93fdf3r			; 1.15619
	DD	03f93ec77r			; 1.15565
	DD	03f93dafar			; 1.15512
	DD	03f93c97dr			; 1.15459
	DD	03f93b7fer			; 1.15405
	DD	03f93a67er			; 1.15352
	DD	03f9394fdr			; 1.15298
	DD	03f93837br			; 1.15245
	DD	03f9371f8r			; 1.15192
	DD	03f936074r			; 1.15138
	DD	03f934eeer			; 1.15085
	DD	03f933d68r			; 1.15031
	DD	03f932be1r			; 1.14978
	DD	03f931a58r			; 1.14924
	DD	03f9308cfr			; 1.14871
	DD	03f92f744r			; 1.14817
	DD	03f92e5b8r			; 1.14764
	DD	03f92d42cr			; 1.1471
	DD	03f92c29er			; 1.14656
	DD	03f92b10fr			; 1.14603
	DD	03f929f7fr			; 1.14549
	DD	03f928deer			; 1.14496
	DD	03f927c5br			; 1.14442
	DD	03f926ac8r			; 1.14388
	DD	03f925934r			; 1.14335
	DD	03f92479er			; 1.14281
	DD	03f923607r			; 1.14227
	DD	03f922470r			; 1.14174
	DD	03f9212d7r			; 1.1412
	DD	03f92013dr			; 1.14066
	DD	03f91efa2r			; 1.14013
	DD	03f91de06r			; 1.13959
	DD	03f91cc68r			; 1.13905
	DD	03f91bacar			; 1.13851
	DD	03f91a92br			; 1.13798
	DD	03f91978ar			; 1.13744
	DD	03f9185e8r			; 1.1369
	DD	03f917445r			; 1.13636
	DD	03f9162a1r			; 1.13582
	DD	03f9150fcr			; 1.13528
	DD	03f913f56r			; 1.13475
	DD	03f912daer			; 1.13421
	DD	03f911c06r			; 1.13367
	DD	03f910a5cr			; 1.13313
	DD	03f90f8b1r			; 1.13259
	DD	03f90e705r			; 1.13205
	DD	03f90d558r			; 1.13151
	DD	03f90c3aar			; 1.13097
	DD	03f90b1fbr			; 1.13043
	DD	03f90a04ar			; 1.12989
	DD	03f908e98r			; 1.12935
	DD	03f907ce5r			; 1.12881
	DD	03f906b31r			; 1.12827
	DD	03f90597cr			; 1.12773
	DD	03f9047c6r			; 1.12719
	DD	03f90360er			; 1.12665
	DD	03f902456r			; 1.12611
	DD	03f90129cr			; 1.12557
	DD	03f9000e1r			; 1.12503
	DD	03f8fef25r			; 1.12449
	DD	03f8fdd67r			; 1.12394
	DD	03f8fcba9r			; 1.1234
	DD	03f8fb9e9r			; 1.12286
	DD	03f8fa828r			; 1.12232
	DD	03f8f9666r			; 1.12178
	DD	03f8f84a3r			; 1.12124
	DD	03f8f72der			; 1.12069
	DD	03f8f6118r			; 1.12015
	DD	03f8f4f52r			; 1.11961
	DD	03f8f3d89r			; 1.11907
	DD	03f8f2bc0r			; 1.11852
	DD	03f8f19f6r			; 1.11798
	DD	03f8f082ar			; 1.11744
	DD	03f8ef65dr			; 1.11689
	DD	03f8ee48fr			; 1.11635
	DD	03f8ed2c0r			; 1.11581
	DD	03f8ec0efr			; 1.11526
	DD	03f8eaf1er			; 1.11472
	DD	03f8e9d4br			; 1.11418
	DD	03f8e8b76r			; 1.11363
	DD	03f8e79a1r			; 1.11309
	DD	03f8e67cbr			; 1.11254
	DD	03f8e55f3r			; 1.112
	DD	03f8e441ar			; 1.11145
	DD	03f8e323fr			; 1.11091
	DD	03f8e2064r			; 1.11036
	DD	03f8e0e87r			; 1.10982
	DD	03f8dfca9r			; 1.10927
	DD	03f8deacar			; 1.10873
	DD	03f8dd8e9r			; 1.10818
	DD	03f8dc708r			; 1.10764
	DD	03f8db525r			; 1.10709
	DD	03f8da340r			; 1.10654
	DD	03f8d915br			; 1.106
	DD	03f8d7f74r			; 1.10545
	DD	03f8d6d8cr			; 1.10491
	DD	03f8d5ba3r			; 1.10436
	DD	03f8d49b8r			; 1.10381
	DD	03f8d37cdr			; 1.10327
	DD	03f8d25e0r			; 1.10272
	DD	03f8d13f1r			; 1.10217
	DD	03f8d0202r			; 1.10162
	DD	03f8cf011r			; 1.10108
	DD	03f8cde1fr			; 1.10053
	DD	03f8ccc2br			; 1.09998
	DD	03f8cba37r			; 1.09943
	DD	03f8ca841r			; 1.09888
	DD	03f8c9649r			; 1.09834
	DD	03f8c8451r			; 1.09779
	DD	03f8c7257r			; 1.09724
	DD	03f8c605cr			; 1.09669
	DD	03f8c4e5fr			; 1.09614
	DD	03f8c3c62r			; 1.09559
	DD	03f8c2a63r			; 1.09504
	DD	03f8c1862r			; 1.09449
	DD	03f8c0661r			; 1.09394
	DD	03f8bf45er			; 1.09339
	DD	03f8be259r			; 1.09285
	DD	03f8bd054r			; 1.0923
	DD	03f8bbe4dr			; 1.09175
	DD	03f8bac45r			; 1.09119
	DD	03f8b9a3br			; 1.09064
	DD	03f8b8830r			; 1.09009
	DD	03f8b7624r			; 1.08954
	DD	03f8b6416r			; 1.08899
	DD	03f8b5208r			; 1.08844
	DD	03f8b3ff7r			; 1.08789
	DD	03f8b2de6r			; 1.08734
	DD	03f8b1bd3r			; 1.08679
	DD	03f8b09bfr			; 1.08623
	DD	03f8af7a9r			; 1.08568
	DD	03f8ae592r			; 1.08513
	DD	03f8ad37ar			; 1.08458
	DD	03f8ac161r			; 1.08403
	DD	03f8aaf46r			; 1.08347
	DD	03f8a9d29r			; 1.08292
	DD	03f8a8b0cr			; 1.08237
	DD	03f8a78edr			; 1.08182
	DD	03f8a66ccr			; 1.08126
	DD	03f8a54aar			; 1.08071
	DD	03f8a4287r			; 1.08016
	DD	03f8a3063r			; 1.0796
	DD	03f8a1e3dr			; 1.07905
	DD	03f8a0c16r			; 1.07849
	DD	03f89f9edr			; 1.07794
	DD	03f89e7c3r			; 1.07739
	DD	03f89d597r			; 1.07683
	DD	03f89c36br			; 1.07628
	DD	03f89b13cr			; 1.07572
	DD	03f899f0dr			; 1.07517
	DD	03f898cdcr			; 1.07461
	DD	03f897aa9r			; 1.07406
	DD	03f896876r			; 1.0735
	DD	03f895640r			; 1.07294
	DD	03f89440ar			; 1.07239
	DD	03f8931d2r			; 1.07183
	DD	03f891f98r			; 1.07128
	DD	03f890d5er			; 1.07072
	DD	03f88fb21r			; 1.07016
	DD	03f88e8e4r			; 1.06961
	DD	03f88d6a4r			; 1.06905
	DD	03f88c464r			; 1.06849
	DD	03f88b222r			; 1.06794
	DD	03f889fdfr			; 1.06738
	DD	03f888d9ar			; 1.06682
	DD	03f887b53r			; 1.06626
	DD	03f88690cr			; 1.06571
	DD	03f8856c3r			; 1.06515
	DD	03f884478r			; 1.06459
	DD	03f88322cr			; 1.06403
	DD	03f881fder			; 1.06347
	DD	03f880d8fr			; 1.06291
	DD	03f87fb3fr			; 1.06235
	DD	03f87e8edr			; 1.0618
	DD	03f87d69ar			; 1.06124
	DD	03f87c445r			; 1.06068
	DD	03f87b1efr			; 1.06012
	DD	03f879f97r			; 1.05956
	DD	03f878d3er			; 1.059
	DD	03f877ae3r			; 1.05844
	DD	03f876887r			; 1.05788
	DD	03f875629r			; 1.05732
	DD	03f8743car			; 1.05676
	DD	03f873169r			; 1.0562
	DD	03f871f07r			; 1.05563
	DD	03f870ca3r			; 1.05507
	DD	03f86fa3er			; 1.05451
	DD	03f86e7d8r			; 1.05395
	DD	03f86d56fr			; 1.05339
	DD	03f86c306r			; 1.05283
	DD	03f86b09br			; 1.05226
	DD	03f869e2er			; 1.0517
	DD	03f868bc0r			; 1.05114
	DD	03f867950r			; 1.05058
	DD	03f8666dfr			; 1.05001
	DD	03f86546cr			; 1.04945
	DD	03f8641f8r			; 1.04889
	DD	03f862f82r			; 1.04832
	DD	03f861d0br			; 1.04776
	DD	03f860a92r			; 1.0472
	DD	03f85f817r			; 1.04663
	DD	03f85e59br			; 1.04607
	DD	03f85d31er			; 1.04551
	DD	03f85c09fr			; 1.04494
	DD	03f85ae1er			; 1.04438
	DD	03f859b9cr			; 1.04381
	DD	03f858918r			; 1.04325
	DD	03f857693r			; 1.04268
	DD	03f85640cr			; 1.04212
	DD	03f855184r			; 1.04155
	DD	03f853efar			; 1.04098
	DD	03f852c6er			; 1.04042
	DD	03f8519e1r			; 1.03985
	DD	03f850752r			; 1.03929
	DD	03f84f4c2r			; 1.03872
	DD	03f84e230r			; 1.03815
	DD	03f84cf9dr			; 1.03759
	DD	03f84bd08r			; 1.03702
	DD	03f84aa71r			; 1.03645
	DD	03f8497d9r			; 1.03588
	DD	03f84853fr			; 1.03532
	DD	03f8472a3r			; 1.03475
	DD	03f846006r			; 1.03418
	DD	03f844d68r			; 1.03361
	DD	03f843ac7r			; 1.03304
	DD	03f842825r			; 1.03248
	DD	03f841582r			; 1.03191
	DD	03f8402ddr			; 1.03134
	DD	03f83f036r			; 1.03077
	DD	03f83dd8er			; 1.0302
	DD	03f83cae4r			; 1.02963
	DD	03f83b838r			; 1.02906
	DD	03f83a58br			; 1.02849
	DD	03f8392dcr			; 1.02792
	DD	03f83802br			; 1.02735
	DD	03f836d79r			; 1.02678
	DD	03f835ac5r			; 1.02621
	DD	03f83480fr			; 1.02564
	DD	03f833558r			; 1.02507
	DD	03f83229fr			; 1.02449
	DD	03f830fe5r			; 1.02392
	DD	03f82fd28r			; 1.02335
	DD	03f82ea6ar			; 1.02278
	DD	03f82d7abr			; 1.02221
	DD	03f82c4ear			; 1.02163
	DD	03f82b227r			; 1.02106
	DD	03f829f62r			; 1.02049
	DD	03f828c9cr			; 1.01992
	DD	03f8279d4r			; 1.01934
	DD	03f82670ar			; 1.01877
	DD	03f82543fr			; 1.0182
	DD	03f824172r			; 1.01762
	DD	03f822ea3r			; 1.01705
	DD	03f821bd2r			; 1.01647
	DD	03f820900r			; 1.0159
	DD	03f81f62cr			; 1.01533
	DD	03f81e356r			; 1.01475
	DD	03f81d07fr			; 1.01418
	DD	03f81bda6r			; 1.0136
	DD	03f81aacbr			; 1.01302
	DD	03f8197efr			; 1.01245
	DD	03f818510r			; 1.01187
	DD	03f817230r			; 1.0113
	DD	03f815f4er			; 1.01072
	DD	03f814c6br			; 1.01014
	DD	03f813986r			; 1.00957
	DD	03f81269fr			; 1.00899
	DD	03f8113b6r			; 1.00841
	DD	03f8100cbr			; 1.00784
	DD	03f80eddfr			; 1.00726
	DD	03f80daf1r			; 1.00668
	DD	03f80c801r			; 1.0061
	DD	03f80b50fr			; 1.00553
	DD	03f80a21cr			; 1.00495
	DD	03f808f27r			; 1.00437
	DD	03f807c30r			; 1.00379
	DD	03f806937r			; 1.00321
	DD	03f80563cr			; 1.00263
	DD	03f804340r			; 1.00205
	DD	03f803042r			; 1.00147
	DD	03f801d42r			; 1.00089
	DD	03f800a40r			; 1.00031
	DD	03f7fee79r			; 0.999733
	DD	03f7fc86er			; 0.999152
	DD	03f7fa260r			; 0.998571
	DD	03f7f7c4dr			; 0.99799
	DD	03f7f5638r			; 0.997409
	DD	03f7f301er			; 0.996828
	DD	03f7f0a01r			; 0.996246
	DD	03f7ee3e0r			; 0.995665
	DD	03f7ebdbcr			; 0.995083
	DD	03f7e9794r			; 0.9945
	DD	03f7e7168r			; 0.993918
	DD	03f7e4b38r			; 0.993335
	DD	03f7e2505r			; 0.992752
	DD	03f7dfecer			; 0.992169
	DD	03f7dd894r			; 0.991586
	DD	03f7db255r			; 0.991002
	DD	03f7d8c13r			; 0.990419
	DD	03f7d65cdr			; 0.989835
	DD	03f7d3f83r			; 0.98925
	DD	03f7d1936r			; 0.988666
	DD	03f7cf2e5r			; 0.988081
	DD	03f7ccc90r			; 0.987496
	DD	03f7ca637r			; 0.986911
	DD	03f7c7fdar			; 0.986326
	DD	03f7c597ar			; 0.98574
	DD	03f7c3316r			; 0.985155
	DD	03f7c0caer			; 0.984568
	DD	03f7be642r			; 0.983982
	DD	03f7bbfd2r			; 0.983396
	DD	03f7b995fr			; 0.982809
	DD	03f7b72e7r			; 0.982222
	DD	03f7b4c6cr			; 0.981635
	DD	03f7b25edr			; 0.981047
	DD	03f7aff6ar			; 0.98046
	DD	03f7ad8e3r			; 0.979872
	DD	03f7ab258r			; 0.979284
	DD	03f7a8bcar			; 0.978696
	DD	03f7a6537r			; 0.978107
	DD	03f7a3ea0r			; 0.977518
	DD	03f7a1806r			; 0.976929
	DD	03f79f168r			; 0.97634
	DD	03f79cac5r			; 0.97575
	DD	03f79a41fr			; 0.975161
	DD	03f797d75r			; 0.974571
	DD	03f7956c7r			; 0.97398
	DD	03f793015r			; 0.97339
	DD	03f79095fr			; 0.972799
	DD	03f78e2a5r			; 0.972208
	DD	03f78bbe6r			; 0.971617
	DD	03f789524r			; 0.971026
	DD	03f786e5er			; 0.970434
	DD	03f784794r			; 0.969842
	DD	03f7820c6r			; 0.96925
	DD	03f77f9f4r			; 0.968658
	DD	03f77d31er			; 0.968065
	DD	03f77ac43r			; 0.967472
	DD	03f778565r			; 0.966879
	DD	03f775e82r			; 0.966286
	DD	03f77379cr			; 0.965692
	DD	03f7710b1r			; 0.965098
	DD	03f76e9c3r			; 0.964504
	DD	03f76c2d0r			; 0.96391
	DD	03f769bd9r			; 0.963316
	DD	03f7674der			; 0.962721
	DD	03f764ddfr			; 0.962126
	DD	03f7626dbr			; 0.96153
	DD	03f75ffd4r			; 0.960935
	DD	03f75d8c8r			; 0.960339
	DD	03f75b1b8r			; 0.959743
	DD	03f758aa4r			; 0.959147
	DD	03f75638cr			; 0.95855
	DD	03f753c70r			; 0.957953
	DD	03f75154fr			; 0.957356
	DD	03f74ee2ar			; 0.956759
	DD	03f74c701r			; 0.956162
	DD	03f749fd4r			; 0.955564
	DD	03f7478a3r			; 0.954966
	DD	03f74516dr			; 0.954367
	DD	03f742a33r			; 0.953769
	DD	03f7402f5r			; 0.95317
	DD	03f73dbb2r			; 0.952571
	DD	03f73b46br			; 0.951972
	DD	03f738d20r			; 0.951372
	DD	03f7365d1r			; 0.950772
	DD	03f733e7dr			; 0.950172
	DD	03f731725r			; 0.949572
	DD	03f72efc9r			; 0.948971
	DD	03f72c868r			; 0.94837
	DD	03f72a103r			; 0.947769
	DD	03f72799ar			; 0.947168
	DD	03f72522cr			; 0.946566
	DD	03f722abar			; 0.945964
	DD	03f720343r			; 0.945362
	DD	03f71dbc8r			; 0.94476
	DD	03f71b449r			; 0.944157
	DD	03f718cc5r			; 0.943554
	DD	03f71653dr			; 0.942951
	DD	03f713db0r			; 0.942348
	DD	03f71161fr			; 0.941744
	DD	03f70ee8ar			; 0.94114
	DD	03f70c6f0r			; 0.940536
	DD	03f709f51r			; 0.939931
	DD	03f7077aer			; 0.939326
	DD	03f705007r			; 0.938721
	DD	03f70285br			; 0.938116
	DD	03f7000abr			; 0.93751
	DD	03f6fd8f6r			; 0.936904
	DD	03f6fb13cr			; 0.936298
	DD	03f6f897er			; 0.935692
	DD	03f6f61bcr			; 0.935085
	DD	03f6f39f5r			; 0.934478
	DD	03f6f1229r			; 0.933871
	DD	03f6eea59r			; 0.933263
	DD	03f6ec284r			; 0.932656
	DD	03f6e9aaar			; 0.932047
	DD	03f6e72ccr			; 0.931439
	DD	03f6e4aear			; 0.930831
	DD	03f6e2302r			; 0.930222
	DD	03f6dfb16r			; 0.929613
	DD	03f6dd326r			; 0.929003
	DD	03f6dab31r			; 0.928393
	DD	03f6d8337r			; 0.927783
	DD	03f6d5b38r			; 0.927173
	DD	03f6d3335r			; 0.926563
	DD	03f6d0b2dr			; 0.925952
	DD	03f6ce320r			; 0.925341
	DD	03f6cbb0fr			; 0.924729
	DD	03f6c92f9r			; 0.924118
	DD	03f6c6ader			; 0.923506
	DD	03f6c42ber			; 0.922893
	DD	03f6c1a9ar			; 0.922281
	DD	03f6bf270r			; 0.921668
	DD	03f6bca42r			; 0.921055
	DD	03f6ba210r			; 0.920442
	DD	03f6b79d8r			; 0.919828
	DD	03f6b519cr			; 0.919214
	DD	03f6b295br			; 0.9186
	DD	03f6b0115r			; 0.917985
	DD	03f6ad8car			; 0.91737
	DD	03f6ab07ar			; 0.916755
	DD	03f6a8825r			; 0.91614
	DD	03f6a5fccr			; 0.915524
	DD	03f6a376er			; 0.914908
	DD	03f6a0f0ar			; 0.914292
	DD	03f69e6a2r			; 0.913675
	DD	03f69be35r			; 0.913059
	DD	03f6995c3r			; 0.912441
	DD	03f696d4cr			; 0.911824
	DD	03f6944d0r			; 0.911206
	DD	03f691c4fr			; 0.910588
	DD	03f68f3c9r			; 0.90997
	DD	03f68cb3er			; 0.909351
	DD	03f68a2aer			; 0.908732
	DD	03f687a1ar			; 0.908113
	DD	03f685180r			; 0.907494
	DD	03f6828e1r			; 0.906874
	DD	03f68003dr			; 0.906254
	DD	03f67d794r			; 0.905633
	DD	03f67aee6r			; 0.905012
	DD	03f678632r			; 0.904391
	DD	03f675d7ar			; 0.90377
	DD	03f6734bdr			; 0.903148
	DD	03f670bfar			; 0.902526
	DD	03f66e333r			; 0.901904
	DD	03f66ba66r			; 0.901282
	DD	03f669194r			; 0.900659
	DD	03f6668bdr			; 0.900036
	DD	03f663fe0r			; 0.899412
	DD	03f6616ffr			; 0.898788
	DD	03f65ee18r			; 0.898164
	DD	03f65c52dr			; 0.89754
	DD	03f659c3cr			; 0.896915
	DD	03f657345r			; 0.89629
	DD	03f654a4ar			; 0.895665
	DD	03f652149r			; 0.895039
	DD	03f64f843r			; 0.894413
	DD	03f64cf38r			; 0.893787
	DD	03f64a627r			; 0.89316
	DD	03f647d11r			; 0.892533
	DD	03f6453f6r			; 0.891906
	DD	03f642ad5r			; 0.891279
	DD	03f6401afr			; 0.890651
	DD	03f63d884r			; 0.890023
	DD	03f63af53r			; 0.889394
	DD	03f63861dr			; 0.888765
	DD	03f635ce2r			; 0.888136
	DD	03f6333a1r			; 0.887507
	DD	03f630a5br			; 0.886877
	DD	03f62e10fr			; 0.886247
	DD	03f62b7ber			; 0.885616
	DD	03f628e68r			; 0.884985
	DD	03f62650cr			; 0.884354
	DD	03f623baar			; 0.883723
	DD	03f621243r			; 0.883091
	DD	03f61e8d7r			; 0.882459
	DD	03f61bf65r			; 0.881827
	DD	03f6195edr			; 0.881194
	DD	03f616c70r			; 0.880561
	DD	03f6142eer			; 0.879928
	DD	03f611965r			; 0.879294
	DD	03f60efd8r			; 0.87866
	DD	03f60c644r			; 0.878025
	DD	03f609cabr			; 0.877391
	DD	03f60730dr			; 0.876756
	DD	03f604968r			; 0.87612
	DD	03f601fbfr			; 0.875484
	DD	03f5ff60fr			; 0.874848
	DD	03f5fcc5ar			; 0.874212
	DD	03f5fa29fr			; 0.873575
	DD	03f5f78der			; 0.872938
	DD	03f5f4f18r			; 0.872301
	DD	03f5f254cr			; 0.871663
	DD	03f5efb7ar			; 0.871025
	DD	03f5ed1a3r			; 0.870386
	DD	03f5ea7c5r			; 0.869747
	DD	03f5e7de2r			; 0.869108
	DD	03f5e53f9r			; 0.868469
	DD	03f5e2a0br			; 0.867829
	DD	03f5e0016r			; 0.867189
	DD	03f5dd61cr			; 0.866548
	DD	03f5dac1cr			; 0.865907
	DD	03f5d8216r			; 0.865266
	DD	03f5d580ar			; 0.864625
	DD	03f5d2df8r			; 0.863983
	DD	03f5d03e0r			; 0.86334
	DD	03f5cd9c3r			; 0.862698
	DD	03f5caf9fr			; 0.862055
	DD	03f5c8575r			; 0.861411
	DD	03f5c5b46r			; 0.860768
	DD	03f5c3110r			; 0.860124
	DD	03f5c06d5r			; 0.859479
	DD	03f5bdc93r			; 0.858834
	DD	03f5bb24cr			; 0.858189
	DD	03f5b87fer			; 0.857544
	DD	03f5b5dabr			; 0.856898
	DD	03f5b3351r			; 0.856252
	DD	03f5b08f1r			; 0.855605
	DD	03f5ade8cr			; 0.854958
	DD	03f5ab420r			; 0.854311
	DD	03f5a89adr			; 0.853663
	DD	03f5a5f35r			; 0.853015
	DD	03f5a34b7r			; 0.852367
	DD	03f5a0a32r			; 0.851718
	DD	03f59dfa8r			; 0.851069
	DD	03f59b517r			; 0.850419
	DD	03f598a80r			; 0.84977
	DD	03f595fe2r			; 0.849119
	DD	03f59353fr			; 0.848469
	DD	03f590a95r			; 0.847818
	DD	03f58dfe4r			; 0.847166
	DD	03f58b52er			; 0.846515
	DD	03f588a71r			; 0.845862
	DD	03f585faer			; 0.84521
	DD	03f5834e5r			; 0.844557
	DD	03f580a15r			; 0.843904
	DD	03f57df3fr			; 0.84325
	DD	03f57b462r			; 0.842596
	DD	03f57897fr			; 0.841942
	DD	03f575e96r			; 0.841287
	DD	03f5733a6r			; 0.840632
	DD	03f5708b0r			; 0.839976
	DD	03f56ddb3r			; 0.83932
	DD	03f56b2b0r			; 0.838664
	DD	03f5687a6r			; 0.838007
	DD	03f565c96r			; 0.83735
	DD	03f56317fr			; 0.836693
	DD	03f560662r			; 0.836035
	DD	03f55db3er			; 0.835377
	DD	03f55b014r			; 0.834718
	DD	03f5584e3r			; 0.834059
	DD	03f5559abr			; 0.833399
	DD	03f552e6dr			; 0.83274
	DD	03f550328r			; 0.832079
	DD	03f54d7dcr			; 0.831419
	DD	03f54ac8ar			; 0.830758
	DD	03f548131r			; 0.830096
	DD	03f5455d1r			; 0.829434
	DD	03f542a6br			; 0.828772
	DD	03f53fefer			; 0.82811
	DD	03f53d38ar			; 0.827447
	DD	03f53a80fr			; 0.826783
	DD	03f537c8er			; 0.826119
	DD	03f535105r			; 0.825455
	DD	03f532576r			; 0.82479
	DD	03f52f9e0r			; 0.824125
	DD	03f52ce43r			; 0.82346
	DD	03f52a29fr			; 0.822794
	DD	03f5276f5r			; 0.822128
	DD	03f524b43r			; 0.821461
	DD	03f521f8br			; 0.820794
	DD	03f51f3cbr			; 0.820126
	DD	03f51c804r			; 0.819458
	DD	03f519c37r			; 0.81879
	DD	03f517062r			; 0.818121
	DD	03f514487r			; 0.817452
	DD	03f5118a4r			; 0.816782
	DD	03f50ecbbr			; 0.816112
	DD	03f50c0car			; 0.815442
	DD	03f5094d2r			; 0.814771
	DD	03f5068d3r			; 0.814099
	DD	03f503ccdr			; 0.813428
	DD	03f5010c0r			; 0.812756
	DD	03f4fe4abr			; 0.812083
	DD	03f4fb88fr			; 0.81141
	DD	03f4f8c6dr			; 0.810736
	DD	03f4f6042r			; 0.810063
	DD	03f4f3411r			; 0.809388
	DD	03f4f07d8r			; 0.808713
	DD	03f4edb98r			; 0.808038
	DD	03f4eaf51r			; 0.807363
	DD	03f4e8303r			; 0.806687
	DD	03f4e56adr			; 0.80601
	DD	03f4e2a4fr			; 0.805333
	DD	03f4dfdebr			; 0.804656
	DD	03f4dd17er			; 0.803978
	DD	03f4da50br			; 0.8033
	DD	03f4d7890r			; 0.802621
	DD	03f4d4c0dr			; 0.801942
	DD	03f4d1f83r			; 0.801262
	DD	03f4cf2f2r			; 0.800582
	DD	03f4cc659r			; 0.799902
	DD	03f4c99b8r			; 0.799221
	DD	03f4c6d10r			; 0.798539
	DD	03f4c4060r			; 0.797857
	DD	03f4c13a9r			; 0.797175
	DD	03f4be6ear			; 0.796492
	DD	03f4bba23r			; 0.795809
	DD	03f4b8d55r			; 0.795125
	DD	03f4b607fr			; 0.794441
	DD	03f4b33a1r			; 0.793757
	DD	03f4b06bcr			; 0.793072
	DD	03f4ad9cer			; 0.792386
	DD	03f4aacd9r			; 0.7917
	DD	03f4a7fddr			; 0.791014
	DD	03f4a52d8r			; 0.790327
	DD	03f4a25cbr			; 0.789639
	DD	03f49f8b7r			; 0.788951
	DD	03f49cb9br			; 0.788263
	DD	03f499e77r			; 0.787574
	DD	03f49714br			; 0.786885
	DD	03f494417r			; 0.786195
	DD	03f4916dbr			; 0.785505
	DD	03f48e997r			; 0.784814
	DD	03f48bc4br			; 0.784123
	DD	03f488ef7r			; 0.783431
	DD	03f48619ar			; 0.782739
	DD	03f483436r			; 0.782047
	DD	03f4806car			; 0.781354
	DD	03f47d955r			; 0.78066
	DD	03f47abd9r			; 0.779966
	DD	03f477e54r			; 0.779271
	DD	03f4750c7r			; 0.778576
	DD	03f472332r			; 0.777881
	DD	03f46f594r			; 0.777185
	DD	03f46c7efr			; 0.776488
	DD	03f469a41r			; 0.775791
	DD	03f466c8ar			; 0.775094
	DD	03f463eccr			; 0.774396
	DD	03f461105r			; 0.773697
	DD	03f45e335r			; 0.772998
	DD	03f45b55dr			; 0.772299
	DD	03f45877dr			; 0.771599
	DD	03f455995r			; 0.770898
	DD	03f452ba3r			; 0.770197
	DD	03f44fdaar			; 0.769496
	DD	03f44cfa7r			; 0.768794
	DD	03f44a19dr			; 0.768091
	DD	03f447389r			; 0.767388
	DD	03f44456dr			; 0.766684
	DD	03f441749r			; 0.76598
	DD	03f43e91cr			; 0.765276
	DD	03f43bae6r			; 0.764571
	DD	03f438ca7r			; 0.763865
	DD	03f435e60r			; 0.763159
	DD	03f433010r			; 0.762452
	DD	03f4301b7r			; 0.761745
	DD	03f42d355r			; 0.761037
	DD	03f42a4ear			; 0.760329
	DD	03f427677r			; 0.75962
	DD	03f4247fbr			; 0.758911
	DD	03f421976r			; 0.758201
	DD	03f41eae8r			; 0.757491
	DD	03f41bc51r			; 0.75678
	DD	03f418db0r			; 0.756068
	DD	03f415f07r			; 0.755356
	DD	03f413055r			; 0.754644
	DD	03f41019ar			; 0.753931
	DD	03f40d2d6r			; 0.753217
	DD	03f40a409r			; 0.752503
	DD	03f407532r			; 0.751788
	DD	03f404652r			; 0.751073
	DD	03f40176ar			; 0.750357
	DD	03f3fe877r			; 0.749641
	DD	03f3fb97cr			; 0.748924
	DD	03f3f8a77r			; 0.748207
	DD	03f3f5b69r			; 0.747489
	DD	03f3f2c52r			; 0.74677
	DD	03f3efd31r			; 0.746051
	DD	03f3ece07r			; 0.745331
	DD	03f3e9ed4r			; 0.744611
	DD	03f3e6f97r			; 0.74389
	DD	03f3e4051r			; 0.743169
	DD	03f3e1101r			; 0.742447
	DD	03f3de1a7r			; 0.741724
	DD	03f3db244r			; 0.741001
	DD	03f3d82d8r			; 0.740278
	DD	03f3d5361r			; 0.739554
	DD	03f3d23e2r			; 0.738829
	DD	03f3cf458r			; 0.738103
	DD	03f3cc4c5r			; 0.737377
	DD	03f3c9528r			; 0.736651
	DD	03f3c6581r			; 0.735924
	DD	03f3c35d0r			; 0.735196
	DD	03f3c0616r			; 0.734468
	DD	03f3bd652r			; 0.733739
	DD	03f3ba683r			; 0.73301
	DD	03f3b76abr			; 0.732279
	DD	03f3b46c9r			; 0.731549
	DD	03f3b16ddr			; 0.730818
	DD	03f3ae6e7r			; 0.730086
	DD	03f3ab6e7r			; 0.729353
	DD	03f3a86ddr			; 0.72862
	DD	03f3a56c8r			; 0.727887
	DD	03f3a26aar			; 0.727152
	DD	03f39f681r			; 0.726418
	DD	03f39c64fr			; 0.725682
	DD	03f399612r			; 0.724946
	DD	03f3965car			; 0.724209
	DD	03f393579r			; 0.723472
	DD	03f39051dr			; 0.722734
	DD	03f38d4b6r			; 0.721996
	DD	03f38a446r			; 0.721257
	DD	03f3873car			; 0.720517
	DD	03f384345r			; 0.719776
	DD	03f3812b5r			; 0.719035
	DD	03f37e21ar			; 0.718294
	DD	03f37b175r			; 0.717552
	DD	03f3780c5r			; 0.716809
	DD	03f37500ar			; 0.716065
	DD	03f371f45r			; 0.715321
	DD	03f36ee75r			; 0.714576
	DD	03f36bd9br			; 0.713831
	DD	03f368cb6r			; 0.713085
	DD	03f365bc5r			; 0.712338
	DD	03f362acar			; 0.71159
	DD	03f35f9c5r			; 0.710842
	DD	03f35c8b4r			; 0.710094
	DD	03f359798r			; 0.709344
	DD	03f356671r			; 0.708594
	DD	03f353540r			; 0.707844
	DD	03f350403r			; 0.707092
	DD	03f34d2bbr			; 0.70634
	DD	03f34a168r			; 0.705588
	DD	03f34700ar			; 0.704835
	DD	03f343ea0r			; 0.704081
	DD	03f340d2cr			; 0.703326
	DD	03f33dbacr			; 0.702571
	DD	03f33aa21r			; 0.701815
	DD	03f33788ar			; 0.701058
	DD	03f3346e8r			; 0.700301
	DD	03f33153br			; 0.699543
	DD	03f32e382r			; 0.698784
	DD	03f32b1ber			; 0.698025
	DD	03f327feer			; 0.697265
	DD	03f324e12r			; 0.696504
	DD	03f321c2br			; 0.695742
	DD	03f31ea38r			; 0.69498
	DD	03f31b83ar			; 0.694217
	DD	03f318630r			; 0.693454
	DD	03f31541ar			; 0.69269
	DD	03f3121f8r			; 0.691925
	DD	03f30efcar			; 0.691159
	DD	03f30bd91r			; 0.690393
	DD	03f308b4br			; 0.689625
	DD	03f3058far			; 0.688858
	DD	03f30269cr			; 0.688089
	DD	03f2ff433r			; 0.68732
	DD	03f2fc1bdr			; 0.68655
	DD	03f2f8f3br			; 0.685779
	DD	03f2f5cadr			; 0.685008
	DD	03f2f2a13r			; 0.684236
	DD	03f2ef76cr			; 0.683463
	DD	03f2ec4bar			; 0.682689
	DD	03f2e91far			; 0.681915
	DD	03f2e5f2fr			; 0.68114
	DD	03f2e2c57r			; 0.680364
	DD	03f2df972r			; 0.679587
	DD	03f2dc681r			; 0.67881
	DD	03f2d9384r			; 0.678032
	DD	03f2d6079r			; 0.677253
	DD	03f2d2d62r			; 0.676474
	DD	03f2cfa3fr			; 0.675693
	DD	03f2cc70er			; 0.674912
	DD	03f2c93d1r			; 0.67413
	DD	03f2c6087r			; 0.673348
	DD	03f2c2d30r			; 0.672565
	DD	03f2bf9ccr			; 0.67178
	DD	03f2bc65br			; 0.670995
	DD	03f2b92ddr			; 0.67021
	DD	03f2b5f53r			; 0.669423
	DD	03f2b2bbar			; 0.668636
	DD	03f2af815r			; 0.667848
	DD	03f2ac463r			; 0.667059
	DD	03f2a90a3r			; 0.666269
	DD	03f2a5cd6r			; 0.665479
	DD	03f2a28fbr			; 0.664688
	DD	03f29f513r			; 0.663896
	DD	03f29c11er			; 0.663103
	DD	03f298d1br			; 0.662309
	DD	03f29590br			; 0.661515
	DD	03f2924edr			; 0.66072
	DD	03f28f0c1r			; 0.659924
	DD	03f28bc88r			; 0.659127
	DD	03f288840r			; 0.658329
	DD	03f2853ebr			; 0.65753
	DD	03f281f89r			; 0.656731
	DD	03f27eb18r			; 0.655931
	DD	03f27b699r			; 0.65513
	DD	03f27820cr			; 0.654328
	DD	03f274d71r			; 0.653525
	DD	03f2718c8r			; 0.652722
	DD	03f26e411r			; 0.651918
	DD	03f26af4cr			; 0.651112
	DD	03f267a78r			; 0.650306
	DD	03f264596r			; 0.649499
	DD	03f2610a6r			; 0.648692
	DD	03f25dba7r			; 0.647883
	DD	03f25a699r			; 0.647073
	DD	03f25717dr			; 0.646263
	DD	03f253c53r			; 0.645452
	DD	03f250719r			; 0.64464
	DD	03f24d1d1r			; 0.643827
	DD	03f249c7ar			; 0.643013
	DD	03f246715r			; 0.642198
	DD	03f2431a0r			; 0.641382
	DD	03f23fc1dr			; 0.640566
	DD	03f23c68ar			; 0.639748
	DD	03f2390e8r			; 0.63893
	DD	03f235b38r			; 0.638111
	DD	03f232578r			; 0.63729
	DD	03f22efa8r			; 0.636469
	DD	03f22b9car			; 0.635647
	DD	03f2283dcr			; 0.634825
	DD	03f224ddfr			; 0.634001
	DD	03f2217d2r			; 0.633176
	DD	03f21e1b5r			; 0.63235
	DD	03f21ab89r			; 0.631524
	DD	03f21754dr			; 0.630696
	DD	03f213f02r			; 0.629868
	DD	03f2108a6r			; 0.629038
	DD	03f20d23br			; 0.628208
	DD	03f209bc0r			; 0.627377
	DD	03f206535r			; 0.626544
	DD	03f202e9ar			; 0.625711
	DD	03f1ff7eer			; 0.624877
	DD	03f1fc133r			; 0.624042
	DD	03f1f8a67r			; 0.623206
	DD	03f1f538br			; 0.622369
	DD	03f1f1c9er			; 0.62153
	DD	03f1ee5a1r			; 0.620691
	DD	03f1eae93r			; 0.619851
	DD	03f1e7775r			; 0.61901
	DD	03f1e4046r			; 0.618168
	DD	03f1e0906r			; 0.617325
	DD	03f1dd1b6r			; 0.616481
	DD	03f1d9a55r			; 0.615636
	DD	03f1d62e2r			; 0.61479
	DD	03f1d2b5fr			; 0.613943
	DD	03f1cf3cbr			; 0.613095
	DD	03f1cbc25r			; 0.612246
	DD	03f1c846er			; 0.611396
	DD	03f1c4ca6r			; 0.610545
	DD	03f1c14ccr			; 0.609692
	DD	03f1bdce1r			; 0.608839
	DD	03f1ba4e5r			; 0.607985
	DD	03f1b6cd7r			; 0.60713
	DD	03f1b34b7r			; 0.606273
	DD	03f1afc85r			; 0.605416
	DD	03f1ac442r			; 0.604557
	DD	03f1a8becr			; 0.603698
	DD	03f1a5385r			; 0.602837
	DD	03f1a1b0br			; 0.601975
	DD	03f19e280r			; 0.601112
	DD	03f19a9e2r			; 0.600248
	DD	03f197131r			; 0.599383
	DD	03f19386fr			; 0.598517
	DD	03f18ff9ar			; 0.59765
	DD	03f18c6b2r			; 0.596782
	DD	03f188db8r			; 0.595912
	DD	03f1854abr			; 0.595042
	DD	03f181b8br			; 0.59417
	DD	03f17e258r			; 0.593297
	DD	03f17a913r			; 0.592424
	DD	03f176fbar			; 0.591549
	DD	03f17364er			; 0.590672
	DD	03f16fccfr			; 0.589795
	DD	03f16c33dr			; 0.588917
	DD	03f168997r			; 0.588037
	DD	03f164fddr			; 0.587156
	DD	03f161610r			; 0.586274
	DD	03f15dc30r			; 0.585391
	DD	03f15a23br			; 0.584507
	DD	03f156833r			; 0.583621
	DD	03f152e17r			; 0.582735
	DD	03f14f3e7r			; 0.581847
	DD	03f14b9a2r			; 0.580958
	DD	03f147f4ar			; 0.580067
	DD	03f1444ddr			; 0.579176
	DD	03f140a5cr			; 0.578283
	DD	03f13cfc6r			; 0.577389
	DD	03f13951br			; 0.576494
	DD	03f135a5cr			; 0.575598
	DD	03f131f88r			; 0.5747
	DD	03f12e4a0r			; 0.573801
	DD	03f12a9a2r			; 0.572901
	DD	03f126e8fr			; 0.571999
	DD	03f123367r			; 0.571097
	DD	03f11f829r			; 0.570193
	DD	03f11bcd6r			; 0.569288
	DD	03f11816er			; 0.568381
	DD	03f1145f0r			; 0.567473
	DD	03f110a5cr			; 0.566564
	DD	03f10ceb3r			; 0.565654
	DD	03f1092f3r			; 0.564742
	DD	03f10571er			; 0.563829
	DD	03f101b32r			; 0.562915
	DD	03f0fdf30r			; 0.561999
	DD	03f0fa318r			; 0.561082
	DD	03f0f66e9r			; 0.560164
	DD	03f0f2aa4r			; 0.559244
	DD	03f0eee47r			; 0.558323
	DD	03f0eb1d5r			; 0.557401
	DD	03f0e754br			; 0.556477
	DD	03f0e38aar			; 0.555552
	DD	03f0dfbf2r			; 0.554626
	DD	03f0dbf23r			; 0.553698
	DD	03f0d823cr			; 0.552768
	DD	03f0d453er			; 0.551838
	DD	03f0d0828r			; 0.550906
	DD	03f0ccafar			; 0.549972
	DD	03f0c8db5r			; 0.549037
	DD	03f0c5057r			; 0.548101
	DD	03f0c12e1r			; 0.547163
	DD	03f0bd553r			; 0.546224
	DD	03f0b97adr			; 0.545283
	DD	03f0b59eer			; 0.544341
	DD	03f0b1c17r			; 0.543397
	DD	03f0ade27r			; 0.542452
	DD	03f0aa01dr			; 0.541506
	DD	03f0a61fbr			; 0.540558
	DD	03f0a23c0r			; 0.539608
	DD	03f09e56br			; 0.538657
	DD	03f09a6fdr			; 0.537704
	DD	03f096876r			; 0.53675
	DD	03f0929d4r			; 0.535794
	DD	03f08eb19r			; 0.534837
	DD	03f08ac44r			; 0.533879
	DD	03f086d55r			; 0.532918
	DD	03f082e4br			; 0.531956
	DD	03f07ef27r			; 0.530993
	DD	03f07afe8r			; 0.530028
	DD	03f07708fr			; 0.529061
	DD	03f07311br			; 0.528093
	DD	03f06f18cr			; 0.527123
	DD	03f06b1e2r			; 0.526152
	DD	03f06721cr			; 0.525179
	DD	03f06323br			; 0.524204
	DD	03f05f23er			; 0.523228
	DD	03f05b226r			; 0.52225
	DD	03f0571f1r			; 0.52127
	DD	03f0531a1r			; 0.520289
	DD	03f04f134r			; 0.519305
	DD	03f04b0abr			; 0.518321
	DD	03f047005r			; 0.517334
	DD	03f042f43r			; 0.516346
	DD	03f03ee64r			; 0.515356
	DD	03f03ad67r			; 0.514365
	DD	03f036c4er			; 0.513371
	DD	03f032b16r			; 0.512376
	DD	03f02e9c2r			; 0.511379
	DD	03f02a84fr			; 0.510381
	DD	03f0266bfr			; 0.50938
	DD	03f022510r			; 0.508378
	DD	03f01e344r			; 0.507374
	DD	03f01a158r			; 0.506368
	DD	03f015f4er			; 0.50536
	DD	03f011d26r			; 0.504351
	DD	03f00dader			; 0.50334
	DD	03f009877r			; 0.502326
	DD	03f0055f0r			; 0.501311
	DD	03f00134ar			; 0.500294
	DD	03effa109r			; 0.499275
	DD	03eff1b3dr			; 0.498255
	DD	03efe9531r			; 0.497232
	DD	03efe0ee4r			; 0.496207
	DD	03efd8856r			; 0.495181
	DD	03efd0187r			; 0.494152
	DD	03efc7a75r			; 0.493122
	DD	03efbf321r			; 0.492089
	DD	03efb6b8ar			; 0.491055
	DD	03efae3b0r			; 0.490018
	DD	03efa5b92r			; 0.48898
	DD	03ef9d330r			; 0.487939
	DD	03ef94a89r			; 0.486897
	DD	03ef8c19dr			; 0.485852
	DD	03ef8386cr			; 0.484805
	DD	03ef7aef5r			; 0.483757
	DD	03ef72537r			; 0.482706
	DD	03ef69b33r			; 0.481653
	DD	03ef610e7r			; 0.480598
	DD	03ef58654r			; 0.47954
	DD	03ef4fb78r			; 0.478481
	DD	03ef47054r			; 0.477419
	DD	03ef3e4e6r			; 0.476356
	DD	03ef3592fr			; 0.47529
	DD	03ef2cd2dr			; 0.474222
	DD	03ef240e0r			; 0.473151
	DD	03ef1b449r			; 0.472079
	DD	03ef12765r			; 0.471004
	DD	03ef09a36r			; 0.469927
	DD	03ef00cb9r			; 0.468847
	DD	03eef7eefr			; 0.467765
	DD	03eeef0d7r			; 0.466681
	DD	03eee6271r			; 0.465595
	DD	03eedd3bcr			; 0.464506
	DD	03eed44b7r			; 0.463415
	DD	03eecb562r			; 0.462321
	DD	03eec25bcr			; 0.461225
	DD	03eeb95c5r			; 0.460127
	DD	03eeb057cr			; 0.459026
	DD	03eea74e1r			; 0.457923
	DD	03ee9e3f3r			; 0.456817
	DD	03ee952b1r			; 0.455709
	DD	03ee8c11br			; 0.454598
	DD	03ee82f30r			; 0.453485
	DD	03ee79cefr			; 0.452369
	DD	03ee70a58r			; 0.451251
	DD	03ee6776br			; 0.45013
	DD	03ee5e426r			; 0.449006
	DD	03ee55088r			; 0.44788
	DD	03ee4bc92r			; 0.446751
	DD	03ee42843r			; 0.44562
	DD	03ee39399r			; 0.444485
	DD	03ee2fe95r			; 0.443349
	DD	03ee26935r			; 0.442209
	DD	03ee1d379r			; 0.441067
	DD	03ee13d5fr			; 0.439921
	DD	03ee0a6e8r			; 0.438773
	DD	03ee01013r			; 0.437623
	DD	03edf78der			; 0.436469
	DD	03edee14ar			; 0.435313
	DD	03ede4954r			; 0.434153
	DD	03eddb0fer			; 0.432991
	DD	03edd1844r			; 0.431826
	DD	03edc7f28r			; 0.430658
	DD	03edbe5a8r			; 0.429487
	DD	03edb4bc3r			; 0.428312
	DD	03edab179r			; 0.427135
	DD	03eda16c8r			; 0.425955
	DD	03ed97bb0r			; 0.424772
	DD	03ed8e02fr			; 0.423585
	DD	03ed84446r			; 0.422396
	DD	03ed7a7f3r			; 0.421203
	DD	03ed70b35r			; 0.420007
	DD	03ed66e0br			; 0.418808
	DD	03ed5d074r			; 0.417606
	DD	03ed53270r			; 0.4164
	DD	03ed493fdr			; 0.415192
	DD	03ed3f51br			; 0.413979
	DD	03ed355c9r			; 0.412764
	DD	03ed2b604r			; 0.411545
	DD	03ed215cdr			; 0.410323
	DD	03ed17523r			; 0.409097
	DD	03ed0d404r			; 0.407868
	DD	03ed0326fr			; 0.406635
	DD	03ecf9064r			; 0.405398
	DD	03eceede1r			; 0.404159
	DD	03ece4ae4r			; 0.402915
	DD	03ecda76er			; 0.401668
	DD	03ecd037dr			; 0.400417
	DD	03ecc5f0fr			; 0.399163
	DD	03ecbba23r			; 0.397904
	DD	03ecb14b9r			; 0.396642
	DD	03eca6ecfr			; 0.395377
	DD	03ec9c863r			; 0.394107
	DD	03ec92175r			; 0.392833
	DD	03ec87a04r			; 0.391556
	DD	03ec7d20dr			; 0.390274
	DD	03ec72990r			; 0.388989
	DD	03ec6808br			; 0.387699
	DD	03ec5d6fdr			; 0.386406
	DD	03ec52ce5r			; 0.385108
	DD	03ec48241r			; 0.383806
	DD	03ec3d70fr			; 0.3825
	DD	03ec32b4fr			; 0.38119
	DD	03ec27effr			; 0.379875
	DD	03ec1d21dr			; 0.378556
	DD	03ec124a7r			; 0.377233
	DD	03ec0769dr			; 0.375905
	DD	03ebfc7fdr			; 0.374573
	DD	03ebf18c4r			; 0.373236
	DD	03ebe68f2r			; 0.371894
	DD	03ebdb884r			; 0.370548
	DD	03ebd0779r			; 0.369198
	DD	03ebc55d0r			; 0.367842
	DD	03ebba386r			; 0.366482
	DD	03ebaf09ar			; 0.365117
	DD	03eba3d09r			; 0.363747
	DD	03eb988d3r			; 0.362372
	DD	03eb8d3f5r			; 0.360992
	DD	03eb81e6cr			; 0.359607
	DD	03eb76838r			; 0.358217
	DD	03eb6b156r			; 0.356822
	DD	03eb5f9c5r			; 0.355421
	DD	03eb54181r			; 0.354015
	DD	03eb48889r			; 0.352604
	DD	03eb3cedbr			; 0.351188
	DD	03eb31474r			; 0.349765
	DD	03eb25952r			; 0.348338
	DD	03eb19d74r			; 0.346904
	DD	03eb0e0d6r			; 0.345465
	DD	03eb02376r			; 0.344021
	DD	03eaf6552r			; 0.34257
	DD	03eaea667r			; 0.341113
	DD	03eade6b2r			; 0.339651
	DD	03ead2632r			; 0.338182
	DD	03eac64e3r			; 0.336707
	DD	03eaba2c3r			; 0.335226
	DD	03eaadfcer			; 0.333739
	DD	03eaa1c03r			; 0.332245
	DD	03ea9575dr			; 0.330745
	DD	03ea891dbr			; 0.329238
	DD	03ea7cb78r			; 0.327724
	DD	03ea70432r			; 0.326204
	DD	03ea63c07r			; 0.324677
	DD	03ea572f1r			; 0.323143
	DD	03ea4a8efr			; 0.321601
	DD	03ea3ddfcr			; 0.320053
	DD	03ea31216r			; 0.318497
	DD	03ea24538r			; 0.316934
	DD	03ea1775er			; 0.315364
	DD	03ea0a886r			; 0.313786
	DD	03e9fd8acr			; 0.3122
	DD	03e9f07car			; 0.310606
	DD	03e9e35der			; 0.309005
	DD	03e9d62e2r			; 0.307395
	DD	03e9c8ed4r			; 0.305777
	DD	03e9bb9aer			; 0.304151
	DD	03e9ae36br			; 0.302516
	DD	03e9a0c08r			; 0.300873
	DD	03e99337fr			; 0.299221
	DD	03e9859ccr			; 0.29756
	DD	03e977ee9r			; 0.29589
	DD	03e96a2d2r			; 0.294211
	DD	03e95c580r			; 0.292522
	DD	03e94e6efr			; 0.290824
	DD	03e940719r			; 0.289117
	DD	03e9325f9r			; 0.287399
	DD	03e924387r			; 0.285671
	DD	03e915fber			; 0.283934
	DD	03e907a98r			; 0.282185
	DD	03e8f940er			; 0.280426
	DD	03e8eac1ar			; 0.278657
	DD	03e8dc2b3r			; 0.276876
	DD	03e8cd7d4r			; 0.275084
	DD	03e8beb75r			; 0.273281
	DD	03e8afd8er			; 0.271466
	DD	03e8a0e17r			; 0.269639
	DD	03e891d09r			; 0.2678
	DD	03e882a5ar			; 0.265948
	DD	03e873601r			; 0.264084
	DD	03e863ff7r			; 0.262207
	DD	03e854830r			; 0.260316
	DD	03e844ea5r			; 0.258413
	DD	03e83534ar			; 0.256495
	DD	03e825614r			; 0.254563
	DD	03e8156fbr			; 0.252617
	DD	03e8055f0r			; 0.250656
	DD	03e7ea5d5r			; 0.248679
	DD	03e7c9bb8r			; 0.246688
	DD	03e7a8d73r			; 0.24468
	DD	03e787ae9r			; 0.242656
	DD	03e7663ffr			; 0.240616
	DD	03e744899r			; 0.238558
	DD	03e722899r			; 0.236483
	DD	03e7003dfr			; 0.23439
	DD	03e6dda4ar			; 0.232278
	DD	03e6babb9r			; 0.230147
	DD	03e697808r			; 0.227997
	DD	03e673f10r			; 0.225827
	DD	03e6500acr			; 0.223635
	DD	03e62bcb1r			; 0.221423
	DD	03e6072f4r			; 0.219189
	DD	03e5e2348r			; 0.216931
	DD	03e5bcd7cr			; 0.214651
	DD	03e59715fr			; 0.212347
	DD	03e570ebbr			; 0.210017
	DD	03e54a557r			; 0.207662
	DD	03e5234f9r			; 0.20528
	DD	03e4fbd61r			; 0.202871
	DD	03e4d3e4dr			; 0.200433
	DD	03e4ab775r			; 0.197965
	DD	03e48288fr			; 0.195467
	DD	03e45914ar			; 0.192937
	DD	03e42f151r			; 0.190374
	DD	03e404849r			; 0.187776
	DD	03e3d95d0r			; 0.185142
	DD	03e3ad97dr			; 0.18247
	DD	03e3812e1r			; 0.17976
	DD	03e354181r			; 0.177008
	DD	03e3264dbr			; 0.174213
	DD	03e2f7c63r			; 0.171373
	DD	03e2c877er			; 0.168486
	DD	03e298588r			; 0.165548
	DD	03e2675c9r			; 0.162559
	DD	03e23577cr			; 0.159513
	DD	03e2029c8r			; 0.156409
	DD	03e1cebbcr			; 0.153243
	DD	03e199c50r			; 0.15001
	DD	03e163a5er			; 0.146707
	DD	03e12c49dr			; 0.143328
	DD	03e0f399er			; 0.139868
	DD	03e0b97c4r			; 0.136321
	DD	03e07dd38r			; 0.13268
	DD	03e0407e4r			; 0.128936
	DD	03e00155fr			; 0.125082
	DD	03df805c1r			; 0.121105
	DD	03def9a4ar			; 0.116994
	DD	03de6e0a5r			; 0.112733
	DD	03dddcf97r			; 0.108306
	DD	03dd45befr			; 0.103691
	DD	03dca77ddr			; 0.0988614
	DD	03dc01205r			; 0.0937844
	DD	03db5140cr			; 0.0884171
	DD	03da96059r			; 0.0827033
	DD	03d9cce3fr			; 0.0765653
	DD	03d8f2332r			; 0.0698913
	DD	03d800556r			; 0.0625102
	DD	03d5dbac5r			; 0.0541332
	DD	03d3508b9r			; 0.0441978
	DD	03d000155r			; 0.0312513
	DD	000000000r			; 0
	ORG $+4
?g_fIdvCosTable@@3QBMB DD 03f800000r		; 1	; g_fIdvCosTable
	DD	03f7fffecr			; 0.999999
	DD	03f7fffb1r			; 0.999995
	DD	03f7fff4er			; 0.999989
	DD	03f7ffec4r			; 0.999981
	DD	03f7ffe13r			; 0.999971
	DD	03f7ffd39r			; 0.999958
	DD	03f7ffc39r			; 0.999942
	DD	03f7ffb11r			; 0.999925
	DD	03f7ff9c1r			; 0.999905
	DD	03f7ff84ar			; 0.999882
	DD	03f7ff6acr			; 0.999858
	DD	03f7ff4e6r			; 0.999831
	DD	03f7ff2f8r			; 0.999801
	DD	03f7ff0e3r			; 0.999769
	DD	03f7feea7r			; 0.999735
	DD	03f7fec43r			; 0.999699
	DD	03f7fe9b8r			; 0.99966
	DD	03f7fe705r			; 0.999619
	DD	03f7fe42br			; 0.999575
	DD	03f7fe129r			; 0.999529
	DD	03f7fde00r			; 0.999481
	DD	03f7fdaafr			; 0.999431
	DD	03f7fd737r			; 0.999378
	DD	03f7fd397r			; 0.999322
	DD	03f7fcfd1r			; 0.999265
	DD	03f7fcbe2r			; 0.999205
	DD	03f7fc7ccr			; 0.999142
	DD	03f7fc38fr			; 0.999078
	DD	03f7fbf2ar			; 0.999011
	DD	03f7fba9er			; 0.998941
	DD	03f7fb5ear			; 0.99887
	DD	03f7fb10fr			; 0.998795
	DD	03f7fac0dr			; 0.998719
	DD	03f7fa6e3r			; 0.99864
	DD	03f7fa191r			; 0.998559
	DD	03f7f9c18r			; 0.998476
	DD	03f7f9678r			; 0.99839
	DD	03f7f90b1r			; 0.998302
	DD	03f7f8ac2r			; 0.998211
	DD	03f7f84abr			; 0.998118
	DD	03f7f7e6dr			; 0.998023
	DD	03f7f7808r			; 0.997925
	DD	03f7f717br			; 0.997825
	DD	03f7f6ac7r			; 0.997723
	DD	03f7f63ecr			; 0.997618
	DD	03f7f5ce9r			; 0.997511
	DD	03f7f55bfr			; 0.997402
	DD	03f7f4e6dr			; 0.99729
	DD	03f7f46f4r			; 0.997176
	DD	03f7f3f54r			; 0.99706
	DD	03f7f378cr			; 0.996941
	DD	03f7f2f9dr			; 0.99682
	DD	03f7f2787r			; 0.996697
	DD	03f7f1f49r			; 0.996571
	DD	03f7f16e4r			; 0.996443
	DD	03f7f0e58r			; 0.996313
	DD	03f7f05a4r			; 0.99618
	DD	03f7efcc9r			; 0.996045
	DD	03f7ef3c7r			; 0.995907
	DD	03f7eea9dr			; 0.995767
	DD	03f7ee14cr			; 0.995625
	DD	03f7ed7d4r			; 0.995481
	DD	03f7ece34r			; 0.995334
	DD	03f7ec46dr			; 0.995185
	DD	03f7eba7fr			; 0.995033
	DD	03f7eb069r			; 0.994879
	DD	03f7ea62dr			; 0.994723
	DD	03f7e9bc9r			; 0.994565
	DD	03f7e913dr			; 0.994404
	DD	03f7e868br			; 0.99424
	DD	03f7e7bb1r			; 0.994075
	DD	03f7e70b0r			; 0.993907
	DD	03f7e6588r			; 0.993737
	DD	03f7e5a38r			; 0.993564
	DD	03f7e4ec1r			; 0.993389
	DD	03f7e4323r			; 0.993212
	DD	03f7e375er			; 0.993032
	DD	03f7e2b72r			; 0.99285
	DD	03f7e1f5er			; 0.992666
	DD	03f7e1324r			; 0.99248
	DD	03f7e06c2r			; 0.992291
	DD	03f7dfa38r			; 0.992099
	DD	03f7ded88r			; 0.991906
	DD	03f7de0b1r			; 0.99171
	DD	03f7dd3b2r			; 0.991511
	DD	03f7dc68cr			; 0.991311
	DD	03f7db940r			; 0.991108
	DD	03f7dabccr			; 0.990903
	DD	03f7d9e30r			; 0.990695
	DD	03f7d906er			; 0.990485
	DD	03f7d8285r			; 0.990273
	DD	03f7d7474r			; 0.990058
	DD	03f7d663dr			; 0.989841
	DD	03f7d57der			; 0.989622
	DD	03f7d4959r			; 0.9894
	DD	03f7d3aacr			; 0.989177
	DD	03f7d2bd8r			; 0.98895
	DD	03f7d1cddr			; 0.988722
	DD	03f7d0dbcr			; 0.988491
	DD	03f7cfe73r			; 0.988258
	DD	03f7cef03r			; 0.988022
	DD	03f7cdf6cr			; 0.987784
	DD	03f7ccfaer			; 0.987544
	DD	03f7cbfc9r			; 0.987301
	DD	03f7cafbdr			; 0.987057
	DD	03f7c9f8ar			; 0.986809
	DD	03f7c8f31r			; 0.98656
	DD	03f7c7eb0r			; 0.986308
	DD	03f7c6e08r			; 0.986054
	DD	03f7c5d3ar			; 0.985798
	DD	03f7c4c44r			; 0.985539
	DD	03f7c3b28r			; 0.985278
	DD	03f7c29e5r			; 0.985014
	DD	03f7c187ar			; 0.984748
	DD	03f7c06e9r			; 0.98448
	DD	03f7bf531r			; 0.98421
	DD	03f7be353r			; 0.983937
	DD	03f7bd14dr			; 0.983662
	DD	03f7bbf20r			; 0.983385
	DD	03f7baccdr			; 0.983105
	DD	03f7b9a53r			; 0.982824
	DD	03f7b87b2r			; 0.982539
	DD	03f7b74ear			; 0.982253
	DD	03f7b61fcr			; 0.981964
	DD	03f7b4ee7r			; 0.981673
	DD	03f7b3babr			; 0.981379
	DD	03f7b2848r			; 0.981083
	DD	03f7b14ber			; 0.980785
	DD	03f7b010er			; 0.980485
	DD	03f7aed37r			; 0.980182
	DD	03f7ad93ar			; 0.979877
	DD	03f7ac516r			; 0.97957
	DD	03f7ab0cbr			; 0.97926
	DD	03f7a9c59r			; 0.978948
	DD	03f7a87c1r			; 0.978634
	DD	03f7a7302r			; 0.978317
	DD	03f7a5e1cr			; 0.977998
	DD	03f7a4910r			; 0.977677
	DD	03f7a33ddr			; 0.977354
	DD	03f7a1e84r			; 0.977028
	DD	03f7a0904r			; 0.9767
	DD	03f79f35er			; 0.97637
	DD	03f79dd91r			; 0.976037
	DD	03f79c79dr			; 0.975702
	DD	03f79b183r			; 0.975365
	DD	03f799b43r			; 0.975025
	DD	03f7984dcr			; 0.974684
	DD	03f796e4er			; 0.974339
	DD	03f79579ar			; 0.973993
	DD	03f7940c0r			; 0.973644
	DD	03f7929bfr			; 0.973293
	DD	03f791298r			; 0.97294
	DD	03f78fb4ar			; 0.972584
	DD	03f78e3d6r			; 0.972227
	DD	03f78cc3br			; 0.971866
	DD	03f78b47br			; 0.971504
	DD	03f789c93r			; 0.971139
	DD	03f788486r			; 0.970772
	DD	03f786c52r			; 0.970403
	DD	03f7853f8r			; 0.970031
	DD	03f783b77r			; 0.969657
	DD	03f7822d1r			; 0.969281
	DD	03f780a04r			; 0.968903
	DD	03f77f110r			; 0.968522
	DD	03f77d7f7r			; 0.968139
	DD	03f77beb7r			; 0.967754
	DD	03f77a551r			; 0.967366
	DD	03f778bc5r			; 0.966976
	DD	03f777213r			; 0.966584
	DD	03f77583ar			; 0.96619
	DD	03f773e3cr			; 0.965793
	DD	03f772417r			; 0.965394
	DD	03f7709ccr			; 0.964993
	DD	03f76ef5br			; 0.96459
	DD	03f76d4c4r			; 0.964184
	DD	03f76ba07r			; 0.963776
	DD	03f769f24r			; 0.963366
	DD	03f76841br			; 0.962953
	DD	03f7668ecr			; 0.962538
	DD	03f764d97r			; 0.962121
	DD	03f76321br			; 0.961702
	DD	03f76167ar			; 0.96128
	DD	03f75fab3r			; 0.960857
	DD	03f75dec6r			; 0.960431
	DD	03f75c2b3r			; 0.960002
	DD	03f75a67br			; 0.959572
	DD	03f758a1cr			; 0.959139
	DD	03f756d97r			; 0.958703
	DD	03f7550edr			; 0.958266
	DD	03f75341dr			; 0.957826
	DD	03f751727r			; 0.957385
	DD	03f74fa0br			; 0.95694
	DD	03f74dcc9r			; 0.956494
	DD	03f74bf62r			; 0.956045
	DD	03f74a1d5r			; 0.955594
	DD	03f748422r			; 0.955141
	DD	03f746649r			; 0.954686
	DD	03f74484br			; 0.954228
	DD	03f742a27r			; 0.953768
	DD	03f740bddr			; 0.953306
	DD	03f73ed6er			; 0.952842
	DD	03f73ced9r			; 0.952375
	DD	03f73b01fr			; 0.951906
	DD	03f73913fr			; 0.951435
	DD	03f737239r			; 0.950962
	DD	03f73530er			; 0.950486
	DD	03f7333ber			; 0.950008
	DD	03f731447r			; 0.949528
	DD	03f72f4acr			; 0.949046
	DD	03f72d4ebr			; 0.948561
	DD	03f72b504r			; 0.948075
	DD	03f7294f8r			; 0.947586
	DD	03f7274c7r			; 0.947094
	DD	03f725470r			; 0.946601
	DD	03f7233f4r			; 0.946105
	DD	03f721352r			; 0.945607
	DD	03f71f28cr			; 0.945107
	DD	03f71d19fr			; 0.944605
	DD	03f71b08er			; 0.9441
	DD	03f718f57r			; 0.943593
	DD	03f716dfbr			; 0.943084
	DD	03f714c7ar			; 0.942573
	DD	03f712ad4r			; 0.94206
	DD	03f710908r			; 0.941544
	DD	03f70e717r			; 0.941026
	DD	03f70c501r			; 0.940506
	DD	03f70a2c6r			; 0.939984
	DD	03f708066r			; 0.939459
	DD	03f705de1r			; 0.938932
	DD	03f703b37r			; 0.938404
	DD	03f701867r			; 0.937872
	DD	03f6ff573r			; 0.937339
	DD	03f6fd25ar			; 0.936803
	DD	03f6faf1br			; 0.936266
	DD	03f6f8bb8r			; 0.935726
	DD	03f6f6830r			; 0.935184
	DD	03f6f4483r			; 0.934639
	DD	03f6f20b0r			; 0.934093
	DD	03f6efcbar			; 0.933544
	DD	03f6ed89er			; 0.932993
	DD	03f6eb45dr			; 0.93244
	DD	03f6e8ff8r			; 0.931884
	DD	03f6e6b6dr			; 0.931327
	DD	03f6e46ber			; 0.930767
	DD	03f6e21ebr			; 0.930205
	DD	03f6dfcf2r			; 0.929641
	DD	03f6dd7d5r			; 0.929075
	DD	03f6db293r			; 0.928506
	DD	03f6d8d2dr			; 0.927935
	DD	03f6d67a1r			; 0.927363
	DD	03f6d41f2r			; 0.926787
	DD	03f6d1c1dr			; 0.92621
	DD	03f6cf624r			; 0.925631
	DD	03f6cd007r			; 0.925049
	DD	03f6ca9c5r			; 0.924465
	DD	03f6c835er			; 0.92388
	DD	03f6c5cd4r			; 0.923291
	DD	03f6c3624r			; 0.922701
	DD	03f6c0f50r			; 0.922109
	DD	03f6be858r			; 0.921514
	DD	03f6bc13br			; 0.920917
	DD	03f6b99fbr			; 0.920318
	DD	03f6b7295r			; 0.919717
	DD	03f6b4b0cr			; 0.919114
	DD	03f6b235er			; 0.918508
	DD	03f6afb8cr			; 0.917901
	DD	03f6ad395r			; 0.917291
	DD	03f6aab7br			; 0.916679
	DD	03f6a833cr			; 0.916065
	DD	03f6a5ad9r			; 0.915449
	DD	03f6a3252r			; 0.91483
	DD	03f6a09a7r			; 0.91421
	DD	03f69e0d7r			; 0.913587
	DD	03f69b7e4r			; 0.912962
	DD	03f698eccr			; 0.912335
	DD	03f696591r			; 0.911706
	DD	03f693c32r			; 0.911075
	DD	03f6912aer			; 0.910441
	DD	03f68e907r			; 0.909806
	DD	03f68bf3cr			; 0.909168
	DD	03f68954cr			; 0.908528
	DD	03f686b39r			; 0.907886
	DD	03f684103r			; 0.907242
	DD	03f6816a8r			; 0.906596
	DD	03f67ec29r			; 0.905947
	DD	03f67c187r			; 0.905297
	DD	03f6796c1r			; 0.904644
	DD	03f676bd8r			; 0.903989
	DD	03f6740car			; 0.903332
	DD	03f671599r			; 0.902673
	DD	03f66ea45r			; 0.902012
	DD	03f66beccr			; 0.901349
	DD	03f669330r			; 0.900683
	DD	03f666771r			; 0.900016
	DD	03f663b8er			; 0.899346
	DD	03f660f88r			; 0.898674
	DD	03f65e35er			; 0.898001
	DD	03f65b710r			; 0.897325
	DD	03f658aa0r			; 0.896646
	DD	03f655e0br			; 0.895966
	DD	03f653154r			; 0.895284
	DD	03f650479r			; 0.894599
	DD	03f64d77br			; 0.893913
	DD	03f64aa59r			; 0.893224
	DD	03f647d14r			; 0.892534
	DD	03f644facr			; 0.891841
	DD	03f642221r			; 0.891146
	DD	03f63f473r			; 0.890449
	DD	03f63c6a1r			; 0.88975
	DD	03f6398acr			; 0.889048
	DD	03f636a95r			; 0.888345
	DD	03f633c5ar			; 0.88764
	DD	03f630dfcr			; 0.886932
	DD	03f62df7br			; 0.886223
	DD	03f62b0d7r			; 0.885511
	DD	03f628210r			; 0.884797
	DD	03f625326r			; 0.884081
	DD	03f62241ar			; 0.883363
	DD	03f61f4ear			; 0.882643
	DD	03f61c598r			; 0.881921
	DD	03f619622r			; 0.881197
	DD	03f61668ar			; 0.880471
	DD	03f6136d0r			; 0.879743
	DD	03f6106f2r			; 0.879012
	DD	03f60d6f2r			; 0.87828
	DD	03f60a6cfr			; 0.877545
	DD	03f607689r			; 0.876809
	DD	03f604621r			; 0.87607
	DD	03f601596r			; 0.875329
	DD	03f5fe4e9r			; 0.874587
	DD	03f5fb419r			; 0.873842
	DD	03f5f8327r			; 0.873095
	DD	03f5f5212r			; 0.872346
	DD	03f5f20dbr			; 0.871595
	DD	03f5eef81r			; 0.870842
	DD	03f5ebe05r			; 0.870087
	DD	03f5e8c67r			; 0.86933
	DD	03f5e5aa6r			; 0.868571
	DD	03f5e28c3r			; 0.867809
	DD	03f5df6ber			; 0.867046
	DD	03f5dc497r			; 0.866281
	DD	03f5d924dr			; 0.865514
	DD	03f5d5fe1r			; 0.864744
	DD	03f5d2d53r			; 0.863973
	DD	03f5cfaa3r			; 0.863199
	DD	03f5cc7d1r			; 0.862424
	DD	03f5c94ddr			; 0.861646
	DD	03f5c61c7r			; 0.860867
	DD	03f5c2e8er			; 0.860085
	DD	03f5bfb34r			; 0.859302
	DD	03f5bc7b8r			; 0.858516
	DD	03f5b941ar			; 0.857729
	DD	03f5b605ar			; 0.856939
	DD	03f5b2c79r			; 0.856147
	DD	03f5af875r			; 0.855354
	DD	03f5ac450r			; 0.854558
	DD	03f5a9009r			; 0.85376
	DD	03f5a5ba0r			; 0.852961
	DD	03f5a2716r			; 0.852159
	DD	03f59f26ar			; 0.851355
	DD	03f59bd9cr			; 0.850549
	DD	03f5988adr			; 0.849742
	DD	03f59539cr			; 0.848932
	DD	03f591e6ar			; 0.84812
	DD	03f58e916r			; 0.847307
	DD	03f58b3a1r			; 0.846491
	DD	03f587e0br			; 0.845673
	DD	03f584853r			; 0.844854
	DD	03f581279r			; 0.844032
	DD	03f57dc7fr			; 0.843208
	DD	03f57a663r			; 0.842383
	DD	03f577026r			; 0.841555
	DD	03f5739c7r			; 0.840725
	DD	03f570348r			; 0.839894
	DD	03f56cca7r			; 0.83906
	DD	03f5695e5r			; 0.838225
	DD	03f565f02r			; 0.837387
	DD	03f5627fer			; 0.836548
	DD	03f55f0d9r			; 0.835706
	DD	03f55b993r			; 0.834863
	DD	03f55822cr			; 0.834018
	DD	03f554aa4r			; 0.83317
	DD	03f5512fbr			; 0.832321
	DD	03f54db31r			; 0.83147
	DD	03f54a347r			; 0.830616
	DD	03f546b3br			; 0.829761
	DD	03f54330fr			; 0.828904
	DD	03f53fac3r			; 0.828045
	DD	03f53c255r			; 0.827184
	DD	03f5389c7r			; 0.826321
	DD	03f535118r			; 0.825456
	DD	03f531849r			; 0.824589
	DD	03f52df59r			; 0.823721
	DD	03f52a649r			; 0.82285
	DD	03f526d18r			; 0.821977
	DD	03f5233c6r			; 0.821102
	DD	03f51fa54r			; 0.820226
	DD	03f51c0c2r			; 0.819348
	DD	03f518710r			; 0.818467
	DD	03f514d3dr			; 0.817585
	DD	03f51134ar			; 0.816701
	DD	03f50d937r			; 0.815814
	DD	03f509f03r			; 0.814926
	DD	03f5064afr			; 0.814036
	DD	03f502a3br			; 0.813144
	DD	03f4fefa8r			; 0.812251
	DD	03f4fb4f4r			; 0.811355
	DD	03f4f7a1fr			; 0.810457
	DD	03f4f3f2br			; 0.809558
	DD	03f4f0417r			; 0.808656
	DD	03f4ec8e4r			; 0.807753
	DD	03f4e8d90r			; 0.806848
	DD	03f4e521cr			; 0.80594
	DD	03f4e1689r			; 0.805031
	DD	03f4ddad5r			; 0.80412
	DD	03f4d9f02r			; 0.803208
	DD	03f4d6310r			; 0.802293
	DD	03f4d26fdr			; 0.801376
	DD	03f4ceacbr			; 0.800458
	DD	03f4cae79r			; 0.799537
	DD	03f4c7208r			; 0.798615
	DD	03f4c3578r			; 0.797691
	DD	03f4bf8c7r			; 0.796765
	DD	03f4bbbf8r			; 0.795837
	DD	03f4b7f09r			; 0.794907
	DD	03f4b41far			; 0.793975
	DD	03f4b04ccr			; 0.793042
	DD	03f4ac77fr			; 0.792107
	DD	03f4a8a13r			; 0.791169
	DD	03f4a4c87r			; 0.79023
	DD	03f4a0edcr			; 0.789289
	DD	03f49d112r			; 0.788346
	DD	03f499329r			; 0.787402
	DD	03f495521r			; 0.786455
	DD	03f4916far			; 0.785507
	DD	03f48d8b3r			; 0.784557
	DD	03f489a4er			; 0.783605
	DD	03f485bcar			; 0.782651
	DD	03f481d27r			; 0.781695
	DD	03f47de65r			; 0.780737
	DD	03f479f84r			; 0.779778
	DD	03f476085r			; 0.778817
	DD	03f472167r			; 0.777853
	DD	03f46e22ar			; 0.776888
	DD	03f46a2cer			; 0.775922
	DD	03f466354r			; 0.774953
	DD	03f4623bbr			; 0.773983
	DD	03f45e403r			; 0.77301
	DD	03f45a42dr			; 0.772036
	DD	03f456439r			; 0.771061
	DD	03f452426r			; 0.770083
	DD	03f44e3f5r			; 0.769103
	DD	03f44a3a5r			; 0.768122
	DD	03f446337r			; 0.767139
	DD	03f4422abr			; 0.766154
	DD	03f43e200r			; 0.765167
	DD	03f43a138r			; 0.764179
	DD	03f436051r			; 0.763188
	DD	03f431f4cr			; 0.762196
	DD	03f42de29r			; 0.761202
	DD	03f429ce8r			; 0.760207
	DD	03f425b89r			; 0.759209
	DD	03f421a0br			; 0.75821
	DD	03f41d870r			; 0.757209
	DD	03f4196b7r			; 0.756206
	DD	03f4154e1r			; 0.755201
	DD	03f4112ecr			; 0.754195
	DD	03f40d0dar			; 0.753187
	DD	03f408ea9r			; 0.752177
	DD	03f404c5cr			; 0.751165
	DD	03f4009f0r			; 0.750152
	DD	03f3fc767r			; 0.749136
	DD	03f3f84c0r			; 0.748119
	DD	03f3f41fcr			; 0.747101
	DD	03f3eff1br			; 0.74608
	DD	03f3ebc1br			; 0.745058
	DD	03f3e78ffr			; 0.744034
	DD	03f3e35c5r			; 0.743008
	DD	03f3df26er			; 0.74198
	DD	03f3daef9r			; 0.740951
	DD	03f3d6b67r			; 0.73992
	DD	03f3d27b8r			; 0.738887
	DD	03f3ce3ecr			; 0.737853
	DD	03f3ca003r			; 0.736817
	DD	03f3c5bfcr			; 0.735779
	DD	03f3c17d9r			; 0.734739
	DD	03f3bd398r			; 0.733697
	DD	03f3b8f3br			; 0.732654
	DD	03f3b4ac1r			; 0.731609
	DD	03f3b0629r			; 0.730563
	DD	03f3ac175r			; 0.729514
	DD	03f3a7ca4r			; 0.728464
	DD	03f3a37b7r			; 0.727413
	DD	03f39f2acr			; 0.726359
	DD	03f39ad85r			; 0.725304
	DD	03f396842r			; 0.724247
	DD	03f3922e1r			; 0.723188
	DD	03f38dd65r			; 0.722128
	DD	03f3897cbr			; 0.721066
	DD	03f385216r			; 0.720003
	DD	03f380c43r			; 0.718937
	DD	03f37c655r			; 0.71787
	DD	03f37804ar			; 0.716801
	DD	03f373a23r			; 0.715731
	DD	03f36f3dfr			; 0.714659
	DD	03f36ad7fr			; 0.713585
	DD	03f366704r			; 0.712509
	DD	03f36206cr			; 0.711432
	DD	03f35d9b8r			; 0.710353
	DD	03f3592e7r			; 0.709273
	DD	03f354bfbr			; 0.708191
	DD	03f3504f3r			; 0.707107
	DD	03f34bdcfr			; 0.706021
	DD	03f34768fr			; 0.704934
	DD	03f342f34r			; 0.703845
	DD	03f33e7bcr			; 0.702755
	DD	03f33a029r			; 0.701663
	DD	03f33587ar			; 0.700569
	DD	03f3310afr			; 0.699473
	DD	03f32c8c9r			; 0.698376
	DD	03f3280c7r			; 0.697277
	DD	03f3238aar			; 0.696177
	DD	03f31f071r			; 0.695075
	DD	03f31a81dr			; 0.693971
	DD	03f315fadr			; 0.692866
	DD	03f311722r			; 0.691759
	DD	03f30ce7cr			; 0.690651
	DD	03f3085bbr			; 0.689541
	DD	03f303cder			; 0.688429
	DD	03f2ff3e6r			; 0.687315
	DD	03f2faad3r			; 0.6862
	DD	03f2f61a5r			; 0.685084
	DD	03f2f185br			; 0.683965
	DD	03f2ecef7r			; 0.682846
	DD	03f2e8578r			; 0.681724
	DD	03f2e3bder			; 0.680601
	DD	03f2df229r			; 0.679476
	DD	03f2da859r			; 0.67835
	DD	03f2d5e6fr			; 0.677222
	DD	03f2d1469r			; 0.676093
	DD	03f2cca49r			; 0.674962
	DD	03f2c800fr			; 0.673829
	DD	03f2c35b9r			; 0.672695
	DD	03f2beb4ar			; 0.671559
	DD	03f2ba0bfr			; 0.670422
	DD	03f2b561br			; 0.669283
	DD	03f2b0b5br			; 0.668142
	DD	03f2ac082r			; 0.667
	DD	03f2a758er			; 0.665856
	DD	03f2a2a80r			; 0.664711
	DD	03f29df57r			; 0.663564
	DD	03f299415r			; 0.662416
	DD	03f2948b8r			; 0.661266
	DD	03f28fd41r			; 0.660114
	DD	03f28b1b0r			; 0.658961
	DD	03f286605r			; 0.657807
	DD	03f281a40r			; 0.656651
	DD	03f27ce61r			; 0.655493
	DD	03f278268r			; 0.654334
	DD	03f273656r			; 0.653173
	DD	03f26ea2ar			; 0.652011
	DD	03f269de3r			; 0.650847
	DD	03f265184r			; 0.649681
	DD	03f26050ar			; 0.648514
	DD	03f25b877r			; 0.647346
	DD	03f256bcbr			; 0.646176
	DD	03f251f04r			; 0.645005
	DD	03f24d225r			; 0.643832
	DD	03f24852cr			; 0.642657
	DD	03f24381ar			; 0.641481
	DD	03f23eaeer			; 0.640303
	DD	03f239da9r			; 0.639124
	DD	03f23504br			; 0.637944
	DD	03f2302d3r			; 0.636762
	DD	03f22b543r			; 0.635578
	DD	03f226799r			; 0.634393
	DD	03f2219d7r			; 0.633207
	DD	03f21cbfbr			; 0.632019
	DD	03f217e06r			; 0.630829
	DD	03f212ff9r			; 0.629638
	DD	03f20e1d2r			; 0.628446
	DD	03f209393r			; 0.627252
	DD	03f20453br			; 0.626056
	DD	03f1ff6cbr			; 0.62486
	DD	03f1fa841r			; 0.623661
	DD	03f1f599fr			; 0.622461
	DD	03f1f0ae5r			; 0.62126
	DD	03f1ebc12r			; 0.620057
	DD	03f1e6d26r			; 0.618853
	DD	03f1e1e22r			; 0.617647
	DD	03f1dcf06r			; 0.61644
	DD	03f1d7fd1r			; 0.615232
	DD	03f1d3084r			; 0.614022
	DD	03f1ce11fr			; 0.61281
	DD	03f1c91a2r			; 0.611597
	DD	03f1c420cr			; 0.610383
	DD	03f1bf25fr			; 0.609167
	DD	03f1ba299r			; 0.60795
	DD	03f1b52bbr			; 0.606731
	DD	03f1b02c6r			; 0.605511
	DD	03f1ab2b8r			; 0.60429
	DD	03f1a6293r			; 0.603067
	DD	03f1a1255r			; 0.601842
	DD	03f19c200r			; 0.600616
	DD	03f197194r			; 0.599389
	DD	03f19210fr			; 0.598161
	DD	03f18d073r			; 0.596931
	DD	03f187fc0r			; 0.595699
	DD	03f182ef5r			; 0.594467
	DD	03f17de12r			; 0.593232
	DD	03f178d18r			; 0.591997
	DD	03f173c07r			; 0.59076
	DD	03f16eader			; 0.589521
	DD	03f16999fr			; 0.588282
	DD	03f164847r			; 0.58704
	DD	03f15f6d9r			; 0.585798
	DD	03f15a554r			; 0.584554
	DD	03f1553b7r			; 0.583309
	DD	03f150204r			; 0.582062
	DD	03f14b039r			; 0.580814
	DD	03f145e58r			; 0.579565
	DD	03f140c5fr			; 0.578314
	DD	03f13ba50r			; 0.577062
	DD	03f13682ar			; 0.575808
	DD	03f1315eer			; 0.574553
	DD	03f12c39ar			; 0.573297
	DD	03f127130r			; 0.57204
	DD	03f121eb0r			; 0.570781
	DD	03f11cc19r			; 0.569521
	DD	03f11796br			; 0.568259
	DD	03f1126a7r			; 0.566996
	DD	03f10d3cdr			; 0.565732
	DD	03f1080dcr			; 0.564466
	DD	03f102dd5r			; 0.563199
	DD	03f0fdab8r			; 0.561931
	DD	03f0f8784r			; 0.560662
	DD	03f0f343br			; 0.559391
	DD	03f0ee0dbr			; 0.558119
	DD	03f0e8d65r			; 0.556845
	DD	03f0e39dar			; 0.55557
	DD	03f0de638r			; 0.554294
	DD	03f0d9281r			; 0.553017
	DD	03f0d3eb3r			; 0.551738
	DD	03f0cead0r			; 0.550458
	DD	03f0c96d7r			; 0.549177
	DD	03f0c42c9r			; 0.547894
	DD	03f0beea5r			; 0.54661
	DD	03f0b9a6br			; 0.545325
	DD	03f0b461cr			; 0.544039
	DD	03f0af1b7r			; 0.542751
	DD	03f0a9d3dr			; 0.541462
	DD	03f0a48adr			; 0.540171
	DD	03f09f409r			; 0.53888
	DD	03f099f4er			; 0.537587
	DD	03f094a7fr			; 0.536293
	DD	03f08f59br			; 0.534998
	DD	03f08a0a1r			; 0.533701
	DD	03f084b92r			; 0.532403
	DD	03f07f66fr			; 0.531104
	DD	03f07a136r			; 0.529804
	DD	03f074be8r			; 0.528502
	DD	03f06f686r			; 0.527199
	DD	03f06a10er			; 0.525895
	DD	03f064b82r			; 0.52459
	DD	03f05f5e2r			; 0.523283
	DD	03f05a02cr			; 0.521975
	DD	03f054a62r			; 0.520666
	DD	03f04f484r			; 0.519356
	DD	03f049e91r			; 0.518045
	DD	03f044889r			; 0.516732
	DD	03f03f26dr			; 0.515418
	DD	03f039c3dr			; 0.514103
	DD	03f0345f8r			; 0.512786
	DD	03f02ef9fr			; 0.511469
	DD	03f029932r			; 0.51015
	DD	03f0242b1r			; 0.50883
	DD	03f01ec1cr			; 0.507509
	DD	03f019573r			; 0.506187
	DD	03f013eb5r			; 0.504863
	DD	03f00e7e4r			; 0.503538
	DD	03f0090ffr			; 0.502212
	DD	03f003a06r			; 0.500885
	DD	03effc5f3r			; 0.499557
	DD	03eff17b2r			; 0.498228
	DD	03efe694ar			; 0.496897
	DD	03efdbabbr			; 0.495565
	DD	03efd0c04r			; 0.494232
	DD	03efc5d27r			; 0.492898
	DD	03efbae22r			; 0.491563
	DD	03efafef7r			; 0.490226
	DD	03efa4fa5r			; 0.488889
	DD	03ef9a02dr			; 0.48755
	DD	03ef8f08er			; 0.48621
	DD	03ef840c8r			; 0.484869
	DD	03ef790dcr			; 0.483527
	DD	03ef6e0cbr			; 0.482184
	DD	03ef63093r			; 0.480839
	DD	03ef58035r			; 0.479494
	DD	03ef4cfb1r			; 0.478147
	DD	03ef41f07r			; 0.476799
	DD	03ef36e38r			; 0.47545
	DD	03ef2bd43r			; 0.4741
	DD	03ef20c29r			; 0.472749
	DD	03ef15aear			; 0.471397
	DD	03ef0a985r			; 0.470043
	DD	03eeff7fbr			; 0.468689
	DD	03eef464cr			; 0.467333
	DD	03eee9479r			; 0.465977
	DD	03eede280r			; 0.464619
	DD	03eed3063r			; 0.46326
	DD	03eec7e21r			; 0.4619
	DD	03eebcbbbr			; 0.460539
	DD	03eeb1930r			; 0.459177
	DD	03eea6681r			; 0.457813
	DD	03ee9b3aer			; 0.456449
	DD	03ee900b7r			; 0.455084
	DD	03ee84d9cr			; 0.453717
	DD	03ee79a5dr			; 0.45235
	DD	03ee6e6fbr			; 0.450981
	DD	03ee63375r			; 0.449611
	DD	03ee57fcbr			; 0.448241
	DD	03ee4cbfer			; 0.446869
	DD	03ee4180er			; 0.445496
	DD	03ee363far			; 0.444122
	DD	03ee2afc4r			; 0.442747
	DD	03ee1fb6ar			; 0.441371
	DD	03ee146eer			; 0.439994
	DD	03ee0924fr			; 0.438616
	DD	03edfdd8dr			; 0.437237
	DD	03edf28a9r			; 0.435857
	DD	03ede73a2r			; 0.434476
	DD	03eddbe79r			; 0.433094
	DD	03edd092er			; 0.431711
	DD	03edc53c1r			; 0.430326
	DD	03edb9e31r			; 0.428941
	DD	03edae880r			; 0.427555
	DD	03eda32adr			; 0.426168
	DD	03ed97cb9r			; 0.42478
	DD	03ed8c6a3r			; 0.42339
	DD	03ed8106br			; 0.422
	DD	03ed75a13r			; 0.420609
	DD	03ed6a399r			; 0.419217
	DD	03ed5ecfdr			; 0.417824
	DD	03ed53641r			; 0.41643
	DD	03ed47f64r			; 0.415034
	DD	03ed3c867r			; 0.413638
	DD	03ed31148r			; 0.412241
	DD	03ed25a09r			; 0.410843
	DD	03ed1a2aar			; 0.409444
	DD	03ed0eb2ar			; 0.408044
	DD	03ed0338ar			; 0.406643
	DD	03ecf7bcar			; 0.405241
	DD	03ecec3ear			; 0.403838
	DD	03ece0bear			; 0.402435
	DD	03ecd53car			; 0.40103
	DD	03ecc9b8br			; 0.399624
	DD	03ecbe32cr			; 0.398218
	DD	03ecb2aaer			; 0.39681
	DD	03eca7210r			; 0.395401
	DD	03ec9b953r			; 0.393992
	DD	03ec90077r			; 0.392582
	DD	03ec8477cr			; 0.39117
	DD	03ec78e62r			; 0.389758
	DD	03ec6d529r			; 0.388345
	DD	03ec61bd2r			; 0.386931
	DD	03ec5625cr			; 0.385516
	DD	03ec4a8c8r			; 0.3841
	DD	03ec3ef15r			; 0.382683
	DD	03ec33544r			; 0.381266
	DD	03ec27b55r			; 0.379847
	DD	03ec1c148r			; 0.378428
	DD	03ec1071er			; 0.377007
	DD	03ec04cd5r			; 0.375586
	DD	03ebf926fr			; 0.374164
	DD	03ebed7ebr			; 0.372741
	DD	03ebe1d4ar			; 0.371317
	DD	03ebd628br			; 0.369892
	DD	03ebca7afr			; 0.368467
	DD	03ebbecb6r			; 0.36704
	DD	03ebb31a0r			; 0.365613
	DD	03eba766er			; 0.364185
	DD	03eb9bb1er			; 0.362756
	DD	03eb8ffb2r			; 0.361326
	DD	03eb8442ar			; 0.359895
	DD	03eb78884r			; 0.358463
	DD	03eb6ccc3r			; 0.357031
	DD	03eb610e6r			; 0.355598
	DD	03eb554ecr			; 0.354164
	DD	03eb498d6r			; 0.352729
	DD	03eb3dca5r			; 0.351293
	DD	03eb32058r			; 0.349856
	DD	03eb263efr			; 0.348419
	DD	03eb1a76br			; 0.34698
	DD	03eb0eacbr			; 0.345541
	DD	03eb02e10r			; 0.344101
	DD	03eaf713ar			; 0.342661
	DD	03eaeb449r			; 0.341219
	DD	03eadf73cr			; 0.339777
	DD	03ead3a15r			; 0.338334
	DD	03eac7cd4r			; 0.33689
	DD	03eabbf77r			; 0.335445
	DD	03eab0201r			; 0.334
	DD	03eaa446fr			; 0.332553
	DD	03ea986c4r			; 0.331106
	DD	03ea8c8fer			; 0.329658
	DD	03ea80b1fr			; 0.32821
	DD	03ea74d25r			; 0.32676
	DD	03ea68f12r			; 0.32531
	DD	03ea5d0e5r			; 0.323859
	DD	03ea5129fr			; 0.322408
	DD	03ea4543fr			; 0.320955
	DD	03ea395c5r			; 0.319502
	DD	03ea2d733r			; 0.318048
	DD	03ea21887r			; 0.316593
	DD	03ea159c2r			; 0.315138
	DD	03ea09ae5r			; 0.313682
	DD	03e9fdbeer			; 0.312225
	DD	03e9f1cdfr			; 0.310767
	DD	03e9e5db8r			; 0.309309
	DD	03e9d9e78r			; 0.30785
	DD	03e9cdf20r			; 0.30639
	DD	03e9c1fafr			; 0.304929
	DD	03e9b6027r			; 0.303468
	DD	03e9aa086r			; 0.302006
	DD	03e99e0cer			; 0.300543
	DD	03e9920fer			; 0.29908
	DD	03e986116r			; 0.297616
	DD	03e97a117r			; 0.296151
	DD	03e96e100r			; 0.294685
	DD	03e9620d2r			; 0.293219
	DD	03e95608dr			; 0.291752
	DD	03e94a031r			; 0.290285
	DD	03e93dfbfr			; 0.288816
	DD	03e931f35r			; 0.287347
	DD	03e925e94r			; 0.285878
	DD	03e919dddr			; 0.284408
	DD	03e90dd10r			; 0.282937
	DD	03e901c2cr			; 0.281465
	DD	03e8f5b32r			; 0.279993
	DD	03e8e9a22r			; 0.27852
	DD	03e8dd8fcr			; 0.277046
	DD	03e8d17c0r			; 0.275572
	DD	03e8c566er			; 0.274097
	DD	03e8b9507r			; 0.272621
	DD	03e8ad38ar			; 0.271145
	DD	03e8a11f7r			; 0.269668
	DD	03e895050r			; 0.268191
	DD	03e888e93r			; 0.266713
	DD	03e87ccc1r			; 0.265234
	DD	03e870adar			; 0.263755
	DD	03e8648dfr			; 0.262275
	DD	03e8586cer			; 0.260794
	DD	03e84c4aar			; 0.259313
	DD	03e840270r			; 0.257831
	DD	03e834022r			; 0.256349
	DD	03e827dc0r			; 0.254866
	DD	03e81bb4ar			; 0.253382
	DD	03e80f8c0r			; 0.251898
	DD	03e803622r			; 0.250413
	DD	03e7ee6e1r			; 0.248928
	DD	03e7d6156r			; 0.247442
	DD	03e7bdba4r			; 0.245955
	DD	03e7a55cbr			; 0.244468
	DD	03e78cfccr			; 0.24298
	DD	03e7749a6r			; 0.241492
	DD	03e75c35ar			; 0.240003
	DD	03e743ce8r			; 0.238514
	DD	03e72b651r			; 0.237024
	DD	03e712f94r			; 0.235533
	DD	03e6fa8b2r			; 0.234042
	DD	03e6e21abr			; 0.23255
	DD	03e6c9a7fr			; 0.231058
	DD	03e6b132fr			; 0.229565
	DD	03e698bbar			; 0.228072
	DD	03e680422r			; 0.226578
	DD	03e667c66r			; 0.225084
	DD	03e64f486r			; 0.223589
	DD	03e636c83r			; 0.222094
	DD	03e61e45cr			; 0.220598
	DD	03e605c13r			; 0.219101
	DD	03e5ed3a8r			; 0.217604
	DD	03e5d4b1ar			; 0.216107
	DD	03e5bc26ar			; 0.214609
	DD	03e5a3997r			; 0.21311
	DD	03e58b0a4r			; 0.211611
	DD	03e57278fr			; 0.210112
	DD	03e559e58r			; 0.208612
	DD	03e541501r			; 0.207111
	DD	03e528b89r			; 0.20561
	DD	03e5101f1r			; 0.204109
	DD	03e4f7838r			; 0.202607
	DD	03e4dee60r			; 0.201105
	DD	03e4c6467r			; 0.199602
	DD	03e4ada4fr			; 0.198098
	DD	03e495018r			; 0.196595
	DD	03e47c5c2r			; 0.19509
	DD	03e463b4dr			; 0.193586
	DD	03e44b0b9r			; 0.19208
	DD	03e432607r			; 0.190575
	DD	03e419b37r			; 0.189069
	DD	03e401049r			; 0.187562
	DD	03e3e853er			; 0.186055
	DD	03e3cfa15r			; 0.184548
	DD	03e3b6ecfr			; 0.18304
	DD	03e39e36cr			; 0.181532
	DD	03e3857ecr			; 0.180023
	DD	03e36cc50r			; 0.178514
	DD	03e354098r			; 0.177004
	DD	03e33b4c4r			; 0.175494
	DD	03e3228d4r			; 0.173984
	DD	03e309cc9r			; 0.172473
	DD	03e2f10a2r			; 0.170962
	DD	03e2d8461r			; 0.16945
	DD	03e2bf804r			; 0.167938
	DD	03e2a6b8dr			; 0.166426
	DD	03e28defcr			; 0.164913
	DD	03e275251r			; 0.1634
	DD	03e25c58cr			; 0.161886
	DD	03e2438adr			; 0.160372
	DD	03e22abb6r			; 0.158858
	DD	03e211ea5r			; 0.157343
	DD	03e1f917br			; 0.155828
	DD	03e1e0438r			; 0.154313
	DD	03e1c76der			; 0.152797
	DD	03e1ae96br			; 0.151281
	DD	03e195be0r			; 0.149765
	DD	03e17ce3dr			; 0.148248
	DD	03e164083r			; 0.14673
	DD	03e14b2b2r			; 0.145213
	DD	03e1324car			; 0.143695
	DD	03e1196ccr			; 0.142177
	DD	03e1008b7r			; 0.140658
	DD	03e0e7a8br			; 0.139139
	DD	03e0cec4ar			; 0.13762
	DD	03e0b5df3r			; 0.136101
	DD	03e09cf86r			; 0.134581
	DD	03e084105r			; 0.133061
	DD	03e06b26er			; 0.13154
	DD	03e0523c2r			; 0.130019
	DD	03e039502r			; 0.128498
	DD	03e02062er			; 0.126977
	DD	03e007745r			; 0.125455
	DD	03dfdd092r			; 0.123933
	DD	03dfab273r			; 0.122411
	DD	03df7942cr			; 0.120888
	DD	03df475c0r			; 0.119365
	DD	03df1572er			; 0.117842
	DD	03dee3876r			; 0.116319
	DD	03deb199ar			; 0.114795
	DD	03de7fa9ar			; 0.113271
	DD	03de4db76r			; 0.111747
	DD	03de1bc2er			; 0.110222
	DD	03dde9cc4r			; 0.108697
	DD	03ddb7d37r			; 0.107172
	DD	03dd85d89r			; 0.105647
	DD	03dd53db9r			; 0.104122
	DD	03dd21dc8r			; 0.102596
	DD	03dcefdb7r			; 0.10107
	DD	03dcbdd86r			; 0.0995436
	DD	03dc8bd36r			; 0.0980171
	DD	03dc59cc6r			; 0.0964904
	DD	03dc27c39r			; 0.0949635
	DD	03dbf5b8dr			; 0.0934363
	DD	03dbc3ac3r			; 0.091909
	DD	03db919ddr			; 0.0903814
	DD	03db5f8dar			; 0.0888536
	DD	03db2d7bbr			; 0.0873255
	DD	03dafb680r			; 0.0857973
	DD	03dac952br			; 0.0842689
	DD	03da973bar			; 0.0827403
	DD	03da65230r			; 0.0812114
	DD	03da3308cr			; 0.0796824
	DD	03da00ecfr			; 0.0781532
	DD	03d9cecf9r			; 0.0766239
	DD	03d99cb0ar			; 0.0750943
	DD	03d96a905r			; 0.0735646
	DD	03d9386e7r			; 0.0720346
	DD	03d9064b4r			; 0.0705046
	DD	03d8d426ar			; 0.0689743
	DD	03d8a200ar			; 0.0674439
	DD	03d86fd94r			; 0.0659133
	DD	03d83db0ar			; 0.0643826
	DD	03d80b86cr			; 0.0628518
	DD	03d7b2b74r			; 0.0613207
	DD	03d74e5e9r			; 0.0597896
	DD	03d6ea038r			; 0.0582583
	DD	03d685a62r			; 0.0567268
	DD	03d621469r			; 0.0551952
	DD	03d5bce4cr			; 0.0536635
	DD	03d55880er			; 0.0521317
	DD	03d4f41afr			; 0.0505998
	DD	03d48fb30r			; 0.0490677
	DD	03d42b491r			; 0.0475355
	DD	03d3c6dd5r			; 0.0460032
	DD	03d3626fcr			; 0.0444708
	DD	03d2fe007r			; 0.0429383
	DD	03d2998f6r			; 0.0414056
	DD	03d2351cbr			; 0.0398729
	DD	03d1d0a88r			; 0.0383401
	DD	03d16c32cr			; 0.0368072
	DD	03d107bb8r			; 0.0352742
	DD	03d0a342fr			; 0.0337412
	DD	03d03ec90r			; 0.032208
	DD	03cfb49bar			; 0.0306748
	DD	03ceeba2cr			; 0.0291415
	DD	03ce22a7ar			; 0.0276081
	DD	03cd59aa6r			; 0.0260747
	DD	03cc90ab0r			; 0.0245412
	DD	03cbc7a9br			; 0.0230077
	DD	03cafea69r			; 0.0214741
	DD	03ca35a1cr			; 0.0199404
	DD	03c96c9b6r			; 0.0184067
	DD	03c8a3938r			; 0.016873
	DD	03c7b514br			; 0.0153392
	DD	03c622fffr			; 0.0138054
	DD	03c490e90r			; 0.0122715
	DD	03c2fed02r			; 0.0107377
	DD	03c16cb58r			; 0.00920375
	DD	03bfb5330r			; 0.00766983
	DD	03bc90f88r			; 0.00613588
	DD	03b96cbc1r			; 0.00460193
	DD	03b490fc6r			; 0.00306796
	DD	03ac90fd5r			; 0.00153398
	DD	0248d3000r			; 6.12303e-17
	DD	0bac90fd5r			; -0.00153398
	DD	0bb490fc6r			; -0.00306796
	DD	0bb96cbc1r			; -0.00460193
	DD	0bbc90f88r			; -0.00613588
	DD	0bbfb5330r			; -0.00766983
	DD	0bc16cb58r			; -0.00920375
	DD	0bc2fed02r			; -0.0107377
	DD	0bc490e90r			; -0.0122715
	DD	0bc622fffr			; -0.0138054
	DD	0bc7b514br			; -0.0153392
	DD	0bc8a3938r			; -0.016873
	DD	0bc96c9b6r			; -0.0184067
	DD	0bca35a1cr			; -0.0199404
	DD	0bcafea69r			; -0.0214741
	DD	0bcbc7a9br			; -0.0230077
	DD	0bcc90ab0r			; -0.0245412
	DD	0bcd59aa6r			; -0.0260747
	DD	0bce22a7ar			; -0.0276081
	DD	0bceeba2cr			; -0.0291415
	DD	0bcfb49bar			; -0.0306748
	DD	0bd03ec90r			; -0.032208
	DD	0bd0a342fr			; -0.0337412
	DD	0bd107bb8r			; -0.0352742
	DD	0bd16c32cr			; -0.0368072
	DD	0bd1d0a88r			; -0.0383401
	DD	0bd2351cbr			; -0.0398729
	DD	0bd2998f6r			; -0.0414056
	DD	0bd2fe007r			; -0.0429383
	DD	0bd3626fcr			; -0.0444708
	DD	0bd3c6dd5r			; -0.0460032
	DD	0bd42b491r			; -0.0475355
	DD	0bd48fb30r			; -0.0490677
	DD	0bd4f41afr			; -0.0505998
	DD	0bd55880er			; -0.0521317
	DD	0bd5bce4cr			; -0.0536635
	DD	0bd621469r			; -0.0551952
	DD	0bd685a62r			; -0.0567268
	DD	0bd6ea038r			; -0.0582583
	DD	0bd74e5e9r			; -0.0597896
	DD	0bd7b2b74r			; -0.0613207
	DD	0bd80b86cr			; -0.0628518
	DD	0bd83db0ar			; -0.0643826
	DD	0bd86fd94r			; -0.0659133
	DD	0bd8a200ar			; -0.0674439
	DD	0bd8d426ar			; -0.0689743
	DD	0bd9064b4r			; -0.0705046
	DD	0bd9386e7r			; -0.0720346
	DD	0bd96a905r			; -0.0735646
	DD	0bd99cb0ar			; -0.0750943
	DD	0bd9cecf9r			; -0.0766239
	DD	0bda00ecfr			; -0.0781532
	DD	0bda3308cr			; -0.0796824
	DD	0bda65230r			; -0.0812114
	DD	0bda973bar			; -0.0827403
	DD	0bdac952br			; -0.0842689
	DD	0bdafb680r			; -0.0857973
	DD	0bdb2d7bbr			; -0.0873255
	DD	0bdb5f8dar			; -0.0888536
	DD	0bdb919ddr			; -0.0903814
	DD	0bdbc3ac3r			; -0.091909
	DD	0bdbf5b8dr			; -0.0934363
	DD	0bdc27c39r			; -0.0949635
	DD	0bdc59cc6r			; -0.0964904
	DD	0bdc8bd36r			; -0.0980171
	DD	0bdcbdd86r			; -0.0995436
	DD	0bdcefdb7r			; -0.10107
	DD	0bdd21dc8r			; -0.102596
	DD	0bdd53db9r			; -0.104122
	DD	0bdd85d89r			; -0.105647
	DD	0bddb7d37r			; -0.107172
	DD	0bdde9cc4r			; -0.108697
	DD	0bde1bc2er			; -0.110222
	DD	0bde4db76r			; -0.111747
	DD	0bde7fa9ar			; -0.113271
	DD	0bdeb199ar			; -0.114795
	DD	0bdee3876r			; -0.116319
	DD	0bdf1572er			; -0.117842
	DD	0bdf475c0r			; -0.119365
	DD	0bdf7942cr			; -0.120888
	DD	0bdfab273r			; -0.122411
	DD	0bdfdd092r			; -0.123933
	DD	0be007745r			; -0.125455
	DD	0be02062er			; -0.126977
	DD	0be039502r			; -0.128498
	DD	0be0523c2r			; -0.130019
	DD	0be06b26er			; -0.13154
	DD	0be084105r			; -0.133061
	DD	0be09cf86r			; -0.134581
	DD	0be0b5df3r			; -0.136101
	DD	0be0cec4ar			; -0.13762
	DD	0be0e7a8br			; -0.139139
	DD	0be1008b7r			; -0.140658
	DD	0be1196ccr			; -0.142177
	DD	0be1324car			; -0.143695
	DD	0be14b2b2r			; -0.145213
	DD	0be164083r			; -0.14673
	DD	0be17ce3dr			; -0.148248
	DD	0be195be0r			; -0.149765
	DD	0be1ae96br			; -0.151281
	DD	0be1c76der			; -0.152797
	DD	0be1e0438r			; -0.154313
	DD	0be1f917br			; -0.155828
	DD	0be211ea5r			; -0.157343
	DD	0be22abb6r			; -0.158858
	DD	0be2438adr			; -0.160372
	DD	0be25c58cr			; -0.161886
	DD	0be275251r			; -0.1634
	DD	0be28defcr			; -0.164913
	DD	0be2a6b8dr			; -0.166426
	DD	0be2bf804r			; -0.167938
	DD	0be2d8461r			; -0.16945
	DD	0be2f10a2r			; -0.170962
	DD	0be309cc9r			; -0.172473
	DD	0be3228d4r			; -0.173984
	DD	0be33b4c4r			; -0.175494
	DD	0be354098r			; -0.177004
	DD	0be36cc50r			; -0.178514
	DD	0be3857ecr			; -0.180023
	DD	0be39e36cr			; -0.181532
	DD	0be3b6ecfr			; -0.18304
	DD	0be3cfa15r			; -0.184548
	DD	0be3e853er			; -0.186055
	DD	0be401049r			; -0.187562
	DD	0be419b37r			; -0.189069
	DD	0be432607r			; -0.190575
	DD	0be44b0b9r			; -0.19208
	DD	0be463b4dr			; -0.193586
	DD	0be47c5c2r			; -0.19509
	DD	0be495018r			; -0.196595
	DD	0be4ada4fr			; -0.198098
	DD	0be4c6467r			; -0.199602
	DD	0be4dee60r			; -0.201105
	DD	0be4f7838r			; -0.202607
	DD	0be5101f1r			; -0.204109
	DD	0be528b89r			; -0.20561
	DD	0be541501r			; -0.207111
	DD	0be559e58r			; -0.208612
	DD	0be57278fr			; -0.210112
	DD	0be58b0a4r			; -0.211611
	DD	0be5a3997r			; -0.21311
	DD	0be5bc26ar			; -0.214609
	DD	0be5d4b1ar			; -0.216107
	DD	0be5ed3a8r			; -0.217604
	DD	0be605c13r			; -0.219101
	DD	0be61e45cr			; -0.220598
	DD	0be636c83r			; -0.222094
	DD	0be64f486r			; -0.223589
	DD	0be667c66r			; -0.225084
	DD	0be680422r			; -0.226578
	DD	0be698bbar			; -0.228072
	DD	0be6b132fr			; -0.229565
	DD	0be6c9a7fr			; -0.231058
	DD	0be6e21abr			; -0.23255
	DD	0be6fa8b2r			; -0.234042
	DD	0be712f94r			; -0.235533
	DD	0be72b651r			; -0.237024
	DD	0be743ce8r			; -0.238514
	DD	0be75c35ar			; -0.240003
	DD	0be7749a6r			; -0.241492
	DD	0be78cfccr			; -0.24298
	DD	0be7a55cbr			; -0.244468
	DD	0be7bdba4r			; -0.245955
	DD	0be7d6156r			; -0.247442
	DD	0be7ee6e1r			; -0.248928
	DD	0be803622r			; -0.250413
	DD	0be80f8c0r			; -0.251898
	DD	0be81bb4ar			; -0.253382
	DD	0be827dc0r			; -0.254866
	DD	0be834022r			; -0.256349
	DD	0be840270r			; -0.257831
	DD	0be84c4aar			; -0.259313
	DD	0be8586cer			; -0.260794
	DD	0be8648dfr			; -0.262275
	DD	0be870adar			; -0.263755
	DD	0be87ccc1r			; -0.265234
	DD	0be888e93r			; -0.266713
	DD	0be895050r			; -0.268191
	DD	0be8a11f7r			; -0.269668
	DD	0be8ad38ar			; -0.271145
	DD	0be8b9507r			; -0.272621
	DD	0be8c566er			; -0.274097
	DD	0be8d17c0r			; -0.275572
	DD	0be8dd8fcr			; -0.277046
	DD	0be8e9a22r			; -0.27852
	DD	0be8f5b32r			; -0.279993
	DD	0be901c2cr			; -0.281465
	DD	0be90dd10r			; -0.282937
	DD	0be919dddr			; -0.284408
	DD	0be925e94r			; -0.285878
	DD	0be931f35r			; -0.287347
	DD	0be93dfbfr			; -0.288816
	DD	0be94a031r			; -0.290285
	DD	0be95608dr			; -0.291752
	DD	0be9620d2r			; -0.293219
	DD	0be96e100r			; -0.294685
	DD	0be97a117r			; -0.296151
	DD	0be986116r			; -0.297616
	DD	0be9920fer			; -0.29908
	DD	0be99e0cer			; -0.300543
	DD	0be9aa086r			; -0.302006
	DD	0be9b6027r			; -0.303468
	DD	0be9c1fafr			; -0.304929
	DD	0be9cdf20r			; -0.30639
	DD	0be9d9e78r			; -0.30785
	DD	0be9e5db8r			; -0.309309
	DD	0be9f1cdfr			; -0.310767
	DD	0be9fdbeer			; -0.312225
	DD	0bea09ae5r			; -0.313682
	DD	0bea159c2r			; -0.315138
	DD	0bea21887r			; -0.316593
	DD	0bea2d733r			; -0.318048
	DD	0bea395c5r			; -0.319502
	DD	0bea4543fr			; -0.320955
	DD	0bea5129fr			; -0.322408
	DD	0bea5d0e5r			; -0.323859
	DD	0bea68f12r			; -0.32531
	DD	0bea74d25r			; -0.32676
	DD	0bea80b1fr			; -0.32821
	DD	0bea8c8fer			; -0.329658
	DD	0bea986c4r			; -0.331106
	DD	0beaa446fr			; -0.332553
	DD	0beab0201r			; -0.334
	DD	0beabbf77r			; -0.335445
	DD	0beac7cd4r			; -0.33689
	DD	0bead3a15r			; -0.338334
	DD	0beadf73cr			; -0.339777
	DD	0beaeb449r			; -0.341219
	DD	0beaf713ar			; -0.342661
	DD	0beb02e10r			; -0.344101
	DD	0beb0eacbr			; -0.345541
	DD	0beb1a76br			; -0.34698
	DD	0beb263efr			; -0.348419
	DD	0beb32058r			; -0.349856
	DD	0beb3dca5r			; -0.351293
	DD	0beb498d6r			; -0.352729
	DD	0beb554ecr			; -0.354164
	DD	0beb610e6r			; -0.355598
	DD	0beb6ccc3r			; -0.357031
	DD	0beb78884r			; -0.358463
	DD	0beb8442ar			; -0.359895
	DD	0beb8ffb2r			; -0.361326
	DD	0beb9bb1er			; -0.362756
	DD	0beba766er			; -0.364185
	DD	0bebb31a0r			; -0.365613
	DD	0bebbecb6r			; -0.36704
	DD	0bebca7afr			; -0.368467
	DD	0bebd628br			; -0.369892
	DD	0bebe1d4ar			; -0.371317
	DD	0bebed7ebr			; -0.372741
	DD	0bebf926fr			; -0.374164
	DD	0bec04cd5r			; -0.375586
	DD	0bec1071er			; -0.377007
	DD	0bec1c148r			; -0.378428
	DD	0bec27b55r			; -0.379847
	DD	0bec33544r			; -0.381266
	DD	0bec3ef15r			; -0.382683
	DD	0bec4a8c8r			; -0.3841
	DD	0bec5625cr			; -0.385516
	DD	0bec61bd2r			; -0.386931
	DD	0bec6d529r			; -0.388345
	DD	0bec78e62r			; -0.389758
	DD	0bec8477cr			; -0.39117
	DD	0bec90077r			; -0.392582
	DD	0bec9b953r			; -0.393992
	DD	0beca7210r			; -0.395401
	DD	0becb2aaer			; -0.39681
	DD	0becbe32cr			; -0.398218
	DD	0becc9b8br			; -0.399624
	DD	0becd53car			; -0.40103
	DD	0bece0bear			; -0.402435
	DD	0becec3ear			; -0.403838
	DD	0becf7bcar			; -0.405241
	DD	0bed0338ar			; -0.406643
	DD	0bed0eb2ar			; -0.408044
	DD	0bed1a2aar			; -0.409444
	DD	0bed25a09r			; -0.410843
	DD	0bed31148r			; -0.412241
	DD	0bed3c867r			; -0.413638
	DD	0bed47f64r			; -0.415034
	DD	0bed53641r			; -0.41643
	DD	0bed5ecfdr			; -0.417824
	DD	0bed6a399r			; -0.419217
	DD	0bed75a13r			; -0.420609
	DD	0bed8106br			; -0.422
	DD	0bed8c6a3r			; -0.42339
	DD	0bed97cb9r			; -0.42478
	DD	0beda32adr			; -0.426168
	DD	0bedae880r			; -0.427555
	DD	0bedb9e31r			; -0.428941
	DD	0bedc53c1r			; -0.430326
	DD	0bedd092er			; -0.431711
	DD	0beddbe79r			; -0.433094
	DD	0bede73a2r			; -0.434476
	DD	0bedf28a9r			; -0.435857
	DD	0bedfdd8dr			; -0.437237
	DD	0bee0924fr			; -0.438616
	DD	0bee146eer			; -0.439994
	DD	0bee1fb6ar			; -0.441371
	DD	0bee2afc4r			; -0.442747
	DD	0bee363far			; -0.444122
	DD	0bee4180er			; -0.445496
	DD	0bee4cbfer			; -0.446869
	DD	0bee57fcbr			; -0.448241
	DD	0bee63375r			; -0.449611
	DD	0bee6e6fbr			; -0.450981
	DD	0bee79a5dr			; -0.45235
	DD	0bee84d9cr			; -0.453717
	DD	0bee900b7r			; -0.455084
	DD	0bee9b3aer			; -0.456449
	DD	0beea6681r			; -0.457813
	DD	0beeb1930r			; -0.459177
	DD	0beebcbbbr			; -0.460539
	DD	0beec7e21r			; -0.4619
	DD	0beed3063r			; -0.46326
	DD	0beede280r			; -0.464619
	DD	0beee9479r			; -0.465977
	DD	0beef464cr			; -0.467333
	DD	0beeff7fbr			; -0.468689
	DD	0bef0a985r			; -0.470043
	DD	0bef15aear			; -0.471397
	DD	0bef20c29r			; -0.472749
	DD	0bef2bd43r			; -0.4741
	DD	0bef36e38r			; -0.47545
	DD	0bef41f07r			; -0.476799
	DD	0bef4cfb1r			; -0.478147
	DD	0bef58035r			; -0.479494
	DD	0bef63093r			; -0.480839
	DD	0bef6e0cbr			; -0.482184
	DD	0bef790dcr			; -0.483527
	DD	0bef840c8r			; -0.484869
	DD	0bef8f08er			; -0.48621
	DD	0bef9a02dr			; -0.48755
	DD	0befa4fa5r			; -0.488889
	DD	0befafef7r			; -0.490226
	DD	0befbae22r			; -0.491563
	DD	0befc5d27r			; -0.492898
	DD	0befd0c04r			; -0.494232
	DD	0befdbabbr			; -0.495565
	DD	0befe694ar			; -0.496897
	DD	0beff17b2r			; -0.498228
	DD	0beffc5f3r			; -0.499557
	DD	0bf003a06r			; -0.500885
	DD	0bf0090ffr			; -0.502212
	DD	0bf00e7e4r			; -0.503538
	DD	0bf013eb5r			; -0.504863
	DD	0bf019573r			; -0.506187
	DD	0bf01ec1cr			; -0.507509
	DD	0bf0242b1r			; -0.50883
	DD	0bf029932r			; -0.51015
	DD	0bf02ef9fr			; -0.511469
	DD	0bf0345f8r			; -0.512786
	DD	0bf039c3dr			; -0.514103
	DD	0bf03f26dr			; -0.515418
	DD	0bf044889r			; -0.516732
	DD	0bf049e91r			; -0.518045
	DD	0bf04f484r			; -0.519356
	DD	0bf054a62r			; -0.520666
	DD	0bf05a02cr			; -0.521975
	DD	0bf05f5e2r			; -0.523283
	DD	0bf064b82r			; -0.52459
	DD	0bf06a10er			; -0.525895
	DD	0bf06f686r			; -0.527199
	DD	0bf074be8r			; -0.528502
	DD	0bf07a136r			; -0.529804
	DD	0bf07f66fr			; -0.531104
	DD	0bf084b92r			; -0.532403
	DD	0bf08a0a1r			; -0.533701
	DD	0bf08f59br			; -0.534998
	DD	0bf094a7fr			; -0.536293
	DD	0bf099f4er			; -0.537587
	DD	0bf09f409r			; -0.53888
	DD	0bf0a48adr			; -0.540171
	DD	0bf0a9d3dr			; -0.541462
	DD	0bf0af1b7r			; -0.542751
	DD	0bf0b461cr			; -0.544039
	DD	0bf0b9a6br			; -0.545325
	DD	0bf0beea5r			; -0.54661
	DD	0bf0c42c9r			; -0.547894
	DD	0bf0c96d7r			; -0.549177
	DD	0bf0cead0r			; -0.550458
	DD	0bf0d3eb3r			; -0.551738
	DD	0bf0d9281r			; -0.553017
	DD	0bf0de638r			; -0.554294
	DD	0bf0e39dar			; -0.55557
	DD	0bf0e8d65r			; -0.556845
	DD	0bf0ee0dbr			; -0.558119
	DD	0bf0f343br			; -0.559391
	DD	0bf0f8784r			; -0.560662
	DD	0bf0fdab8r			; -0.561931
	DD	0bf102dd5r			; -0.563199
	DD	0bf1080dcr			; -0.564466
	DD	0bf10d3cdr			; -0.565732
	DD	0bf1126a7r			; -0.566996
	DD	0bf11796br			; -0.568259
	DD	0bf11cc19r			; -0.569521
	DD	0bf121eb0r			; -0.570781
	DD	0bf127130r			; -0.57204
	DD	0bf12c39ar			; -0.573297
	DD	0bf1315eer			; -0.574553
	DD	0bf13682ar			; -0.575808
	DD	0bf13ba50r			; -0.577062
	DD	0bf140c5fr			; -0.578314
	DD	0bf145e58r			; -0.579565
	DD	0bf14b039r			; -0.580814
	DD	0bf150204r			; -0.582062
	DD	0bf1553b7r			; -0.583309
	DD	0bf15a554r			; -0.584554
	DD	0bf15f6d9r			; -0.585798
	DD	0bf164847r			; -0.58704
	DD	0bf16999fr			; -0.588282
	DD	0bf16eader			; -0.589521
	DD	0bf173c07r			; -0.59076
	DD	0bf178d18r			; -0.591997
	DD	0bf17de12r			; -0.593232
	DD	0bf182ef5r			; -0.594467
	DD	0bf187fc0r			; -0.595699
	DD	0bf18d073r			; -0.596931
	DD	0bf19210fr			; -0.598161
	DD	0bf197194r			; -0.599389
	DD	0bf19c200r			; -0.600616
	DD	0bf1a1255r			; -0.601842
	DD	0bf1a6293r			; -0.603067
	DD	0bf1ab2b8r			; -0.60429
	DD	0bf1b02c6r			; -0.605511
	DD	0bf1b52bbr			; -0.606731
	DD	0bf1ba299r			; -0.60795
	DD	0bf1bf25fr			; -0.609167
	DD	0bf1c420cr			; -0.610383
	DD	0bf1c91a2r			; -0.611597
	DD	0bf1ce11fr			; -0.61281
	DD	0bf1d3084r			; -0.614022
	DD	0bf1d7fd1r			; -0.615232
	DD	0bf1dcf06r			; -0.61644
	DD	0bf1e1e22r			; -0.617647
	DD	0bf1e6d26r			; -0.618853
	DD	0bf1ebc12r			; -0.620057
	DD	0bf1f0ae5r			; -0.62126
	DD	0bf1f599fr			; -0.622461
	DD	0bf1fa841r			; -0.623661
	DD	0bf1ff6cbr			; -0.62486
	DD	0bf20453br			; -0.626056
	DD	0bf209393r			; -0.627252
	DD	0bf20e1d2r			; -0.628446
	DD	0bf212ff9r			; -0.629638
	DD	0bf217e06r			; -0.630829
	DD	0bf21cbfbr			; -0.632019
	DD	0bf2219d7r			; -0.633207
	DD	0bf226799r			; -0.634393
	DD	0bf22b543r			; -0.635578
	DD	0bf2302d3r			; -0.636762
	DD	0bf23504br			; -0.637944
	DD	0bf239da9r			; -0.639124
	DD	0bf23eaeer			; -0.640303
	DD	0bf24381ar			; -0.641481
	DD	0bf24852cr			; -0.642657
	DD	0bf24d225r			; -0.643832
	DD	0bf251f04r			; -0.645005
	DD	0bf256bcbr			; -0.646176
	DD	0bf25b877r			; -0.647346
	DD	0bf26050ar			; -0.648514
	DD	0bf265184r			; -0.649681
	DD	0bf269de3r			; -0.650847
	DD	0bf26ea2ar			; -0.652011
	DD	0bf273656r			; -0.653173
	DD	0bf278268r			; -0.654334
	DD	0bf27ce61r			; -0.655493
	DD	0bf281a40r			; -0.656651
	DD	0bf286605r			; -0.657807
	DD	0bf28b1b0r			; -0.658961
	DD	0bf28fd41r			; -0.660114
	DD	0bf2948b8r			; -0.661266
	DD	0bf299415r			; -0.662416
	DD	0bf29df57r			; -0.663564
	DD	0bf2a2a80r			; -0.664711
	DD	0bf2a758er			; -0.665856
	DD	0bf2ac082r			; -0.667
	DD	0bf2b0b5br			; -0.668142
	DD	0bf2b561br			; -0.669283
	DD	0bf2ba0bfr			; -0.670422
	DD	0bf2beb4ar			; -0.671559
	DD	0bf2c35b9r			; -0.672695
	DD	0bf2c800fr			; -0.673829
	DD	0bf2cca49r			; -0.674962
	DD	0bf2d1469r			; -0.676093
	DD	0bf2d5e6fr			; -0.677222
	DD	0bf2da859r			; -0.67835
	DD	0bf2df229r			; -0.679476
	DD	0bf2e3bder			; -0.680601
	DD	0bf2e8578r			; -0.681724
	DD	0bf2ecef7r			; -0.682846
	DD	0bf2f185br			; -0.683965
	DD	0bf2f61a5r			; -0.685084
	DD	0bf2faad3r			; -0.6862
	DD	0bf2ff3e6r			; -0.687315
	DD	0bf303cder			; -0.688429
	DD	0bf3085bbr			; -0.689541
	DD	0bf30ce7cr			; -0.690651
	DD	0bf311722r			; -0.691759
	DD	0bf315fadr			; -0.692866
	DD	0bf31a81dr			; -0.693971
	DD	0bf31f071r			; -0.695075
	DD	0bf3238aar			; -0.696177
	DD	0bf3280c7r			; -0.697277
	DD	0bf32c8c9r			; -0.698376
	DD	0bf3310afr			; -0.699473
	DD	0bf33587ar			; -0.700569
	DD	0bf33a029r			; -0.701663
	DD	0bf33e7bcr			; -0.702755
	DD	0bf342f34r			; -0.703845
	DD	0bf34768fr			; -0.704934
	DD	0bf34bdcfr			; -0.706021
	DD	0bf3504f3r			; -0.707107
	DD	0bf354bfbr			; -0.708191
	DD	0bf3592e7r			; -0.709273
	DD	0bf35d9b8r			; -0.710353
	DD	0bf36206cr			; -0.711432
	DD	0bf366704r			; -0.712509
	DD	0bf36ad7fr			; -0.713585
	DD	0bf36f3dfr			; -0.714659
	DD	0bf373a23r			; -0.715731
	DD	0bf37804ar			; -0.716801
	DD	0bf37c655r			; -0.71787
	DD	0bf380c43r			; -0.718937
	DD	0bf385216r			; -0.720003
	DD	0bf3897cbr			; -0.721066
	DD	0bf38dd65r			; -0.722128
	DD	0bf3922e1r			; -0.723188
	DD	0bf396842r			; -0.724247
	DD	0bf39ad85r			; -0.725304
	DD	0bf39f2acr			; -0.726359
	DD	0bf3a37b7r			; -0.727413
	DD	0bf3a7ca4r			; -0.728464
	DD	0bf3ac175r			; -0.729514
	DD	0bf3b0629r			; -0.730563
	DD	0bf3b4ac1r			; -0.731609
	DD	0bf3b8f3br			; -0.732654
	DD	0bf3bd398r			; -0.733697
	DD	0bf3c17d9r			; -0.734739
	DD	0bf3c5bfcr			; -0.735779
	DD	0bf3ca003r			; -0.736817
	DD	0bf3ce3ecr			; -0.737853
	DD	0bf3d27b8r			; -0.738887
	DD	0bf3d6b67r			; -0.73992
	DD	0bf3daef9r			; -0.740951
	DD	0bf3df26er			; -0.74198
	DD	0bf3e35c5r			; -0.743008
	DD	0bf3e78ffr			; -0.744034
	DD	0bf3ebc1br			; -0.745058
	DD	0bf3eff1br			; -0.74608
	DD	0bf3f41fcr			; -0.747101
	DD	0bf3f84c0r			; -0.748119
	DD	0bf3fc767r			; -0.749136
	DD	0bf4009f0r			; -0.750152
	DD	0bf404c5cr			; -0.751165
	DD	0bf408ea9r			; -0.752177
	DD	0bf40d0dar			; -0.753187
	DD	0bf4112ecr			; -0.754195
	DD	0bf4154e1r			; -0.755201
	DD	0bf4196b7r			; -0.756206
	DD	0bf41d870r			; -0.757209
	DD	0bf421a0br			; -0.75821
	DD	0bf425b89r			; -0.759209
	DD	0bf429ce8r			; -0.760207
	DD	0bf42de29r			; -0.761202
	DD	0bf431f4cr			; -0.762196
	DD	0bf436051r			; -0.763188
	DD	0bf43a138r			; -0.764179
	DD	0bf43e200r			; -0.765167
	DD	0bf4422abr			; -0.766154
	DD	0bf446337r			; -0.767139
	DD	0bf44a3a5r			; -0.768122
	DD	0bf44e3f5r			; -0.769103
	DD	0bf452426r			; -0.770083
	DD	0bf456439r			; -0.771061
	DD	0bf45a42dr			; -0.772036
	DD	0bf45e403r			; -0.77301
	DD	0bf4623bbr			; -0.773983
	DD	0bf466354r			; -0.774953
	DD	0bf46a2cer			; -0.775922
	DD	0bf46e22ar			; -0.776888
	DD	0bf472167r			; -0.777853
	DD	0bf476085r			; -0.778817
	DD	0bf479f84r			; -0.779778
	DD	0bf47de65r			; -0.780737
	DD	0bf481d27r			; -0.781695
	DD	0bf485bcar			; -0.782651
	DD	0bf489a4er			; -0.783605
	DD	0bf48d8b3r			; -0.784557
	DD	0bf4916far			; -0.785507
	DD	0bf495521r			; -0.786455
	DD	0bf499329r			; -0.787402
	DD	0bf49d112r			; -0.788346
	DD	0bf4a0edcr			; -0.789289
	DD	0bf4a4c87r			; -0.79023
	DD	0bf4a8a13r			; -0.791169
	DD	0bf4ac77fr			; -0.792107
	DD	0bf4b04ccr			; -0.793042
	DD	0bf4b41far			; -0.793975
	DD	0bf4b7f09r			; -0.794907
	DD	0bf4bbbf8r			; -0.795837
	DD	0bf4bf8c7r			; -0.796765
	DD	0bf4c3578r			; -0.797691
	DD	0bf4c7208r			; -0.798615
	DD	0bf4cae79r			; -0.799537
	DD	0bf4ceacbr			; -0.800458
	DD	0bf4d26fdr			; -0.801376
	DD	0bf4d6310r			; -0.802293
	DD	0bf4d9f02r			; -0.803208
	DD	0bf4ddad5r			; -0.80412
	DD	0bf4e1689r			; -0.805031
	DD	0bf4e521cr			; -0.80594
	DD	0bf4e8d90r			; -0.806848
	DD	0bf4ec8e4r			; -0.807753
	DD	0bf4f0417r			; -0.808656
	DD	0bf4f3f2br			; -0.809558
	DD	0bf4f7a1fr			; -0.810457
	DD	0bf4fb4f4r			; -0.811355
	DD	0bf4fefa8r			; -0.812251
	DD	0bf502a3br			; -0.813144
	DD	0bf5064afr			; -0.814036
	DD	0bf509f03r			; -0.814926
	DD	0bf50d937r			; -0.815814
	DD	0bf51134ar			; -0.816701
	DD	0bf514d3dr			; -0.817585
	DD	0bf518710r			; -0.818467
	DD	0bf51c0c2r			; -0.819348
	DD	0bf51fa54r			; -0.820226
	DD	0bf5233c6r			; -0.821102
	DD	0bf526d18r			; -0.821977
	DD	0bf52a649r			; -0.82285
	DD	0bf52df59r			; -0.823721
	DD	0bf531849r			; -0.824589
	DD	0bf535118r			; -0.825456
	DD	0bf5389c7r			; -0.826321
	DD	0bf53c255r			; -0.827184
	DD	0bf53fac3r			; -0.828045
	DD	0bf54330fr			; -0.828904
	DD	0bf546b3br			; -0.829761
	DD	0bf54a347r			; -0.830616
	DD	0bf54db31r			; -0.83147
	DD	0bf5512fbr			; -0.832321
	DD	0bf554aa4r			; -0.83317
	DD	0bf55822cr			; -0.834018
	DD	0bf55b993r			; -0.834863
	DD	0bf55f0d9r			; -0.835706
	DD	0bf5627fer			; -0.836548
	DD	0bf565f02r			; -0.837387
	DD	0bf5695e5r			; -0.838225
	DD	0bf56cca7r			; -0.83906
	DD	0bf570348r			; -0.839894
	DD	0bf5739c7r			; -0.840725
	DD	0bf577026r			; -0.841555
	DD	0bf57a663r			; -0.842383
	DD	0bf57dc7fr			; -0.843208
	DD	0bf581279r			; -0.844032
	DD	0bf584853r			; -0.844854
	DD	0bf587e0br			; -0.845673
	DD	0bf58b3a1r			; -0.846491
	DD	0bf58e916r			; -0.847307
	DD	0bf591e6ar			; -0.84812
	DD	0bf59539cr			; -0.848932
	DD	0bf5988adr			; -0.849742
	DD	0bf59bd9cr			; -0.850549
	DD	0bf59f26ar			; -0.851355
	DD	0bf5a2716r			; -0.852159
	DD	0bf5a5ba0r			; -0.852961
	DD	0bf5a9009r			; -0.85376
	DD	0bf5ac450r			; -0.854558
	DD	0bf5af875r			; -0.855354
	DD	0bf5b2c79r			; -0.856147
	DD	0bf5b605ar			; -0.856939
	DD	0bf5b941ar			; -0.857729
	DD	0bf5bc7b8r			; -0.858516
	DD	0bf5bfb34r			; -0.859302
	DD	0bf5c2e8er			; -0.860085
	DD	0bf5c61c7r			; -0.860867
	DD	0bf5c94ddr			; -0.861646
	DD	0bf5cc7d1r			; -0.862424
	DD	0bf5cfaa3r			; -0.863199
	DD	0bf5d2d53r			; -0.863973
	DD	0bf5d5fe1r			; -0.864744
	DD	0bf5d924dr			; -0.865514
	DD	0bf5dc497r			; -0.866281
	DD	0bf5df6ber			; -0.867046
	DD	0bf5e28c3r			; -0.867809
	DD	0bf5e5aa6r			; -0.868571
	DD	0bf5e8c67r			; -0.86933
	DD	0bf5ebe05r			; -0.870087
	DD	0bf5eef81r			; -0.870842
	DD	0bf5f20dbr			; -0.871595
	DD	0bf5f5212r			; -0.872346
	DD	0bf5f8327r			; -0.873095
	DD	0bf5fb419r			; -0.873842
	DD	0bf5fe4e9r			; -0.874587
	DD	0bf601596r			; -0.875329
	DD	0bf604621r			; -0.87607
	DD	0bf607689r			; -0.876809
	DD	0bf60a6cfr			; -0.877545
	DD	0bf60d6f2r			; -0.87828
	DD	0bf6106f2r			; -0.879012
	DD	0bf6136d0r			; -0.879743
	DD	0bf61668ar			; -0.880471
	DD	0bf619622r			; -0.881197
	DD	0bf61c598r			; -0.881921
	DD	0bf61f4ear			; -0.882643
	DD	0bf62241ar			; -0.883363
	DD	0bf625326r			; -0.884081
	DD	0bf628210r			; -0.884797
	DD	0bf62b0d7r			; -0.885511
	DD	0bf62df7br			; -0.886223
	DD	0bf630dfcr			; -0.886932
	DD	0bf633c5ar			; -0.88764
	DD	0bf636a95r			; -0.888345
	DD	0bf6398acr			; -0.889048
	DD	0bf63c6a1r			; -0.88975
	DD	0bf63f473r			; -0.890449
	DD	0bf642221r			; -0.891146
	DD	0bf644facr			; -0.891841
	DD	0bf647d14r			; -0.892534
	DD	0bf64aa59r			; -0.893224
	DD	0bf64d77br			; -0.893913
	DD	0bf650479r			; -0.894599
	DD	0bf653154r			; -0.895284
	DD	0bf655e0br			; -0.895966
	DD	0bf658aa0r			; -0.896646
	DD	0bf65b710r			; -0.897325
	DD	0bf65e35er			; -0.898001
	DD	0bf660f88r			; -0.898674
	DD	0bf663b8er			; -0.899346
	DD	0bf666771r			; -0.900016
	DD	0bf669330r			; -0.900683
	DD	0bf66beccr			; -0.901349
	DD	0bf66ea45r			; -0.902012
	DD	0bf671599r			; -0.902673
	DD	0bf6740car			; -0.903332
	DD	0bf676bd8r			; -0.903989
	DD	0bf6796c1r			; -0.904644
	DD	0bf67c187r			; -0.905297
	DD	0bf67ec29r			; -0.905947
	DD	0bf6816a8r			; -0.906596
	DD	0bf684103r			; -0.907242
	DD	0bf686b39r			; -0.907886
	DD	0bf68954cr			; -0.908528
	DD	0bf68bf3cr			; -0.909168
	DD	0bf68e907r			; -0.909806
	DD	0bf6912aer			; -0.910441
	DD	0bf693c32r			; -0.911075
	DD	0bf696591r			; -0.911706
	DD	0bf698eccr			; -0.912335
	DD	0bf69b7e4r			; -0.912962
	DD	0bf69e0d7r			; -0.913587
	DD	0bf6a09a7r			; -0.91421
	DD	0bf6a3252r			; -0.91483
	DD	0bf6a5ad9r			; -0.915449
	DD	0bf6a833cr			; -0.916065
	DD	0bf6aab7br			; -0.916679
	DD	0bf6ad395r			; -0.917291
	DD	0bf6afb8cr			; -0.917901
	DD	0bf6b235er			; -0.918508
	DD	0bf6b4b0cr			; -0.919114
	DD	0bf6b7295r			; -0.919717
	DD	0bf6b99fbr			; -0.920318
	DD	0bf6bc13br			; -0.920917
	DD	0bf6be858r			; -0.921514
	DD	0bf6c0f50r			; -0.922109
	DD	0bf6c3624r			; -0.922701
	DD	0bf6c5cd4r			; -0.923291
	DD	0bf6c835er			; -0.92388
	DD	0bf6ca9c5r			; -0.924465
	DD	0bf6cd007r			; -0.925049
	DD	0bf6cf624r			; -0.925631
	DD	0bf6d1c1dr			; -0.92621
	DD	0bf6d41f2r			; -0.926787
	DD	0bf6d67a1r			; -0.927363
	DD	0bf6d8d2dr			; -0.927935
	DD	0bf6db293r			; -0.928506
	DD	0bf6dd7d5r			; -0.929075
	DD	0bf6dfcf2r			; -0.929641
	DD	0bf6e21ebr			; -0.930205
	DD	0bf6e46ber			; -0.930767
	DD	0bf6e6b6dr			; -0.931327
	DD	0bf6e8ff8r			; -0.931884
	DD	0bf6eb45dr			; -0.93244
	DD	0bf6ed89er			; -0.932993
	DD	0bf6efcbar			; -0.933544
	DD	0bf6f20b0r			; -0.934093
	DD	0bf6f4483r			; -0.934639
	DD	0bf6f6830r			; -0.935184
	DD	0bf6f8bb8r			; -0.935726
	DD	0bf6faf1br			; -0.936266
	DD	0bf6fd25ar			; -0.936803
	DD	0bf6ff573r			; -0.937339
	DD	0bf701867r			; -0.937872
	DD	0bf703b37r			; -0.938404
	DD	0bf705de1r			; -0.938932
	DD	0bf708066r			; -0.939459
	DD	0bf70a2c6r			; -0.939984
	DD	0bf70c501r			; -0.940506
	DD	0bf70e717r			; -0.941026
	DD	0bf710908r			; -0.941544
	DD	0bf712ad4r			; -0.94206
	DD	0bf714c7ar			; -0.942573
	DD	0bf716dfbr			; -0.943084
	DD	0bf718f57r			; -0.943593
	DD	0bf71b08er			; -0.9441
	DD	0bf71d19fr			; -0.944605
	DD	0bf71f28cr			; -0.945107
	DD	0bf721352r			; -0.945607
	DD	0bf7233f4r			; -0.946105
	DD	0bf725470r			; -0.946601
	DD	0bf7274c7r			; -0.947094
	DD	0bf7294f8r			; -0.947586
	DD	0bf72b504r			; -0.948075
	DD	0bf72d4ebr			; -0.948561
	DD	0bf72f4acr			; -0.949046
	DD	0bf731447r			; -0.949528
	DD	0bf7333ber			; -0.950008
	DD	0bf73530er			; -0.950486
	DD	0bf737239r			; -0.950962
	DD	0bf73913fr			; -0.951435
	DD	0bf73b01fr			; -0.951906
	DD	0bf73ced9r			; -0.952375
	DD	0bf73ed6er			; -0.952842
	DD	0bf740bddr			; -0.953306
	DD	0bf742a27r			; -0.953768
	DD	0bf74484br			; -0.954228
	DD	0bf746649r			; -0.954686
	DD	0bf748422r			; -0.955141
	DD	0bf74a1d5r			; -0.955594
	DD	0bf74bf62r			; -0.956045
	DD	0bf74dcc9r			; -0.956494
	DD	0bf74fa0br			; -0.95694
	DD	0bf751727r			; -0.957385
	DD	0bf75341dr			; -0.957826
	DD	0bf7550edr			; -0.958266
	DD	0bf756d97r			; -0.958703
	DD	0bf758a1cr			; -0.959139
	DD	0bf75a67br			; -0.959572
	DD	0bf75c2b3r			; -0.960002
	DD	0bf75dec6r			; -0.960431
	DD	0bf75fab3r			; -0.960857
	DD	0bf76167ar			; -0.96128
	DD	0bf76321br			; -0.961702
	DD	0bf764d97r			; -0.962121
	DD	0bf7668ecr			; -0.962538
	DD	0bf76841br			; -0.962953
	DD	0bf769f24r			; -0.963366
	DD	0bf76ba07r			; -0.963776
	DD	0bf76d4c4r			; -0.964184
	DD	0bf76ef5br			; -0.96459
	DD	0bf7709ccr			; -0.964993
	DD	0bf772417r			; -0.965394
	DD	0bf773e3cr			; -0.965793
	DD	0bf77583ar			; -0.96619
	DD	0bf777213r			; -0.966584
	DD	0bf778bc5r			; -0.966976
	DD	0bf77a551r			; -0.967366
	DD	0bf77beb7r			; -0.967754
	DD	0bf77d7f7r			; -0.968139
	DD	0bf77f110r			; -0.968522
	DD	0bf780a04r			; -0.968903
	DD	0bf7822d1r			; -0.969281
	DD	0bf783b77r			; -0.969657
	DD	0bf7853f8r			; -0.970031
	DD	0bf786c52r			; -0.970403
	DD	0bf788486r			; -0.970772
	DD	0bf789c93r			; -0.971139
	DD	0bf78b47br			; -0.971504
	DD	0bf78cc3br			; -0.971866
	DD	0bf78e3d6r			; -0.972227
	DD	0bf78fb4ar			; -0.972584
	DD	0bf791298r			; -0.97294
	DD	0bf7929bfr			; -0.973293
	DD	0bf7940c0r			; -0.973644
	DD	0bf79579ar			; -0.973993
	DD	0bf796e4er			; -0.974339
	DD	0bf7984dcr			; -0.974684
	DD	0bf799b43r			; -0.975025
	DD	0bf79b183r			; -0.975365
	DD	0bf79c79dr			; -0.975702
	DD	0bf79dd91r			; -0.976037
	DD	0bf79f35er			; -0.97637
	DD	0bf7a0904r			; -0.9767
	DD	0bf7a1e84r			; -0.977028
	DD	0bf7a33ddr			; -0.977354
	DD	0bf7a4910r			; -0.977677
	DD	0bf7a5e1cr			; -0.977998
	DD	0bf7a7302r			; -0.978317
	DD	0bf7a87c1r			; -0.978634
	DD	0bf7a9c59r			; -0.978948
	DD	0bf7ab0cbr			; -0.97926
	DD	0bf7ac516r			; -0.97957
	DD	0bf7ad93ar			; -0.979877
	DD	0bf7aed37r			; -0.980182
	DD	0bf7b010er			; -0.980485
	DD	0bf7b14ber			; -0.980785
	DD	0bf7b2848r			; -0.981083
	DD	0bf7b3babr			; -0.981379
	DD	0bf7b4ee7r			; -0.981673
	DD	0bf7b61fcr			; -0.981964
	DD	0bf7b74ear			; -0.982253
	DD	0bf7b87b2r			; -0.982539
	DD	0bf7b9a53r			; -0.982824
	DD	0bf7baccdr			; -0.983105
	DD	0bf7bbf20r			; -0.983385
	DD	0bf7bd14dr			; -0.983662
	DD	0bf7be353r			; -0.983937
	DD	0bf7bf531r			; -0.98421
	DD	0bf7c06e9r			; -0.98448
	DD	0bf7c187ar			; -0.984748
	DD	0bf7c29e5r			; -0.985014
	DD	0bf7c3b28r			; -0.985278
	DD	0bf7c4c44r			; -0.985539
	DD	0bf7c5d3ar			; -0.985798
	DD	0bf7c6e08r			; -0.986054
	DD	0bf7c7eb0r			; -0.986308
	DD	0bf7c8f31r			; -0.98656
	DD	0bf7c9f8ar			; -0.986809
	DD	0bf7cafbdr			; -0.987057
	DD	0bf7cbfc9r			; -0.987301
	DD	0bf7ccfaer			; -0.987544
	DD	0bf7cdf6cr			; -0.987784
	DD	0bf7cef03r			; -0.988022
	DD	0bf7cfe73r			; -0.988258
	DD	0bf7d0dbcr			; -0.988491
	DD	0bf7d1cddr			; -0.988722
	DD	0bf7d2bd8r			; -0.98895
	DD	0bf7d3aacr			; -0.989177
	DD	0bf7d4959r			; -0.9894
	DD	0bf7d57der			; -0.989622
	DD	0bf7d663dr			; -0.989841
	DD	0bf7d7474r			; -0.990058
	DD	0bf7d8285r			; -0.990273
	DD	0bf7d906er			; -0.990485
	DD	0bf7d9e30r			; -0.990695
	DD	0bf7dabccr			; -0.990903
	DD	0bf7db940r			; -0.991108
	DD	0bf7dc68cr			; -0.991311
	DD	0bf7dd3b2r			; -0.991511
	DD	0bf7de0b1r			; -0.99171
	DD	0bf7ded88r			; -0.991906
	DD	0bf7dfa38r			; -0.992099
	DD	0bf7e06c2r			; -0.992291
	DD	0bf7e1324r			; -0.99248
	DD	0bf7e1f5er			; -0.992666
	DD	0bf7e2b72r			; -0.99285
	DD	0bf7e375er			; -0.993032
	DD	0bf7e4323r			; -0.993212
	DD	0bf7e4ec1r			; -0.993389
	DD	0bf7e5a38r			; -0.993564
	DD	0bf7e6588r			; -0.993737
	DD	0bf7e70b0r			; -0.993907
	DD	0bf7e7bb1r			; -0.994075
	DD	0bf7e868br			; -0.99424
	DD	0bf7e913dr			; -0.994404
	DD	0bf7e9bc9r			; -0.994565
	DD	0bf7ea62dr			; -0.994723
	DD	0bf7eb069r			; -0.994879
	DD	0bf7eba7fr			; -0.995033
	DD	0bf7ec46dr			; -0.995185
	DD	0bf7ece34r			; -0.995334
	DD	0bf7ed7d4r			; -0.995481
	DD	0bf7ee14cr			; -0.995625
	DD	0bf7eea9dr			; -0.995767
	DD	0bf7ef3c7r			; -0.995907
	DD	0bf7efcc9r			; -0.996045
	DD	0bf7f05a4r			; -0.99618
	DD	0bf7f0e58r			; -0.996313
	DD	0bf7f16e4r			; -0.996443
	DD	0bf7f1f49r			; -0.996571
	DD	0bf7f2787r			; -0.996697
	DD	0bf7f2f9dr			; -0.99682
	DD	0bf7f378cr			; -0.996941
	DD	0bf7f3f54r			; -0.99706
	DD	0bf7f46f4r			; -0.997176
	DD	0bf7f4e6dr			; -0.99729
	DD	0bf7f55bfr			; -0.997402
	DD	0bf7f5ce9r			; -0.997511
	DD	0bf7f63ecr			; -0.997618
	DD	0bf7f6ac7r			; -0.997723
	DD	0bf7f717br			; -0.997825
	DD	0bf7f7808r			; -0.997925
	DD	0bf7f7e6dr			; -0.998023
	DD	0bf7f84abr			; -0.998118
	DD	0bf7f8ac2r			; -0.998211
	DD	0bf7f90b1r			; -0.998302
	DD	0bf7f9678r			; -0.99839
	DD	0bf7f9c18r			; -0.998476
	DD	0bf7fa191r			; -0.998559
	DD	0bf7fa6e3r			; -0.99864
	DD	0bf7fac0dr			; -0.998719
	DD	0bf7fb10fr			; -0.998795
	DD	0bf7fb5ear			; -0.99887
	DD	0bf7fba9er			; -0.998941
	DD	0bf7fbf2ar			; -0.999011
	DD	0bf7fc38fr			; -0.999078
	DD	0bf7fc7ccr			; -0.999142
	DD	0bf7fcbe2r			; -0.999205
	DD	0bf7fcfd1r			; -0.999265
	DD	0bf7fd397r			; -0.999322
	DD	0bf7fd737r			; -0.999378
	DD	0bf7fdaafr			; -0.999431
	DD	0bf7fde00r			; -0.999481
	DD	0bf7fe129r			; -0.999529
	DD	0bf7fe42br			; -0.999575
	DD	0bf7fe705r			; -0.999619
	DD	0bf7fe9b8r			; -0.99966
	DD	0bf7fec43r			; -0.999699
	DD	0bf7feea7r			; -0.999735
	DD	0bf7ff0e3r			; -0.999769
	DD	0bf7ff2f8r			; -0.999801
	DD	0bf7ff4e6r			; -0.999831
	DD	0bf7ff6acr			; -0.999858
	DD	0bf7ff84ar			; -0.999882
	DD	0bf7ff9c1r			; -0.999905
	DD	0bf7ffb11r			; -0.999925
	DD	0bf7ffc39r			; -0.999942
	DD	0bf7ffd39r			; -0.999958
	DD	0bf7ffe13r			; -0.999971
	DD	0bf7ffec4r			; -0.999981
	DD	0bf7fff4er			; -0.999989
	DD	0bf7fffb1r			; -0.999995
	DD	0bf7fffecr			; -0.999999
	DD	0bf800000r			; -1
	DD	0bf7fffecr			; -0.999999
	DD	0bf7fffb1r			; -0.999995
	DD	0bf7fff4er			; -0.999989
	DD	0bf7ffec4r			; -0.999981
	DD	0bf7ffe13r			; -0.999971
	DD	0bf7ffd39r			; -0.999958
	DD	0bf7ffc39r			; -0.999942
	DD	0bf7ffb11r			; -0.999925
	DD	0bf7ff9c1r			; -0.999905
	DD	0bf7ff84ar			; -0.999882
	DD	0bf7ff6acr			; -0.999858
	DD	0bf7ff4e6r			; -0.999831
	DD	0bf7ff2f8r			; -0.999801
	DD	0bf7ff0e3r			; -0.999769
	DD	0bf7feea7r			; -0.999735
	DD	0bf7fec43r			; -0.999699
	DD	0bf7fe9b8r			; -0.99966
	DD	0bf7fe705r			; -0.999619
	DD	0bf7fe42br			; -0.999575
	DD	0bf7fe129r			; -0.999529
	DD	0bf7fde00r			; -0.999481
	DD	0bf7fdaafr			; -0.999431
	DD	0bf7fd737r			; -0.999378
	DD	0bf7fd397r			; -0.999322
	DD	0bf7fcfd1r			; -0.999265
	DD	0bf7fcbe2r			; -0.999205
	DD	0bf7fc7ccr			; -0.999142
	DD	0bf7fc38fr			; -0.999078
	DD	0bf7fbf2ar			; -0.999011
	DD	0bf7fba9er			; -0.998941
	DD	0bf7fb5ear			; -0.99887
	DD	0bf7fb10fr			; -0.998795
	DD	0bf7fac0dr			; -0.998719
	DD	0bf7fa6e3r			; -0.99864
	DD	0bf7fa191r			; -0.998559
	DD	0bf7f9c18r			; -0.998476
	DD	0bf7f9678r			; -0.99839
	DD	0bf7f90b1r			; -0.998302
	DD	0bf7f8ac2r			; -0.998211
	DD	0bf7f84abr			; -0.998118
	DD	0bf7f7e6dr			; -0.998023
	DD	0bf7f7808r			; -0.997925
	DD	0bf7f717br			; -0.997825
	DD	0bf7f6ac7r			; -0.997723
	DD	0bf7f63ecr			; -0.997618
	DD	0bf7f5ce9r			; -0.997511
	DD	0bf7f55bfr			; -0.997402
	DD	0bf7f4e6dr			; -0.99729
	DD	0bf7f46f4r			; -0.997176
	DD	0bf7f3f54r			; -0.99706
	DD	0bf7f378cr			; -0.996941
	DD	0bf7f2f9dr			; -0.99682
	DD	0bf7f2787r			; -0.996697
	DD	0bf7f1f49r			; -0.996571
	DD	0bf7f16e4r			; -0.996443
	DD	0bf7f0e58r			; -0.996313
	DD	0bf7f05a4r			; -0.99618
	DD	0bf7efcc9r			; -0.996045
	DD	0bf7ef3c7r			; -0.995907
	DD	0bf7eea9dr			; -0.995767
	DD	0bf7ee14cr			; -0.995625
	DD	0bf7ed7d4r			; -0.995481
	DD	0bf7ece34r			; -0.995334
	DD	0bf7ec46dr			; -0.995185
	DD	0bf7eba7fr			; -0.995033
	DD	0bf7eb069r			; -0.994879
	DD	0bf7ea62dr			; -0.994723
	DD	0bf7e9bc9r			; -0.994565
	DD	0bf7e913dr			; -0.994404
	DD	0bf7e868br			; -0.99424
	DD	0bf7e7bb1r			; -0.994075
	DD	0bf7e70b0r			; -0.993907
	DD	0bf7e6588r			; -0.993737
	DD	0bf7e5a38r			; -0.993564
	DD	0bf7e4ec1r			; -0.993389
	DD	0bf7e4323r			; -0.993212
	DD	0bf7e375er			; -0.993032
	DD	0bf7e2b72r			; -0.99285
	DD	0bf7e1f5er			; -0.992666
	DD	0bf7e1324r			; -0.99248
	DD	0bf7e06c2r			; -0.992291
	DD	0bf7dfa38r			; -0.992099
	DD	0bf7ded88r			; -0.991906
	DD	0bf7de0b1r			; -0.99171
	DD	0bf7dd3b2r			; -0.991511
	DD	0bf7dc68cr			; -0.991311
	DD	0bf7db940r			; -0.991108
	DD	0bf7dabccr			; -0.990903
	DD	0bf7d9e30r			; -0.990695
	DD	0bf7d906er			; -0.990485
	DD	0bf7d8285r			; -0.990273
	DD	0bf7d7474r			; -0.990058
	DD	0bf7d663dr			; -0.989841
	DD	0bf7d57der			; -0.989622
	DD	0bf7d4959r			; -0.9894
	DD	0bf7d3aacr			; -0.989177
	DD	0bf7d2bd8r			; -0.98895
	DD	0bf7d1cddr			; -0.988722
	DD	0bf7d0dbcr			; -0.988491
	DD	0bf7cfe73r			; -0.988258
	DD	0bf7cef03r			; -0.988022
	DD	0bf7cdf6cr			; -0.987784
	DD	0bf7ccfaer			; -0.987544
	DD	0bf7cbfc9r			; -0.987301
	DD	0bf7cafbdr			; -0.987057
	DD	0bf7c9f8ar			; -0.986809
	DD	0bf7c8f31r			; -0.98656
	DD	0bf7c7eb0r			; -0.986308
	DD	0bf7c6e08r			; -0.986054
	DD	0bf7c5d3ar			; -0.985798
	DD	0bf7c4c44r			; -0.985539
	DD	0bf7c3b28r			; -0.985278
	DD	0bf7c29e5r			; -0.985014
	DD	0bf7c187ar			; -0.984748
	DD	0bf7c06e9r			; -0.98448
	DD	0bf7bf531r			; -0.98421
	DD	0bf7be353r			; -0.983937
	DD	0bf7bd14dr			; -0.983662
	DD	0bf7bbf20r			; -0.983385
	DD	0bf7baccdr			; -0.983105
	DD	0bf7b9a53r			; -0.982824
	DD	0bf7b87b2r			; -0.982539
	DD	0bf7b74ear			; -0.982253
	DD	0bf7b61fcr			; -0.981964
	DD	0bf7b4ee7r			; -0.981673
	DD	0bf7b3babr			; -0.981379
	DD	0bf7b2848r			; -0.981083
	DD	0bf7b14ber			; -0.980785
	DD	0bf7b010er			; -0.980485
	DD	0bf7aed37r			; -0.980182
	DD	0bf7ad93ar			; -0.979877
	DD	0bf7ac516r			; -0.97957
	DD	0bf7ab0cbr			; -0.97926
	DD	0bf7a9c59r			; -0.978948
	DD	0bf7a87c1r			; -0.978634
	DD	0bf7a7302r			; -0.978317
	DD	0bf7a5e1cr			; -0.977998
	DD	0bf7a4910r			; -0.977677
	DD	0bf7a33ddr			; -0.977354
	DD	0bf7a1e84r			; -0.977028
	DD	0bf7a0904r			; -0.9767
	DD	0bf79f35er			; -0.97637
	DD	0bf79dd91r			; -0.976037
	DD	0bf79c79dr			; -0.975702
	DD	0bf79b183r			; -0.975365
	DD	0bf799b43r			; -0.975025
	DD	0bf7984dcr			; -0.974684
	DD	0bf796e4er			; -0.974339
	DD	0bf79579ar			; -0.973993
	DD	0bf7940c0r			; -0.973644
	DD	0bf7929bfr			; -0.973293
	DD	0bf791298r			; -0.97294
	DD	0bf78fb4ar			; -0.972584
	DD	0bf78e3d6r			; -0.972227
	DD	0bf78cc3br			; -0.971866
	DD	0bf78b47br			; -0.971504
	DD	0bf789c93r			; -0.971139
	DD	0bf788486r			; -0.970772
	DD	0bf786c52r			; -0.970403
	DD	0bf7853f8r			; -0.970031
	DD	0bf783b77r			; -0.969657
	DD	0bf7822d1r			; -0.969281
	DD	0bf780a04r			; -0.968903
	DD	0bf77f110r			; -0.968522
	DD	0bf77d7f7r			; -0.968139
	DD	0bf77beb7r			; -0.967754
	DD	0bf77a551r			; -0.967366
	DD	0bf778bc5r			; -0.966976
	DD	0bf777213r			; -0.966584
	DD	0bf77583ar			; -0.96619
	DD	0bf773e3cr			; -0.965793
	DD	0bf772417r			; -0.965394
	DD	0bf7709ccr			; -0.964993
	DD	0bf76ef5br			; -0.96459
	DD	0bf76d4c4r			; -0.964184
	DD	0bf76ba07r			; -0.963776
	DD	0bf769f24r			; -0.963366
	DD	0bf76841br			; -0.962953
	DD	0bf7668ecr			; -0.962538
	DD	0bf764d97r			; -0.962121
	DD	0bf76321br			; -0.961702
	DD	0bf76167ar			; -0.96128
	DD	0bf75fab3r			; -0.960857
	DD	0bf75dec6r			; -0.960431
	DD	0bf75c2b3r			; -0.960002
	DD	0bf75a67br			; -0.959572
	DD	0bf758a1cr			; -0.959139
	DD	0bf756d97r			; -0.958703
	DD	0bf7550edr			; -0.958266
	DD	0bf75341dr			; -0.957826
	DD	0bf751727r			; -0.957385
	DD	0bf74fa0br			; -0.95694
	DD	0bf74dcc9r			; -0.956494
	DD	0bf74bf62r			; -0.956045
	DD	0bf74a1d5r			; -0.955594
	DD	0bf748422r			; -0.955141
	DD	0bf746649r			; -0.954686
	DD	0bf74484br			; -0.954228
	DD	0bf742a27r			; -0.953768
	DD	0bf740bddr			; -0.953306
	DD	0bf73ed6er			; -0.952842
	DD	0bf73ced9r			; -0.952375
	DD	0bf73b01fr			; -0.951906
	DD	0bf73913fr			; -0.951435
	DD	0bf737239r			; -0.950962
	DD	0bf73530er			; -0.950486
	DD	0bf7333ber			; -0.950008
	DD	0bf731447r			; -0.949528
	DD	0bf72f4acr			; -0.949046
	DD	0bf72d4ebr			; -0.948561
	DD	0bf72b504r			; -0.948075
	DD	0bf7294f8r			; -0.947586
	DD	0bf7274c7r			; -0.947094
	DD	0bf725470r			; -0.946601
	DD	0bf7233f4r			; -0.946105
	DD	0bf721352r			; -0.945607
	DD	0bf71f28cr			; -0.945107
	DD	0bf71d19fr			; -0.944605
	DD	0bf71b08er			; -0.9441
	DD	0bf718f57r			; -0.943593
	DD	0bf716dfbr			; -0.943084
	DD	0bf714c7ar			; -0.942573
	DD	0bf712ad4r			; -0.94206
	DD	0bf710908r			; -0.941544
	DD	0bf70e717r			; -0.941026
	DD	0bf70c501r			; -0.940506
	DD	0bf70a2c6r			; -0.939984
	DD	0bf708066r			; -0.939459
	DD	0bf705de1r			; -0.938932
	DD	0bf703b37r			; -0.938404
	DD	0bf701867r			; -0.937872
	DD	0bf6ff573r			; -0.937339
	DD	0bf6fd25ar			; -0.936803
	DD	0bf6faf1br			; -0.936266
	DD	0bf6f8bb8r			; -0.935726
	DD	0bf6f6830r			; -0.935184
	DD	0bf6f4483r			; -0.934639
	DD	0bf6f20b0r			; -0.934093
	DD	0bf6efcbar			; -0.933544
	DD	0bf6ed89er			; -0.932993
	DD	0bf6eb45dr			; -0.93244
	DD	0bf6e8ff8r			; -0.931884
	DD	0bf6e6b6dr			; -0.931327
	DD	0bf6e46ber			; -0.930767
	DD	0bf6e21ebr			; -0.930205
	DD	0bf6dfcf2r			; -0.929641
	DD	0bf6dd7d5r			; -0.929075
	DD	0bf6db293r			; -0.928506
	DD	0bf6d8d2dr			; -0.927935
	DD	0bf6d67a1r			; -0.927363
	DD	0bf6d41f2r			; -0.926787
	DD	0bf6d1c1dr			; -0.92621
	DD	0bf6cf624r			; -0.925631
	DD	0bf6cd007r			; -0.925049
	DD	0bf6ca9c5r			; -0.924465
	DD	0bf6c835er			; -0.92388
	DD	0bf6c5cd4r			; -0.923291
	DD	0bf6c3624r			; -0.922701
	DD	0bf6c0f50r			; -0.922109
	DD	0bf6be858r			; -0.921514
	DD	0bf6bc13br			; -0.920917
	DD	0bf6b99fbr			; -0.920318
	DD	0bf6b7295r			; -0.919717
	DD	0bf6b4b0cr			; -0.919114
	DD	0bf6b235er			; -0.918508
	DD	0bf6afb8cr			; -0.917901
	DD	0bf6ad395r			; -0.917291
	DD	0bf6aab7br			; -0.916679
	DD	0bf6a833cr			; -0.916065
	DD	0bf6a5ad9r			; -0.915449
	DD	0bf6a3252r			; -0.91483
	DD	0bf6a09a7r			; -0.91421
	DD	0bf69e0d7r			; -0.913587
	DD	0bf69b7e4r			; -0.912962
	DD	0bf698eccr			; -0.912335
	DD	0bf696591r			; -0.911706
	DD	0bf693c32r			; -0.911075
	DD	0bf6912aer			; -0.910441
	DD	0bf68e907r			; -0.909806
	DD	0bf68bf3cr			; -0.909168
	DD	0bf68954cr			; -0.908528
	DD	0bf686b39r			; -0.907886
	DD	0bf684103r			; -0.907242
	DD	0bf6816a8r			; -0.906596
	DD	0bf67ec29r			; -0.905947
	DD	0bf67c187r			; -0.905297
	DD	0bf6796c1r			; -0.904644
	DD	0bf676bd8r			; -0.903989
	DD	0bf6740car			; -0.903332
	DD	0bf671599r			; -0.902673
	DD	0bf66ea45r			; -0.902012
	DD	0bf66beccr			; -0.901349
	DD	0bf669330r			; -0.900683
	DD	0bf666771r			; -0.900016
	DD	0bf663b8er			; -0.899346
	DD	0bf660f88r			; -0.898674
	DD	0bf65e35er			; -0.898001
	DD	0bf65b710r			; -0.897325
	DD	0bf658aa0r			; -0.896646
	DD	0bf655e0br			; -0.895966
	DD	0bf653154r			; -0.895284
	DD	0bf650479r			; -0.894599
	DD	0bf64d77br			; -0.893913
	DD	0bf64aa59r			; -0.893224
	DD	0bf647d14r			; -0.892534
	DD	0bf644facr			; -0.891841
	DD	0bf642221r			; -0.891146
	DD	0bf63f473r			; -0.890449
	DD	0bf63c6a1r			; -0.88975
	DD	0bf6398acr			; -0.889048
	DD	0bf636a95r			; -0.888345
	DD	0bf633c5ar			; -0.88764
	DD	0bf630dfcr			; -0.886932
	DD	0bf62df7br			; -0.886223
	DD	0bf62b0d7r			; -0.885511
	DD	0bf628210r			; -0.884797
	DD	0bf625326r			; -0.884081
	DD	0bf62241ar			; -0.883363
	DD	0bf61f4ear			; -0.882643
	DD	0bf61c598r			; -0.881921
	DD	0bf619622r			; -0.881197
	DD	0bf61668ar			; -0.880471
	DD	0bf6136d0r			; -0.879743
	DD	0bf6106f2r			; -0.879012
	DD	0bf60d6f2r			; -0.87828
	DD	0bf60a6cfr			; -0.877545
	DD	0bf607689r			; -0.876809
	DD	0bf604621r			; -0.87607
	DD	0bf601596r			; -0.875329
	DD	0bf5fe4e9r			; -0.874587
	DD	0bf5fb419r			; -0.873842
	DD	0bf5f8327r			; -0.873095
	DD	0bf5f5212r			; -0.872346
	DD	0bf5f20dbr			; -0.871595
	DD	0bf5eef81r			; -0.870842
	DD	0bf5ebe05r			; -0.870087
	DD	0bf5e8c67r			; -0.86933
	DD	0bf5e5aa6r			; -0.868571
	DD	0bf5e28c3r			; -0.867809
	DD	0bf5df6ber			; -0.867046
	DD	0bf5dc497r			; -0.866281
	DD	0bf5d924dr			; -0.865514
	DD	0bf5d5fe1r			; -0.864744
	DD	0bf5d2d53r			; -0.863973
	DD	0bf5cfaa3r			; -0.863199
	DD	0bf5cc7d1r			; -0.862424
	DD	0bf5c94ddr			; -0.861646
	DD	0bf5c61c7r			; -0.860867
	DD	0bf5c2e8er			; -0.860085
	DD	0bf5bfb34r			; -0.859302
	DD	0bf5bc7b8r			; -0.858516
	DD	0bf5b941ar			; -0.857729
	DD	0bf5b605ar			; -0.856939
	DD	0bf5b2c79r			; -0.856147
	DD	0bf5af875r			; -0.855354
	DD	0bf5ac450r			; -0.854558
	DD	0bf5a9009r			; -0.85376
	DD	0bf5a5ba0r			; -0.852961
	DD	0bf5a2716r			; -0.852159
	DD	0bf59f26ar			; -0.851355
	DD	0bf59bd9cr			; -0.850549
	DD	0bf5988adr			; -0.849742
	DD	0bf59539cr			; -0.848932
	DD	0bf591e6ar			; -0.84812
	DD	0bf58e916r			; -0.847307
	DD	0bf58b3a1r			; -0.846491
	DD	0bf587e0br			; -0.845673
	DD	0bf584853r			; -0.844854
	DD	0bf581279r			; -0.844032
	DD	0bf57dc7fr			; -0.843208
	DD	0bf57a663r			; -0.842383
	DD	0bf577026r			; -0.841555
	DD	0bf5739c7r			; -0.840725
	DD	0bf570348r			; -0.839894
	DD	0bf56cca7r			; -0.83906
	DD	0bf5695e5r			; -0.838225
	DD	0bf565f02r			; -0.837387
	DD	0bf5627fer			; -0.836548
	DD	0bf55f0d9r			; -0.835706
	DD	0bf55b993r			; -0.834863
	DD	0bf55822cr			; -0.834018
	DD	0bf554aa4r			; -0.83317
	DD	0bf5512fbr			; -0.832321
	DD	0bf54db31r			; -0.83147
	DD	0bf54a347r			; -0.830616
	DD	0bf546b3br			; -0.829761
	DD	0bf54330fr			; -0.828904
	DD	0bf53fac3r			; -0.828045
	DD	0bf53c255r			; -0.827184
	DD	0bf5389c7r			; -0.826321
	DD	0bf535118r			; -0.825456
	DD	0bf531849r			; -0.824589
	DD	0bf52df59r			; -0.823721
	DD	0bf52a649r			; -0.82285
	DD	0bf526d18r			; -0.821977
	DD	0bf5233c6r			; -0.821102
	DD	0bf51fa54r			; -0.820226
	DD	0bf51c0c2r			; -0.819348
	DD	0bf518710r			; -0.818467
	DD	0bf514d3dr			; -0.817585
	DD	0bf51134ar			; -0.816701
	DD	0bf50d937r			; -0.815814
	DD	0bf509f03r			; -0.814926
	DD	0bf5064afr			; -0.814036
	DD	0bf502a3br			; -0.813144
	DD	0bf4fefa8r			; -0.812251
	DD	0bf4fb4f4r			; -0.811355
	DD	0bf4f7a1fr			; -0.810457
	DD	0bf4f3f2br			; -0.809558
	DD	0bf4f0417r			; -0.808656
	DD	0bf4ec8e4r			; -0.807753
	DD	0bf4e8d90r			; -0.806848
	DD	0bf4e521cr			; -0.80594
	DD	0bf4e1689r			; -0.805031
	DD	0bf4ddad5r			; -0.80412
	DD	0bf4d9f02r			; -0.803208
	DD	0bf4d6310r			; -0.802293
	DD	0bf4d26fdr			; -0.801376
	DD	0bf4ceacbr			; -0.800458
	DD	0bf4cae79r			; -0.799537
	DD	0bf4c7208r			; -0.798615
	DD	0bf4c3578r			; -0.797691
	DD	0bf4bf8c7r			; -0.796765
	DD	0bf4bbbf8r			; -0.795837
	DD	0bf4b7f09r			; -0.794907
	DD	0bf4b41far			; -0.793975
	DD	0bf4b04ccr			; -0.793042
	DD	0bf4ac77fr			; -0.792107
	DD	0bf4a8a13r			; -0.791169
	DD	0bf4a4c87r			; -0.79023
	DD	0bf4a0edcr			; -0.789289
	DD	0bf49d112r			; -0.788346
	DD	0bf499329r			; -0.787402
	DD	0bf495521r			; -0.786455
	DD	0bf4916far			; -0.785507
	DD	0bf48d8b3r			; -0.784557
	DD	0bf489a4er			; -0.783605
	DD	0bf485bcar			; -0.782651
	DD	0bf481d27r			; -0.781695
	DD	0bf47de65r			; -0.780737
	DD	0bf479f84r			; -0.779778
	DD	0bf476085r			; -0.778817
	DD	0bf472167r			; -0.777853
	DD	0bf46e22ar			; -0.776888
	DD	0bf46a2cer			; -0.775922
	DD	0bf466354r			; -0.774953
	DD	0bf4623bbr			; -0.773983
	DD	0bf45e403r			; -0.77301
	DD	0bf45a42dr			; -0.772036
	DD	0bf456439r			; -0.771061
	DD	0bf452426r			; -0.770083
	DD	0bf44e3f5r			; -0.769103
	DD	0bf44a3a5r			; -0.768122
	DD	0bf446337r			; -0.767139
	DD	0bf4422abr			; -0.766154
	DD	0bf43e200r			; -0.765167
	DD	0bf43a138r			; -0.764179
	DD	0bf436051r			; -0.763188
	DD	0bf431f4cr			; -0.762196
	DD	0bf42de29r			; -0.761202
	DD	0bf429ce8r			; -0.760207
	DD	0bf425b89r			; -0.759209
	DD	0bf421a0br			; -0.75821
	DD	0bf41d870r			; -0.757209
	DD	0bf4196b7r			; -0.756206
	DD	0bf4154e1r			; -0.755201
	DD	0bf4112ecr			; -0.754195
	DD	0bf40d0dar			; -0.753187
	DD	0bf408ea9r			; -0.752177
	DD	0bf404c5cr			; -0.751165
	DD	0bf4009f0r			; -0.750152
	DD	0bf3fc767r			; -0.749136
	DD	0bf3f84c0r			; -0.748119
	DD	0bf3f41fcr			; -0.747101
	DD	0bf3eff1br			; -0.74608
	DD	0bf3ebc1br			; -0.745058
	DD	0bf3e78ffr			; -0.744034
	DD	0bf3e35c5r			; -0.743008
	DD	0bf3df26er			; -0.74198
	DD	0bf3daef9r			; -0.740951
	DD	0bf3d6b67r			; -0.73992
	DD	0bf3d27b8r			; -0.738887
	DD	0bf3ce3ecr			; -0.737853
	DD	0bf3ca003r			; -0.736817
	DD	0bf3c5bfcr			; -0.735779
	DD	0bf3c17d9r			; -0.734739
	DD	0bf3bd398r			; -0.733697
	DD	0bf3b8f3br			; -0.732654
	DD	0bf3b4ac1r			; -0.731609
	DD	0bf3b0629r			; -0.730563
	DD	0bf3ac175r			; -0.729514
	DD	0bf3a7ca4r			; -0.728464
	DD	0bf3a37b7r			; -0.727413
	DD	0bf39f2acr			; -0.726359
	DD	0bf39ad85r			; -0.725304
	DD	0bf396842r			; -0.724247
	DD	0bf3922e1r			; -0.723188
	DD	0bf38dd65r			; -0.722128
	DD	0bf3897cbr			; -0.721066
	DD	0bf385216r			; -0.720003
	DD	0bf380c43r			; -0.718937
	DD	0bf37c655r			; -0.71787
	DD	0bf37804ar			; -0.716801
	DD	0bf373a23r			; -0.715731
	DD	0bf36f3dfr			; -0.714659
	DD	0bf36ad7fr			; -0.713585
	DD	0bf366704r			; -0.712509
	DD	0bf36206cr			; -0.711432
	DD	0bf35d9b8r			; -0.710353
	DD	0bf3592e7r			; -0.709273
	DD	0bf354bfbr			; -0.708191
	DD	0bf3504f3r			; -0.707107
	DD	0bf34bdcfr			; -0.706021
	DD	0bf34768fr			; -0.704934
	DD	0bf342f34r			; -0.703845
	DD	0bf33e7bcr			; -0.702755
	DD	0bf33a029r			; -0.701663
	DD	0bf33587ar			; -0.700569
	DD	0bf3310afr			; -0.699473
	DD	0bf32c8c9r			; -0.698376
	DD	0bf3280c7r			; -0.697277
	DD	0bf3238aar			; -0.696177
	DD	0bf31f071r			; -0.695075
	DD	0bf31a81dr			; -0.693971
	DD	0bf315fadr			; -0.692866
	DD	0bf311722r			; -0.691759
	DD	0bf30ce7cr			; -0.690651
	DD	0bf3085bbr			; -0.689541
	DD	0bf303cder			; -0.688429
	DD	0bf2ff3e6r			; -0.687315
	DD	0bf2faad3r			; -0.6862
	DD	0bf2f61a5r			; -0.685084
	DD	0bf2f185br			; -0.683965
	DD	0bf2ecef7r			; -0.682846
	DD	0bf2e8578r			; -0.681724
	DD	0bf2e3bder			; -0.680601
	DD	0bf2df229r			; -0.679476
	DD	0bf2da859r			; -0.67835
	DD	0bf2d5e6fr			; -0.677222
	DD	0bf2d1469r			; -0.676093
	DD	0bf2cca49r			; -0.674962
	DD	0bf2c800fr			; -0.673829
	DD	0bf2c35b9r			; -0.672695
	DD	0bf2beb4ar			; -0.671559
	DD	0bf2ba0bfr			; -0.670422
	DD	0bf2b561br			; -0.669283
	DD	0bf2b0b5br			; -0.668142
	DD	0bf2ac082r			; -0.667
	DD	0bf2a758er			; -0.665856
	DD	0bf2a2a80r			; -0.664711
	DD	0bf29df57r			; -0.663564
	DD	0bf299415r			; -0.662416
	DD	0bf2948b8r			; -0.661266
	DD	0bf28fd41r			; -0.660114
	DD	0bf28b1b0r			; -0.658961
	DD	0bf286605r			; -0.657807
	DD	0bf281a40r			; -0.656651
	DD	0bf27ce61r			; -0.655493
	DD	0bf278268r			; -0.654334
	DD	0bf273656r			; -0.653173
	DD	0bf26ea2ar			; -0.652011
	DD	0bf269de3r			; -0.650847
	DD	0bf265184r			; -0.649681
	DD	0bf26050ar			; -0.648514
	DD	0bf25b877r			; -0.647346
	DD	0bf256bcbr			; -0.646176
	DD	0bf251f04r			; -0.645005
	DD	0bf24d225r			; -0.643832
	DD	0bf24852cr			; -0.642657
	DD	0bf24381ar			; -0.641481
	DD	0bf23eaeer			; -0.640303
	DD	0bf239da9r			; -0.639124
	DD	0bf23504br			; -0.637944
	DD	0bf2302d3r			; -0.636762
	DD	0bf22b543r			; -0.635578
	DD	0bf226799r			; -0.634393
	DD	0bf2219d7r			; -0.633207
	DD	0bf21cbfbr			; -0.632019
	DD	0bf217e06r			; -0.630829
	DD	0bf212ff9r			; -0.629638
	DD	0bf20e1d2r			; -0.628446
	DD	0bf209393r			; -0.627252
	DD	0bf20453br			; -0.626056
	DD	0bf1ff6cbr			; -0.62486
	DD	0bf1fa841r			; -0.623661
	DD	0bf1f599fr			; -0.622461
	DD	0bf1f0ae5r			; -0.62126
	DD	0bf1ebc12r			; -0.620057
	DD	0bf1e6d26r			; -0.618853
	DD	0bf1e1e22r			; -0.617647
	DD	0bf1dcf06r			; -0.61644
	DD	0bf1d7fd1r			; -0.615232
	DD	0bf1d3084r			; -0.614022
	DD	0bf1ce11fr			; -0.61281
	DD	0bf1c91a2r			; -0.611597
	DD	0bf1c420cr			; -0.610383
	DD	0bf1bf25fr			; -0.609167
	DD	0bf1ba299r			; -0.60795
	DD	0bf1b52bbr			; -0.606731
	DD	0bf1b02c6r			; -0.605511
	DD	0bf1ab2b8r			; -0.60429
	DD	0bf1a6293r			; -0.603067
	DD	0bf1a1255r			; -0.601842
	DD	0bf19c200r			; -0.600616
	DD	0bf197194r			; -0.599389
	DD	0bf19210fr			; -0.598161
	DD	0bf18d073r			; -0.596931
	DD	0bf187fc0r			; -0.595699
	DD	0bf182ef5r			; -0.594467
	DD	0bf17de12r			; -0.593232
	DD	0bf178d18r			; -0.591997
	DD	0bf173c07r			; -0.59076
	DD	0bf16eader			; -0.589521
	DD	0bf16999fr			; -0.588282
	DD	0bf164847r			; -0.58704
	DD	0bf15f6d9r			; -0.585798
	DD	0bf15a554r			; -0.584554
	DD	0bf1553b7r			; -0.583309
	DD	0bf150204r			; -0.582062
	DD	0bf14b039r			; -0.580814
	DD	0bf145e58r			; -0.579565
	DD	0bf140c5fr			; -0.578314
	DD	0bf13ba50r			; -0.577062
	DD	0bf13682ar			; -0.575808
	DD	0bf1315eer			; -0.574553
	DD	0bf12c39ar			; -0.573297
	DD	0bf127130r			; -0.57204
	DD	0bf121eb0r			; -0.570781
	DD	0bf11cc19r			; -0.569521
	DD	0bf11796br			; -0.568259
	DD	0bf1126a7r			; -0.566996
	DD	0bf10d3cdr			; -0.565732
	DD	0bf1080dcr			; -0.564466
	DD	0bf102dd5r			; -0.563199
	DD	0bf0fdab8r			; -0.561931
	DD	0bf0f8784r			; -0.560662
	DD	0bf0f343br			; -0.559391
	DD	0bf0ee0dbr			; -0.558119
	DD	0bf0e8d65r			; -0.556845
	DD	0bf0e39dar			; -0.55557
	DD	0bf0de638r			; -0.554294
	DD	0bf0d9281r			; -0.553017
	DD	0bf0d3eb3r			; -0.551738
	DD	0bf0cead0r			; -0.550458
	DD	0bf0c96d7r			; -0.549177
	DD	0bf0c42c9r			; -0.547894
	DD	0bf0beea5r			; -0.54661
	DD	0bf0b9a6br			; -0.545325
	DD	0bf0b461cr			; -0.544039
	DD	0bf0af1b7r			; -0.542751
	DD	0bf0a9d3dr			; -0.541462
	DD	0bf0a48adr			; -0.540171
	DD	0bf09f409r			; -0.53888
	DD	0bf099f4er			; -0.537587
	DD	0bf094a7fr			; -0.536293
	DD	0bf08f59br			; -0.534998
	DD	0bf08a0a1r			; -0.533701
	DD	0bf084b92r			; -0.532403
	DD	0bf07f66fr			; -0.531104
	DD	0bf07a136r			; -0.529804
	DD	0bf074be8r			; -0.528502
	DD	0bf06f686r			; -0.527199
	DD	0bf06a10er			; -0.525895
	DD	0bf064b82r			; -0.52459
	DD	0bf05f5e2r			; -0.523283
	DD	0bf05a02cr			; -0.521975
	DD	0bf054a62r			; -0.520666
	DD	0bf04f484r			; -0.519356
	DD	0bf049e91r			; -0.518045
	DD	0bf044889r			; -0.516732
	DD	0bf03f26dr			; -0.515418
	DD	0bf039c3dr			; -0.514103
	DD	0bf0345f8r			; -0.512786
	DD	0bf02ef9fr			; -0.511469
	DD	0bf029932r			; -0.51015
	DD	0bf0242b1r			; -0.50883
	DD	0bf01ec1cr			; -0.507509
	DD	0bf019573r			; -0.506187
	DD	0bf013eb5r			; -0.504863
	DD	0bf00e7e4r			; -0.503538
	DD	0bf0090ffr			; -0.502212
	DD	0bf003a06r			; -0.500885
	DD	0beffc5f3r			; -0.499557
	DD	0beff17b2r			; -0.498228
	DD	0befe694ar			; -0.496897
	DD	0befdbabbr			; -0.495565
	DD	0befd0c04r			; -0.494232
	DD	0befc5d27r			; -0.492898
	DD	0befbae22r			; -0.491563
	DD	0befafef7r			; -0.490226
	DD	0befa4fa5r			; -0.488889
	DD	0bef9a02dr			; -0.48755
	DD	0bef8f08er			; -0.48621
	DD	0bef840c8r			; -0.484869
	DD	0bef790dcr			; -0.483527
	DD	0bef6e0cbr			; -0.482184
	DD	0bef63093r			; -0.480839
	DD	0bef58035r			; -0.479494
	DD	0bef4cfb1r			; -0.478147
	DD	0bef41f07r			; -0.476799
	DD	0bef36e38r			; -0.47545
	DD	0bef2bd43r			; -0.4741
	DD	0bef20c29r			; -0.472749
	DD	0bef15aear			; -0.471397
	DD	0bef0a985r			; -0.470043
	DD	0beeff7fbr			; -0.468689
	DD	0beef464cr			; -0.467333
	DD	0beee9479r			; -0.465977
	DD	0beede280r			; -0.464619
	DD	0beed3063r			; -0.46326
	DD	0beec7e21r			; -0.4619
	DD	0beebcbbbr			; -0.460539
	DD	0beeb1930r			; -0.459177
	DD	0beea6681r			; -0.457813
	DD	0bee9b3aer			; -0.456449
	DD	0bee900b7r			; -0.455084
	DD	0bee84d9cr			; -0.453717
	DD	0bee79a5dr			; -0.45235
	DD	0bee6e6fbr			; -0.450981
	DD	0bee63375r			; -0.449611
	DD	0bee57fcbr			; -0.448241
	DD	0bee4cbfer			; -0.446869
	DD	0bee4180er			; -0.445496
	DD	0bee363far			; -0.444122
	DD	0bee2afc4r			; -0.442747
	DD	0bee1fb6ar			; -0.441371
	DD	0bee146eer			; -0.439994
	DD	0bee0924fr			; -0.438616
	DD	0bedfdd8dr			; -0.437237
	DD	0bedf28a9r			; -0.435857
	DD	0bede73a2r			; -0.434476
	DD	0beddbe79r			; -0.433094
	DD	0bedd092er			; -0.431711
	DD	0bedc53c1r			; -0.430326
	DD	0bedb9e31r			; -0.428941
	DD	0bedae880r			; -0.427555
	DD	0beda32adr			; -0.426168
	DD	0bed97cb9r			; -0.42478
	DD	0bed8c6a3r			; -0.42339
	DD	0bed8106br			; -0.422
	DD	0bed75a13r			; -0.420609
	DD	0bed6a399r			; -0.419217
	DD	0bed5ecfdr			; -0.417824
	DD	0bed53641r			; -0.41643
	DD	0bed47f64r			; -0.415034
	DD	0bed3c867r			; -0.413638
	DD	0bed31148r			; -0.412241
	DD	0bed25a09r			; -0.410843
	DD	0bed1a2aar			; -0.409444
	DD	0bed0eb2ar			; -0.408044
	DD	0bed0338ar			; -0.406643
	DD	0becf7bcar			; -0.405241
	DD	0becec3ear			; -0.403838
	DD	0bece0bear			; -0.402435
	DD	0becd53car			; -0.40103
	DD	0becc9b8br			; -0.399624
	DD	0becbe32cr			; -0.398218
	DD	0becb2aaer			; -0.39681
	DD	0beca7210r			; -0.395401
	DD	0bec9b953r			; -0.393992
	DD	0bec90077r			; -0.392582
	DD	0bec8477cr			; -0.39117
	DD	0bec78e62r			; -0.389758
	DD	0bec6d529r			; -0.388345
	DD	0bec61bd2r			; -0.386931
	DD	0bec5625cr			; -0.385516
	DD	0bec4a8c8r			; -0.3841
	DD	0bec3ef15r			; -0.382683
	DD	0bec33544r			; -0.381266
	DD	0bec27b55r			; -0.379847
	DD	0bec1c148r			; -0.378428
	DD	0bec1071er			; -0.377007
	DD	0bec04cd5r			; -0.375586
	DD	0bebf926fr			; -0.374164
	DD	0bebed7ebr			; -0.372741
	DD	0bebe1d4ar			; -0.371317
	DD	0bebd628br			; -0.369892
	DD	0bebca7afr			; -0.368467
	DD	0bebbecb6r			; -0.36704
	DD	0bebb31a0r			; -0.365613
	DD	0beba766er			; -0.364185
	DD	0beb9bb1er			; -0.362756
	DD	0beb8ffb2r			; -0.361326
	DD	0beb8442ar			; -0.359895
	DD	0beb78884r			; -0.358463
	DD	0beb6ccc3r			; -0.357031
	DD	0beb610e6r			; -0.355598
	DD	0beb554ecr			; -0.354164
	DD	0beb498d6r			; -0.352729
	DD	0beb3dca5r			; -0.351293
	DD	0beb32058r			; -0.349856
	DD	0beb263efr			; -0.348419
	DD	0beb1a76br			; -0.34698
	DD	0beb0eacbr			; -0.345541
	DD	0beb02e10r			; -0.344101
	DD	0beaf713ar			; -0.342661
	DD	0beaeb449r			; -0.341219
	DD	0beadf73cr			; -0.339777
	DD	0bead3a15r			; -0.338334
	DD	0beac7cd4r			; -0.33689
	DD	0beabbf77r			; -0.335445
	DD	0beab0201r			; -0.334
	DD	0beaa446fr			; -0.332553
	DD	0bea986c4r			; -0.331106
	DD	0bea8c8fer			; -0.329658
	DD	0bea80b1fr			; -0.32821
	DD	0bea74d25r			; -0.32676
	DD	0bea68f12r			; -0.32531
	DD	0bea5d0e5r			; -0.323859
	DD	0bea5129fr			; -0.322408
	DD	0bea4543fr			; -0.320955
	DD	0bea395c5r			; -0.319502
	DD	0bea2d733r			; -0.318048
	DD	0bea21887r			; -0.316593
	DD	0bea159c2r			; -0.315138
	DD	0bea09ae5r			; -0.313682
	DD	0be9fdbeer			; -0.312225
	DD	0be9f1cdfr			; -0.310767
	DD	0be9e5db8r			; -0.309309
	DD	0be9d9e78r			; -0.30785
	DD	0be9cdf20r			; -0.30639
	DD	0be9c1fafr			; -0.304929
	DD	0be9b6027r			; -0.303468
	DD	0be9aa086r			; -0.302006
	DD	0be99e0cer			; -0.300543
	DD	0be9920fer			; -0.29908
	DD	0be986116r			; -0.297616
	DD	0be97a117r			; -0.296151
	DD	0be96e100r			; -0.294685
	DD	0be9620d2r			; -0.293219
	DD	0be95608dr			; -0.291752
	DD	0be94a031r			; -0.290285
	DD	0be93dfbfr			; -0.288816
	DD	0be931f35r			; -0.287347
	DD	0be925e94r			; -0.285878
	DD	0be919dddr			; -0.284408
	DD	0be90dd10r			; -0.282937
	DD	0be901c2cr			; -0.281465
	DD	0be8f5b32r			; -0.279993
	DD	0be8e9a22r			; -0.27852
	DD	0be8dd8fcr			; -0.277046
	DD	0be8d17c0r			; -0.275572
	DD	0be8c566er			; -0.274097
	DD	0be8b9507r			; -0.272621
	DD	0be8ad38ar			; -0.271145
	DD	0be8a11f7r			; -0.269668
	DD	0be895050r			; -0.268191
	DD	0be888e93r			; -0.266713
	DD	0be87ccc1r			; -0.265234
	DD	0be870adar			; -0.263755
	DD	0be8648dfr			; -0.262275
	DD	0be8586cer			; -0.260794
	DD	0be84c4aar			; -0.259313
	DD	0be840270r			; -0.257831
	DD	0be834022r			; -0.256349
	DD	0be827dc0r			; -0.254866
	DD	0be81bb4ar			; -0.253382
	DD	0be80f8c0r			; -0.251898
	DD	0be803622r			; -0.250413
	DD	0be7ee6e1r			; -0.248928
	DD	0be7d6156r			; -0.247442
	DD	0be7bdba4r			; -0.245955
	DD	0be7a55cbr			; -0.244468
	DD	0be78cfccr			; -0.24298
	DD	0be7749a6r			; -0.241492
	DD	0be75c35ar			; -0.240003
	DD	0be743ce8r			; -0.238514
	DD	0be72b651r			; -0.237024
	DD	0be712f94r			; -0.235533
	DD	0be6fa8b2r			; -0.234042
	DD	0be6e21abr			; -0.23255
	DD	0be6c9a7fr			; -0.231058
	DD	0be6b132fr			; -0.229565
	DD	0be698bbar			; -0.228072
	DD	0be680422r			; -0.226578
	DD	0be667c66r			; -0.225084
	DD	0be64f486r			; -0.223589
	DD	0be636c83r			; -0.222094
	DD	0be61e45cr			; -0.220598
	DD	0be605c13r			; -0.219101
	DD	0be5ed3a8r			; -0.217604
	DD	0be5d4b1ar			; -0.216107
	DD	0be5bc26ar			; -0.214609
	DD	0be5a3997r			; -0.21311
	DD	0be58b0a4r			; -0.211611
	DD	0be57278fr			; -0.210112
	DD	0be559e58r			; -0.208612
	DD	0be541501r			; -0.207111
	DD	0be528b89r			; -0.20561
	DD	0be5101f1r			; -0.204109
	DD	0be4f7838r			; -0.202607
	DD	0be4dee60r			; -0.201105
	DD	0be4c6467r			; -0.199602
	DD	0be4ada4fr			; -0.198098
	DD	0be495018r			; -0.196595
	DD	0be47c5c2r			; -0.19509
	DD	0be463b4dr			; -0.193586
	DD	0be44b0b9r			; -0.19208
	DD	0be432607r			; -0.190575
	DD	0be419b37r			; -0.189069
	DD	0be401049r			; -0.187562
	DD	0be3e853er			; -0.186055
	DD	0be3cfa15r			; -0.184548
	DD	0be3b6ecfr			; -0.18304
	DD	0be39e36cr			; -0.181532
	DD	0be3857ecr			; -0.180023
	DD	0be36cc50r			; -0.178514
	DD	0be354098r			; -0.177004
	DD	0be33b4c4r			; -0.175494
	DD	0be3228d4r			; -0.173984
	DD	0be309cc9r			; -0.172473
	DD	0be2f10a2r			; -0.170962
	DD	0be2d8461r			; -0.16945
	DD	0be2bf804r			; -0.167938
	DD	0be2a6b8dr			; -0.166426
	DD	0be28defcr			; -0.164913
	DD	0be275251r			; -0.1634
	DD	0be25c58cr			; -0.161886
	DD	0be2438adr			; -0.160372
	DD	0be22abb6r			; -0.158858
	DD	0be211ea5r			; -0.157343
	DD	0be1f917br			; -0.155828
	DD	0be1e0438r			; -0.154313
	DD	0be1c76der			; -0.152797
	DD	0be1ae96br			; -0.151281
	DD	0be195be0r			; -0.149765
	DD	0be17ce3dr			; -0.148248
	DD	0be164083r			; -0.14673
	DD	0be14b2b2r			; -0.145213
	DD	0be1324car			; -0.143695
	DD	0be1196ccr			; -0.142177
	DD	0be1008b7r			; -0.140658
	DD	0be0e7a8br			; -0.139139
	DD	0be0cec4ar			; -0.13762
	DD	0be0b5df3r			; -0.136101
	DD	0be09cf86r			; -0.134581
	DD	0be084105r			; -0.133061
	DD	0be06b26er			; -0.13154
	DD	0be0523c2r			; -0.130019
	DD	0be039502r			; -0.128498
	DD	0be02062er			; -0.126977
	DD	0be007745r			; -0.125455
	DD	0bdfdd092r			; -0.123933
	DD	0bdfab273r			; -0.122411
	DD	0bdf7942cr			; -0.120888
	DD	0bdf475c0r			; -0.119365
	DD	0bdf1572er			; -0.117842
	DD	0bdee3876r			; -0.116319
	DD	0bdeb199ar			; -0.114795
	DD	0bde7fa9ar			; -0.113271
	DD	0bde4db76r			; -0.111747
	DD	0bde1bc2er			; -0.110222
	DD	0bdde9cc4r			; -0.108697
	DD	0bddb7d37r			; -0.107172
	DD	0bdd85d89r			; -0.105647
	DD	0bdd53db9r			; -0.104122
	DD	0bdd21dc8r			; -0.102596
	DD	0bdcefdb7r			; -0.10107
	DD	0bdcbdd86r			; -0.0995436
	DD	0bdc8bd36r			; -0.0980171
	DD	0bdc59cc6r			; -0.0964904
	DD	0bdc27c39r			; -0.0949635
	DD	0bdbf5b8dr			; -0.0934363
	DD	0bdbc3ac3r			; -0.091909
	DD	0bdb919ddr			; -0.0903814
	DD	0bdb5f8dar			; -0.0888536
	DD	0bdb2d7bbr			; -0.0873255
	DD	0bdafb680r			; -0.0857973
	DD	0bdac952br			; -0.0842689
	DD	0bda973bar			; -0.0827403
	DD	0bda65230r			; -0.0812114
	DD	0bda3308cr			; -0.0796824
	DD	0bda00ecfr			; -0.0781532
	DD	0bd9cecf9r			; -0.0766239
	DD	0bd99cb0ar			; -0.0750943
	DD	0bd96a905r			; -0.0735646
	DD	0bd9386e7r			; -0.0720346
	DD	0bd9064b4r			; -0.0705046
	DD	0bd8d426ar			; -0.0689743
	DD	0bd8a200ar			; -0.0674439
	DD	0bd86fd94r			; -0.0659133
	DD	0bd83db0ar			; -0.0643826
	DD	0bd80b86cr			; -0.0628518
	DD	0bd7b2b74r			; -0.0613207
	DD	0bd74e5e9r			; -0.0597896
	DD	0bd6ea038r			; -0.0582583
	DD	0bd685a62r			; -0.0567268
	DD	0bd621469r			; -0.0551952
	DD	0bd5bce4cr			; -0.0536635
	DD	0bd55880er			; -0.0521317
	DD	0bd4f41afr			; -0.0505998
	DD	0bd48fb30r			; -0.0490677
	DD	0bd42b491r			; -0.0475355
	DD	0bd3c6dd5r			; -0.0460032
	DD	0bd3626fcr			; -0.0444708
	DD	0bd2fe007r			; -0.0429383
	DD	0bd2998f6r			; -0.0414056
	DD	0bd2351cbr			; -0.0398729
	DD	0bd1d0a88r			; -0.0383401
	DD	0bd16c32cr			; -0.0368072
	DD	0bd107bb8r			; -0.0352742
	DD	0bd0a342fr			; -0.0337412
	DD	0bd03ec90r			; -0.032208
	DD	0bcfb49bar			; -0.0306748
	DD	0bceeba2cr			; -0.0291415
	DD	0bce22a7ar			; -0.0276081
	DD	0bcd59aa6r			; -0.0260747
	DD	0bcc90ab0r			; -0.0245412
	DD	0bcbc7a9br			; -0.0230077
	DD	0bcafea69r			; -0.0214741
	DD	0bca35a1cr			; -0.0199404
	DD	0bc96c9b6r			; -0.0184067
	DD	0bc8a3938r			; -0.016873
	DD	0bc7b514br			; -0.0153392
	DD	0bc622fffr			; -0.0138054
	DD	0bc490e90r			; -0.0122715
	DD	0bc2fed02r			; -0.0107377
	DD	0bc16cb58r			; -0.00920375
	DD	0bbfb5330r			; -0.00766983
	DD	0bbc90f88r			; -0.00613588
	DD	0bb96cbc1r			; -0.00460193
	DD	0bb490fc6r			; -0.00306796
	DD	0bac90fd5r			; -0.00153398
	DD	0a553c800r			; -1.83691e-16
	DD	03ac90fd5r			; 0.00153398
	DD	03b490fc6r			; 0.00306796
	DD	03b96cbc1r			; 0.00460193
	DD	03bc90f88r			; 0.00613588
	DD	03bfb5330r			; 0.00766983
	DD	03c16cb58r			; 0.00920375
	DD	03c2fed02r			; 0.0107377
	DD	03c490e90r			; 0.0122715
	DD	03c622fffr			; 0.0138054
	DD	03c7b514br			; 0.0153392
	DD	03c8a3938r			; 0.016873
	DD	03c96c9b6r			; 0.0184067
	DD	03ca35a1cr			; 0.0199404
	DD	03cafea69r			; 0.0214741
	DD	03cbc7a9br			; 0.0230077
	DD	03cc90ab0r			; 0.0245412
	DD	03cd59aa6r			; 0.0260747
	DD	03ce22a7ar			; 0.0276081
	DD	03ceeba2cr			; 0.0291415
	DD	03cfb49bar			; 0.0306748
	DD	03d03ec90r			; 0.032208
	DD	03d0a342fr			; 0.0337412
	DD	03d107bb8r			; 0.0352742
	DD	03d16c32cr			; 0.0368072
	DD	03d1d0a88r			; 0.0383401
	DD	03d2351cbr			; 0.0398729
	DD	03d2998f6r			; 0.0414056
	DD	03d2fe007r			; 0.0429383
	DD	03d3626fcr			; 0.0444708
	DD	03d3c6dd5r			; 0.0460032
	DD	03d42b491r			; 0.0475355
	DD	03d48fb30r			; 0.0490677
	DD	03d4f41afr			; 0.0505998
	DD	03d55880er			; 0.0521317
	DD	03d5bce4cr			; 0.0536635
	DD	03d621469r			; 0.0551952
	DD	03d685a62r			; 0.0567268
	DD	03d6ea038r			; 0.0582583
	DD	03d74e5e9r			; 0.0597896
	DD	03d7b2b74r			; 0.0613207
	DD	03d80b86cr			; 0.0628518
	DD	03d83db0ar			; 0.0643826
	DD	03d86fd94r			; 0.0659133
	DD	03d8a200ar			; 0.0674439
	DD	03d8d426ar			; 0.0689743
	DD	03d9064b4r			; 0.0705046
	DD	03d9386e7r			; 0.0720346
	DD	03d96a905r			; 0.0735646
	DD	03d99cb0ar			; 0.0750943
	DD	03d9cecf9r			; 0.0766239
	DD	03da00ecfr			; 0.0781532
	DD	03da3308cr			; 0.0796824
	DD	03da65230r			; 0.0812114
	DD	03da973bar			; 0.0827403
	DD	03dac952br			; 0.0842689
	DD	03dafb680r			; 0.0857973
	DD	03db2d7bbr			; 0.0873255
	DD	03db5f8dar			; 0.0888536
	DD	03db919ddr			; 0.0903814
	DD	03dbc3ac3r			; 0.091909
	DD	03dbf5b8dr			; 0.0934363
	DD	03dc27c39r			; 0.0949635
	DD	03dc59cc6r			; 0.0964904
	DD	03dc8bd36r			; 0.0980171
	DD	03dcbdd86r			; 0.0995436
	DD	03dcefdb7r			; 0.10107
	DD	03dd21dc8r			; 0.102596
	DD	03dd53db9r			; 0.104122
	DD	03dd85d89r			; 0.105647
	DD	03ddb7d37r			; 0.107172
	DD	03dde9cc4r			; 0.108697
	DD	03de1bc2er			; 0.110222
	DD	03de4db76r			; 0.111747
	DD	03de7fa9ar			; 0.113271
	DD	03deb199ar			; 0.114795
	DD	03dee3876r			; 0.116319
	DD	03df1572er			; 0.117842
	DD	03df475c0r			; 0.119365
	DD	03df7942cr			; 0.120888
	DD	03dfab273r			; 0.122411
	DD	03dfdd092r			; 0.123933
	DD	03e007745r			; 0.125455
	DD	03e02062er			; 0.126977
	DD	03e039502r			; 0.128498
	DD	03e0523c2r			; 0.130019
	DD	03e06b26er			; 0.13154
	DD	03e084105r			; 0.133061
	DD	03e09cf86r			; 0.134581
	DD	03e0b5df3r			; 0.136101
	DD	03e0cec4ar			; 0.13762
	DD	03e0e7a8br			; 0.139139
	DD	03e1008b7r			; 0.140658
	DD	03e1196ccr			; 0.142177
	DD	03e1324car			; 0.143695
	DD	03e14b2b2r			; 0.145213
	DD	03e164083r			; 0.14673
	DD	03e17ce3dr			; 0.148248
	DD	03e195be0r			; 0.149765
	DD	03e1ae96br			; 0.151281
	DD	03e1c76der			; 0.152797
	DD	03e1e0438r			; 0.154313
	DD	03e1f917br			; 0.155828
	DD	03e211ea5r			; 0.157343
	DD	03e22abb6r			; 0.158858
	DD	03e2438adr			; 0.160372
	DD	03e25c58cr			; 0.161886
	DD	03e275251r			; 0.1634
	DD	03e28defcr			; 0.164913
	DD	03e2a6b8dr			; 0.166426
	DD	03e2bf804r			; 0.167938
	DD	03e2d8461r			; 0.16945
	DD	03e2f10a2r			; 0.170962
	DD	03e309cc9r			; 0.172473
	DD	03e3228d4r			; 0.173984
	DD	03e33b4c4r			; 0.175494
	DD	03e354098r			; 0.177004
	DD	03e36cc50r			; 0.178514
	DD	03e3857ecr			; 0.180023
	DD	03e39e36cr			; 0.181532
	DD	03e3b6ecfr			; 0.18304
	DD	03e3cfa15r			; 0.184548
	DD	03e3e853er			; 0.186055
	DD	03e401049r			; 0.187562
	DD	03e419b37r			; 0.189069
	DD	03e432607r			; 0.190575
	DD	03e44b0b9r			; 0.19208
	DD	03e463b4dr			; 0.193586
	DD	03e47c5c2r			; 0.19509
	DD	03e495018r			; 0.196595
	DD	03e4ada4fr			; 0.198098
	DD	03e4c6467r			; 0.199602
	DD	03e4dee60r			; 0.201105
	DD	03e4f7838r			; 0.202607
	DD	03e5101f1r			; 0.204109
	DD	03e528b89r			; 0.20561
	DD	03e541501r			; 0.207111
	DD	03e559e58r			; 0.208612
	DD	03e57278fr			; 0.210112
	DD	03e58b0a4r			; 0.211611
	DD	03e5a3997r			; 0.21311
	DD	03e5bc26ar			; 0.214609
	DD	03e5d4b1ar			; 0.216107
	DD	03e5ed3a8r			; 0.217604
	DD	03e605c13r			; 0.219101
	DD	03e61e45cr			; 0.220598
	DD	03e636c83r			; 0.222094
	DD	03e64f486r			; 0.223589
	DD	03e667c66r			; 0.225084
	DD	03e680422r			; 0.226578
	DD	03e698bbar			; 0.228072
	DD	03e6b132fr			; 0.229565
	DD	03e6c9a7fr			; 0.231058
	DD	03e6e21abr			; 0.23255
	DD	03e6fa8b2r			; 0.234042
	DD	03e712f94r			; 0.235533
	DD	03e72b651r			; 0.237024
	DD	03e743ce8r			; 0.238514
	DD	03e75c35ar			; 0.240003
	DD	03e7749a6r			; 0.241492
	DD	03e78cfccr			; 0.24298
	DD	03e7a55cbr			; 0.244468
	DD	03e7bdba4r			; 0.245955
	DD	03e7d6156r			; 0.247442
	DD	03e7ee6e1r			; 0.248928
	DD	03e803622r			; 0.250413
	DD	03e80f8c0r			; 0.251898
	DD	03e81bb4ar			; 0.253382
	DD	03e827dc0r			; 0.254866
	DD	03e834022r			; 0.256349
	DD	03e840270r			; 0.257831
	DD	03e84c4aar			; 0.259313
	DD	03e8586cer			; 0.260794
	DD	03e8648dfr			; 0.262275
	DD	03e870adar			; 0.263755
	DD	03e87ccc1r			; 0.265234
	DD	03e888e93r			; 0.266713
	DD	03e895050r			; 0.268191
	DD	03e8a11f7r			; 0.269668
	DD	03e8ad38ar			; 0.271145
	DD	03e8b9507r			; 0.272621
	DD	03e8c566er			; 0.274097
	DD	03e8d17c0r			; 0.275572
	DD	03e8dd8fcr			; 0.277046
	DD	03e8e9a22r			; 0.27852
	DD	03e8f5b32r			; 0.279993
	DD	03e901c2cr			; 0.281465
	DD	03e90dd10r			; 0.282937
	DD	03e919dddr			; 0.284408
	DD	03e925e94r			; 0.285878
	DD	03e931f35r			; 0.287347
	DD	03e93dfbfr			; 0.288816
	DD	03e94a031r			; 0.290285
	DD	03e95608dr			; 0.291752
	DD	03e9620d2r			; 0.293219
	DD	03e96e100r			; 0.294685
	DD	03e97a117r			; 0.296151
	DD	03e986116r			; 0.297616
	DD	03e9920fer			; 0.29908
	DD	03e99e0cer			; 0.300543
	DD	03e9aa086r			; 0.302006
	DD	03e9b6027r			; 0.303468
	DD	03e9c1fafr			; 0.304929
	DD	03e9cdf20r			; 0.30639
	DD	03e9d9e78r			; 0.30785
	DD	03e9e5db8r			; 0.309309
	DD	03e9f1cdfr			; 0.310767
	DD	03e9fdbeer			; 0.312225
	DD	03ea09ae5r			; 0.313682
	DD	03ea159c2r			; 0.315138
	DD	03ea21887r			; 0.316593
	DD	03ea2d733r			; 0.318048
	DD	03ea395c5r			; 0.319502
	DD	03ea4543fr			; 0.320955
	DD	03ea5129fr			; 0.322408
	DD	03ea5d0e5r			; 0.323859
	DD	03ea68f12r			; 0.32531
	DD	03ea74d25r			; 0.32676
	DD	03ea80b1fr			; 0.32821
	DD	03ea8c8fer			; 0.329658
	DD	03ea986c4r			; 0.331106
	DD	03eaa446fr			; 0.332553
	DD	03eab0201r			; 0.334
	DD	03eabbf77r			; 0.335445
	DD	03eac7cd4r			; 0.33689
	DD	03ead3a15r			; 0.338334
	DD	03eadf73cr			; 0.339777
	DD	03eaeb449r			; 0.341219
	DD	03eaf713ar			; 0.342661
	DD	03eb02e10r			; 0.344101
	DD	03eb0eacbr			; 0.345541
	DD	03eb1a76br			; 0.34698
	DD	03eb263efr			; 0.348419
	DD	03eb32058r			; 0.349856
	DD	03eb3dca5r			; 0.351293
	DD	03eb498d6r			; 0.352729
	DD	03eb554ecr			; 0.354164
	DD	03eb610e6r			; 0.355598
	DD	03eb6ccc3r			; 0.357031
	DD	03eb78884r			; 0.358463
	DD	03eb8442ar			; 0.359895
	DD	03eb8ffb2r			; 0.361326
	DD	03eb9bb1er			; 0.362756
	DD	03eba766er			; 0.364185
	DD	03ebb31a0r			; 0.365613
	DD	03ebbecb6r			; 0.36704
	DD	03ebca7afr			; 0.368467
	DD	03ebd628br			; 0.369892
	DD	03ebe1d4ar			; 0.371317
	DD	03ebed7ebr			; 0.372741
	DD	03ebf926fr			; 0.374164
	DD	03ec04cd5r			; 0.375586
	DD	03ec1071er			; 0.377007
	DD	03ec1c148r			; 0.378428
	DD	03ec27b55r			; 0.379847
	DD	03ec33544r			; 0.381266
	DD	03ec3ef15r			; 0.382683
	DD	03ec4a8c8r			; 0.3841
	DD	03ec5625cr			; 0.385516
	DD	03ec61bd2r			; 0.386931
	DD	03ec6d529r			; 0.388345
	DD	03ec78e62r			; 0.389758
	DD	03ec8477cr			; 0.39117
	DD	03ec90077r			; 0.392582
	DD	03ec9b953r			; 0.393992
	DD	03eca7210r			; 0.395401
	DD	03ecb2aaer			; 0.39681
	DD	03ecbe32cr			; 0.398218
	DD	03ecc9b8br			; 0.399624
	DD	03ecd53car			; 0.40103
	DD	03ece0bear			; 0.402435
	DD	03ecec3ear			; 0.403838
	DD	03ecf7bcar			; 0.405241
	DD	03ed0338ar			; 0.406643
	DD	03ed0eb2ar			; 0.408044
	DD	03ed1a2aar			; 0.409444
	DD	03ed25a09r			; 0.410843
	DD	03ed31148r			; 0.412241
	DD	03ed3c867r			; 0.413638
	DD	03ed47f64r			; 0.415034
	DD	03ed53641r			; 0.41643
	DD	03ed5ecfdr			; 0.417824
	DD	03ed6a399r			; 0.419217
	DD	03ed75a13r			; 0.420609
	DD	03ed8106br			; 0.422
	DD	03ed8c6a3r			; 0.42339
	DD	03ed97cb9r			; 0.42478
	DD	03eda32adr			; 0.426168
	DD	03edae880r			; 0.427555
	DD	03edb9e31r			; 0.428941
	DD	03edc53c1r			; 0.430326
	DD	03edd092er			; 0.431711
	DD	03eddbe79r			; 0.433094
	DD	03ede73a2r			; 0.434476
	DD	03edf28a9r			; 0.435857
	DD	03edfdd8dr			; 0.437237
	DD	03ee0924fr			; 0.438616
	DD	03ee146eer			; 0.439994
	DD	03ee1fb6ar			; 0.441371
	DD	03ee2afc4r			; 0.442747
	DD	03ee363far			; 0.444122
	DD	03ee4180er			; 0.445496
	DD	03ee4cbfer			; 0.446869
	DD	03ee57fcbr			; 0.448241
	DD	03ee63375r			; 0.449611
	DD	03ee6e6fbr			; 0.450981
	DD	03ee79a5dr			; 0.45235
	DD	03ee84d9cr			; 0.453717
	DD	03ee900b7r			; 0.455084
	DD	03ee9b3aer			; 0.456449
	DD	03eea6681r			; 0.457813
	DD	03eeb1930r			; 0.459177
	DD	03eebcbbbr			; 0.460539
	DD	03eec7e21r			; 0.4619
	DD	03eed3063r			; 0.46326
	DD	03eede280r			; 0.464619
	DD	03eee9479r			; 0.465977
	DD	03eef464cr			; 0.467333
	DD	03eeff7fbr			; 0.468689
	DD	03ef0a985r			; 0.470043
	DD	03ef15aear			; 0.471397
	DD	03ef20c29r			; 0.472749
	DD	03ef2bd43r			; 0.4741
	DD	03ef36e38r			; 0.47545
	DD	03ef41f07r			; 0.476799
	DD	03ef4cfb1r			; 0.478147
	DD	03ef58035r			; 0.479494
	DD	03ef63093r			; 0.480839
	DD	03ef6e0cbr			; 0.482184
	DD	03ef790dcr			; 0.483527
	DD	03ef840c8r			; 0.484869
	DD	03ef8f08er			; 0.48621
	DD	03ef9a02dr			; 0.48755
	DD	03efa4fa5r			; 0.488889
	DD	03efafef7r			; 0.490226
	DD	03efbae22r			; 0.491563
	DD	03efc5d27r			; 0.492898
	DD	03efd0c04r			; 0.494232
	DD	03efdbabbr			; 0.495565
	DD	03efe694ar			; 0.496897
	DD	03eff17b2r			; 0.498228
	DD	03effc5f3r			; 0.499557
	DD	03f003a06r			; 0.500885
	DD	03f0090ffr			; 0.502212
	DD	03f00e7e4r			; 0.503538
	DD	03f013eb5r			; 0.504863
	DD	03f019573r			; 0.506187
	DD	03f01ec1cr			; 0.507509
	DD	03f0242b1r			; 0.50883
	DD	03f029932r			; 0.51015
	DD	03f02ef9fr			; 0.511469
	DD	03f0345f8r			; 0.512786
	DD	03f039c3dr			; 0.514103
	DD	03f03f26dr			; 0.515418
	DD	03f044889r			; 0.516732
	DD	03f049e91r			; 0.518045
	DD	03f04f484r			; 0.519356
	DD	03f054a62r			; 0.520666
	DD	03f05a02cr			; 0.521975
	DD	03f05f5e2r			; 0.523283
	DD	03f064b82r			; 0.52459
	DD	03f06a10er			; 0.525895
	DD	03f06f686r			; 0.527199
	DD	03f074be8r			; 0.528502
	DD	03f07a136r			; 0.529804
	DD	03f07f66fr			; 0.531104
	DD	03f084b92r			; 0.532403
	DD	03f08a0a1r			; 0.533701
	DD	03f08f59br			; 0.534998
	DD	03f094a7fr			; 0.536293
	DD	03f099f4er			; 0.537587
	DD	03f09f409r			; 0.53888
	DD	03f0a48adr			; 0.540171
	DD	03f0a9d3dr			; 0.541462
	DD	03f0af1b7r			; 0.542751
	DD	03f0b461cr			; 0.544039
	DD	03f0b9a6br			; 0.545325
	DD	03f0beea5r			; 0.54661
	DD	03f0c42c9r			; 0.547894
	DD	03f0c96d7r			; 0.549177
	DD	03f0cead0r			; 0.550458
	DD	03f0d3eb3r			; 0.551738
	DD	03f0d9281r			; 0.553017
	DD	03f0de638r			; 0.554294
	DD	03f0e39dar			; 0.55557
	DD	03f0e8d65r			; 0.556845
	DD	03f0ee0dbr			; 0.558119
	DD	03f0f343br			; 0.559391
	DD	03f0f8784r			; 0.560662
	DD	03f0fdab8r			; 0.561931
	DD	03f102dd5r			; 0.563199
	DD	03f1080dcr			; 0.564466
	DD	03f10d3cdr			; 0.565732
	DD	03f1126a7r			; 0.566996
	DD	03f11796br			; 0.568259
	DD	03f11cc19r			; 0.569521
	DD	03f121eb0r			; 0.570781
	DD	03f127130r			; 0.57204
	DD	03f12c39ar			; 0.573297
	DD	03f1315eer			; 0.574553
	DD	03f13682ar			; 0.575808
	DD	03f13ba50r			; 0.577062
	DD	03f140c5fr			; 0.578314
	DD	03f145e58r			; 0.579565
	DD	03f14b039r			; 0.580814
	DD	03f150204r			; 0.582062
	DD	03f1553b7r			; 0.583309
	DD	03f15a554r			; 0.584554
	DD	03f15f6d9r			; 0.585798
	DD	03f164847r			; 0.58704
	DD	03f16999fr			; 0.588282
	DD	03f16eader			; 0.589521
	DD	03f173c07r			; 0.59076
	DD	03f178d18r			; 0.591997
	DD	03f17de12r			; 0.593232
	DD	03f182ef5r			; 0.594467
	DD	03f187fc0r			; 0.595699
	DD	03f18d073r			; 0.596931
	DD	03f19210fr			; 0.598161
	DD	03f197194r			; 0.599389
	DD	03f19c200r			; 0.600616
	DD	03f1a1255r			; 0.601842
	DD	03f1a6293r			; 0.603067
	DD	03f1ab2b8r			; 0.60429
	DD	03f1b02c6r			; 0.605511
	DD	03f1b52bbr			; 0.606731
	DD	03f1ba299r			; 0.60795
	DD	03f1bf25fr			; 0.609167
	DD	03f1c420cr			; 0.610383
	DD	03f1c91a2r			; 0.611597
	DD	03f1ce11fr			; 0.61281
	DD	03f1d3084r			; 0.614022
	DD	03f1d7fd1r			; 0.615232
	DD	03f1dcf06r			; 0.61644
	DD	03f1e1e22r			; 0.617647
	DD	03f1e6d26r			; 0.618853
	DD	03f1ebc12r			; 0.620057
	DD	03f1f0ae5r			; 0.62126
	DD	03f1f599fr			; 0.622461
	DD	03f1fa841r			; 0.623661
	DD	03f1ff6cbr			; 0.62486
	DD	03f20453br			; 0.626056
	DD	03f209393r			; 0.627252
	DD	03f20e1d2r			; 0.628446
	DD	03f212ff9r			; 0.629638
	DD	03f217e06r			; 0.630829
	DD	03f21cbfbr			; 0.632019
	DD	03f2219d7r			; 0.633207
	DD	03f226799r			; 0.634393
	DD	03f22b543r			; 0.635578
	DD	03f2302d3r			; 0.636762
	DD	03f23504br			; 0.637944
	DD	03f239da9r			; 0.639124
	DD	03f23eaeer			; 0.640303
	DD	03f24381ar			; 0.641481
	DD	03f24852cr			; 0.642657
	DD	03f24d225r			; 0.643832
	DD	03f251f04r			; 0.645005
	DD	03f256bcbr			; 0.646176
	DD	03f25b877r			; 0.647346
	DD	03f26050ar			; 0.648514
	DD	03f265184r			; 0.649681
	DD	03f269de3r			; 0.650847
	DD	03f26ea2ar			; 0.652011
	DD	03f273656r			; 0.653173
	DD	03f278268r			; 0.654334
	DD	03f27ce61r			; 0.655493
	DD	03f281a40r			; 0.656651
	DD	03f286605r			; 0.657807
	DD	03f28b1b0r			; 0.658961
	DD	03f28fd41r			; 0.660114
	DD	03f2948b8r			; 0.661266
	DD	03f299415r			; 0.662416
	DD	03f29df57r			; 0.663564
	DD	03f2a2a80r			; 0.664711
	DD	03f2a758er			; 0.665856
	DD	03f2ac082r			; 0.667
	DD	03f2b0b5br			; 0.668142
	DD	03f2b561br			; 0.669283
	DD	03f2ba0bfr			; 0.670422
	DD	03f2beb4ar			; 0.671559
	DD	03f2c35b9r			; 0.672695
	DD	03f2c800fr			; 0.673829
	DD	03f2cca49r			; 0.674962
	DD	03f2d1469r			; 0.676093
	DD	03f2d5e6fr			; 0.677222
	DD	03f2da859r			; 0.67835
	DD	03f2df229r			; 0.679476
	DD	03f2e3bder			; 0.680601
	DD	03f2e8578r			; 0.681724
	DD	03f2ecef7r			; 0.682846
	DD	03f2f185br			; 0.683965
	DD	03f2f61a5r			; 0.685084
	DD	03f2faad3r			; 0.6862
	DD	03f2ff3e6r			; 0.687315
	DD	03f303cder			; 0.688429
	DD	03f3085bbr			; 0.689541
	DD	03f30ce7cr			; 0.690651
	DD	03f311722r			; 0.691759
	DD	03f315fadr			; 0.692866
	DD	03f31a81dr			; 0.693971
	DD	03f31f071r			; 0.695075
	DD	03f3238aar			; 0.696177
	DD	03f3280c7r			; 0.697277
	DD	03f32c8c9r			; 0.698376
	DD	03f3310afr			; 0.699473
	DD	03f33587ar			; 0.700569
	DD	03f33a029r			; 0.701663
	DD	03f33e7bcr			; 0.702755
	DD	03f342f34r			; 0.703845
	DD	03f34768fr			; 0.704934
	DD	03f34bdcfr			; 0.706021
	DD	03f3504f3r			; 0.707107
	DD	03f354bfbr			; 0.708191
	DD	03f3592e7r			; 0.709273
	DD	03f35d9b8r			; 0.710353
	DD	03f36206cr			; 0.711432
	DD	03f366704r			; 0.712509
	DD	03f36ad7fr			; 0.713585
	DD	03f36f3dfr			; 0.714659
	DD	03f373a23r			; 0.715731
	DD	03f37804ar			; 0.716801
	DD	03f37c655r			; 0.71787
	DD	03f380c43r			; 0.718937
	DD	03f385216r			; 0.720003
	DD	03f3897cbr			; 0.721066
	DD	03f38dd65r			; 0.722128
	DD	03f3922e1r			; 0.723188
	DD	03f396842r			; 0.724247
	DD	03f39ad85r			; 0.725304
	DD	03f39f2acr			; 0.726359
	DD	03f3a37b7r			; 0.727413
	DD	03f3a7ca4r			; 0.728464
	DD	03f3ac175r			; 0.729514
	DD	03f3b0629r			; 0.730563
	DD	03f3b4ac1r			; 0.731609
	DD	03f3b8f3br			; 0.732654
	DD	03f3bd398r			; 0.733697
	DD	03f3c17d9r			; 0.734739
	DD	03f3c5bfcr			; 0.735779
	DD	03f3ca003r			; 0.736817
	DD	03f3ce3ecr			; 0.737853
	DD	03f3d27b8r			; 0.738887
	DD	03f3d6b67r			; 0.73992
	DD	03f3daef9r			; 0.740951
	DD	03f3df26er			; 0.74198
	DD	03f3e35c5r			; 0.743008
	DD	03f3e78ffr			; 0.744034
	DD	03f3ebc1br			; 0.745058
	DD	03f3eff1br			; 0.74608
	DD	03f3f41fcr			; 0.747101
	DD	03f3f84c0r			; 0.748119
	DD	03f3fc767r			; 0.749136
	DD	03f4009f0r			; 0.750152
	DD	03f404c5cr			; 0.751165
	DD	03f408ea9r			; 0.752177
	DD	03f40d0dar			; 0.753187
	DD	03f4112ecr			; 0.754195
	DD	03f4154e1r			; 0.755201
	DD	03f4196b7r			; 0.756206
	DD	03f41d870r			; 0.757209
	DD	03f421a0br			; 0.75821
	DD	03f425b89r			; 0.759209
	DD	03f429ce8r			; 0.760207
	DD	03f42de29r			; 0.761202
	DD	03f431f4cr			; 0.762196
	DD	03f436051r			; 0.763188
	DD	03f43a138r			; 0.764179
	DD	03f43e200r			; 0.765167
	DD	03f4422abr			; 0.766154
	DD	03f446337r			; 0.767139
	DD	03f44a3a5r			; 0.768122
	DD	03f44e3f5r			; 0.769103
	DD	03f452426r			; 0.770083
	DD	03f456439r			; 0.771061
	DD	03f45a42dr			; 0.772036
	DD	03f45e403r			; 0.77301
	DD	03f4623bbr			; 0.773983
	DD	03f466354r			; 0.774953
	DD	03f46a2cer			; 0.775922
	DD	03f46e22ar			; 0.776888
	DD	03f472167r			; 0.777853
	DD	03f476085r			; 0.778817
	DD	03f479f84r			; 0.779778
	DD	03f47de65r			; 0.780737
	DD	03f481d27r			; 0.781695
	DD	03f485bcar			; 0.782651
	DD	03f489a4er			; 0.783605
	DD	03f48d8b3r			; 0.784557
	DD	03f4916far			; 0.785507
	DD	03f495521r			; 0.786455
	DD	03f499329r			; 0.787402
	DD	03f49d112r			; 0.788346
	DD	03f4a0edcr			; 0.789289
	DD	03f4a4c87r			; 0.79023
	DD	03f4a8a13r			; 0.791169
	DD	03f4ac77fr			; 0.792107
	DD	03f4b04ccr			; 0.793042
	DD	03f4b41far			; 0.793975
	DD	03f4b7f09r			; 0.794907
	DD	03f4bbbf8r			; 0.795837
	DD	03f4bf8c7r			; 0.796765
	DD	03f4c3578r			; 0.797691
	DD	03f4c7208r			; 0.798615
	DD	03f4cae79r			; 0.799537
	DD	03f4ceacbr			; 0.800458
	DD	03f4d26fdr			; 0.801376
	DD	03f4d6310r			; 0.802293
	DD	03f4d9f02r			; 0.803208
	DD	03f4ddad5r			; 0.80412
	DD	03f4e1689r			; 0.805031
	DD	03f4e521cr			; 0.80594
	DD	03f4e8d90r			; 0.806848
	DD	03f4ec8e4r			; 0.807753
	DD	03f4f0417r			; 0.808656
	DD	03f4f3f2br			; 0.809558
	DD	03f4f7a1fr			; 0.810457
	DD	03f4fb4f4r			; 0.811355
	DD	03f4fefa8r			; 0.812251
	DD	03f502a3br			; 0.813144
	DD	03f5064afr			; 0.814036
	DD	03f509f03r			; 0.814926
	DD	03f50d937r			; 0.815814
	DD	03f51134ar			; 0.816701
	DD	03f514d3dr			; 0.817585
	DD	03f518710r			; 0.818467
	DD	03f51c0c2r			; 0.819348
	DD	03f51fa54r			; 0.820226
	DD	03f5233c6r			; 0.821102
	DD	03f526d18r			; 0.821977
	DD	03f52a649r			; 0.82285
	DD	03f52df59r			; 0.823721
	DD	03f531849r			; 0.824589
	DD	03f535118r			; 0.825456
	DD	03f5389c7r			; 0.826321
	DD	03f53c255r			; 0.827184
	DD	03f53fac3r			; 0.828045
	DD	03f54330fr			; 0.828904
	DD	03f546b3br			; 0.829761
	DD	03f54a347r			; 0.830616
	DD	03f54db31r			; 0.83147
	DD	03f5512fbr			; 0.832321
	DD	03f554aa4r			; 0.83317
	DD	03f55822cr			; 0.834018
	DD	03f55b993r			; 0.834863
	DD	03f55f0d9r			; 0.835706
	DD	03f5627fer			; 0.836548
	DD	03f565f02r			; 0.837387
	DD	03f5695e5r			; 0.838225
	DD	03f56cca7r			; 0.83906
	DD	03f570348r			; 0.839894
	DD	03f5739c7r			; 0.840725
	DD	03f577026r			; 0.841555
	DD	03f57a663r			; 0.842383
	DD	03f57dc7fr			; 0.843208
	DD	03f581279r			; 0.844032
	DD	03f584853r			; 0.844854
	DD	03f587e0br			; 0.845673
	DD	03f58b3a1r			; 0.846491
	DD	03f58e916r			; 0.847307
	DD	03f591e6ar			; 0.84812
	DD	03f59539cr			; 0.848932
	DD	03f5988adr			; 0.849742
	DD	03f59bd9cr			; 0.850549
	DD	03f59f26ar			; 0.851355
	DD	03f5a2716r			; 0.852159
	DD	03f5a5ba0r			; 0.852961
	DD	03f5a9009r			; 0.85376
	DD	03f5ac450r			; 0.854558
	DD	03f5af875r			; 0.855354
	DD	03f5b2c79r			; 0.856147
	DD	03f5b605ar			; 0.856939
	DD	03f5b941ar			; 0.857729
	DD	03f5bc7b8r			; 0.858516
	DD	03f5bfb34r			; 0.859302
	DD	03f5c2e8er			; 0.860085
	DD	03f5c61c7r			; 0.860867
	DD	03f5c94ddr			; 0.861646
	DD	03f5cc7d1r			; 0.862424
	DD	03f5cfaa3r			; 0.863199
	DD	03f5d2d53r			; 0.863973
	DD	03f5d5fe1r			; 0.864744
	DD	03f5d924dr			; 0.865514
	DD	03f5dc497r			; 0.866281
	DD	03f5df6ber			; 0.867046
	DD	03f5e28c3r			; 0.867809
	DD	03f5e5aa6r			; 0.868571
	DD	03f5e8c67r			; 0.86933
	DD	03f5ebe05r			; 0.870087
	DD	03f5eef81r			; 0.870842
	DD	03f5f20dbr			; 0.871595
	DD	03f5f5212r			; 0.872346
	DD	03f5f8327r			; 0.873095
	DD	03f5fb419r			; 0.873842
	DD	03f5fe4e9r			; 0.874587
	DD	03f601596r			; 0.875329
	DD	03f604621r			; 0.87607
	DD	03f607689r			; 0.876809
	DD	03f60a6cfr			; 0.877545
	DD	03f60d6f2r			; 0.87828
	DD	03f6106f2r			; 0.879012
	DD	03f6136d0r			; 0.879743
	DD	03f61668ar			; 0.880471
	DD	03f619622r			; 0.881197
	DD	03f61c598r			; 0.881921
	DD	03f61f4ear			; 0.882643
	DD	03f62241ar			; 0.883363
	DD	03f625326r			; 0.884081
	DD	03f628210r			; 0.884797
	DD	03f62b0d7r			; 0.885511
	DD	03f62df7br			; 0.886223
	DD	03f630dfcr			; 0.886932
	DD	03f633c5ar			; 0.88764
	DD	03f636a95r			; 0.888345
	DD	03f6398acr			; 0.889048
	DD	03f63c6a1r			; 0.88975
	DD	03f63f473r			; 0.890449
	DD	03f642221r			; 0.891146
	DD	03f644facr			; 0.891841
	DD	03f647d14r			; 0.892534
	DD	03f64aa59r			; 0.893224
	DD	03f64d77br			; 0.893913
	DD	03f650479r			; 0.894599
	DD	03f653154r			; 0.895284
	DD	03f655e0br			; 0.895966
	DD	03f658aa0r			; 0.896646
	DD	03f65b710r			; 0.897325
	DD	03f65e35er			; 0.898001
	DD	03f660f88r			; 0.898674
	DD	03f663b8er			; 0.899346
	DD	03f666771r			; 0.900016
	DD	03f669330r			; 0.900683
	DD	03f66beccr			; 0.901349
	DD	03f66ea45r			; 0.902012
	DD	03f671599r			; 0.902673
	DD	03f6740car			; 0.903332
	DD	03f676bd8r			; 0.903989
	DD	03f6796c1r			; 0.904644
	DD	03f67c187r			; 0.905297
	DD	03f67ec29r			; 0.905947
	DD	03f6816a8r			; 0.906596
	DD	03f684103r			; 0.907242
	DD	03f686b39r			; 0.907886
	DD	03f68954cr			; 0.908528
	DD	03f68bf3cr			; 0.909168
	DD	03f68e907r			; 0.909806
	DD	03f6912aer			; 0.910441
	DD	03f693c32r			; 0.911075
	DD	03f696591r			; 0.911706
	DD	03f698eccr			; 0.912335
	DD	03f69b7e4r			; 0.912962
	DD	03f69e0d7r			; 0.913587
	DD	03f6a09a7r			; 0.91421
	DD	03f6a3252r			; 0.91483
	DD	03f6a5ad9r			; 0.915449
	DD	03f6a833cr			; 0.916065
	DD	03f6aab7br			; 0.916679
	DD	03f6ad395r			; 0.917291
	DD	03f6afb8cr			; 0.917901
	DD	03f6b235er			; 0.918508
	DD	03f6b4b0cr			; 0.919114
	DD	03f6b7295r			; 0.919717
	DD	03f6b99fbr			; 0.920318
	DD	03f6bc13br			; 0.920917
	DD	03f6be858r			; 0.921514
	DD	03f6c0f50r			; 0.922109
	DD	03f6c3624r			; 0.922701
	DD	03f6c5cd4r			; 0.923291
	DD	03f6c835er			; 0.92388
	DD	03f6ca9c5r			; 0.924465
	DD	03f6cd007r			; 0.925049
	DD	03f6cf624r			; 0.925631
	DD	03f6d1c1dr			; 0.92621
	DD	03f6d41f2r			; 0.926787
	DD	03f6d67a1r			; 0.927363
	DD	03f6d8d2dr			; 0.927935
	DD	03f6db293r			; 0.928506
	DD	03f6dd7d5r			; 0.929075
	DD	03f6dfcf2r			; 0.929641
	DD	03f6e21ebr			; 0.930205
	DD	03f6e46ber			; 0.930767
	DD	03f6e6b6dr			; 0.931327
	DD	03f6e8ff8r			; 0.931884
	DD	03f6eb45dr			; 0.93244
	DD	03f6ed89er			; 0.932993
	DD	03f6efcbar			; 0.933544
	DD	03f6f20b0r			; 0.934093
	DD	03f6f4483r			; 0.934639
	DD	03f6f6830r			; 0.935184
	DD	03f6f8bb8r			; 0.935726
	DD	03f6faf1br			; 0.936266
	DD	03f6fd25ar			; 0.936803
	DD	03f6ff573r			; 0.937339
	DD	03f701867r			; 0.937872
	DD	03f703b37r			; 0.938404
	DD	03f705de1r			; 0.938932
	DD	03f708066r			; 0.939459
	DD	03f70a2c6r			; 0.939984
	DD	03f70c501r			; 0.940506
	DD	03f70e717r			; 0.941026
	DD	03f710908r			; 0.941544
	DD	03f712ad4r			; 0.94206
	DD	03f714c7ar			; 0.942573
	DD	03f716dfbr			; 0.943084
	DD	03f718f57r			; 0.943593
	DD	03f71b08er			; 0.9441
	DD	03f71d19fr			; 0.944605
	DD	03f71f28cr			; 0.945107
	DD	03f721352r			; 0.945607
	DD	03f7233f4r			; 0.946105
	DD	03f725470r			; 0.946601
	DD	03f7274c7r			; 0.947094
	DD	03f7294f8r			; 0.947586
	DD	03f72b504r			; 0.948075
	DD	03f72d4ebr			; 0.948561
	DD	03f72f4acr			; 0.949046
	DD	03f731447r			; 0.949528
	DD	03f7333ber			; 0.950008
	DD	03f73530er			; 0.950486
	DD	03f737239r			; 0.950962
	DD	03f73913fr			; 0.951435
	DD	03f73b01fr			; 0.951906
	DD	03f73ced9r			; 0.952375
	DD	03f73ed6er			; 0.952842
	DD	03f740bddr			; 0.953306
	DD	03f742a27r			; 0.953768
	DD	03f74484br			; 0.954228
	DD	03f746649r			; 0.954686
	DD	03f748422r			; 0.955141
	DD	03f74a1d5r			; 0.955594
	DD	03f74bf62r			; 0.956045
	DD	03f74dcc9r			; 0.956494
	DD	03f74fa0br			; 0.95694
	DD	03f751727r			; 0.957385
	DD	03f75341dr			; 0.957826
	DD	03f7550edr			; 0.958266
	DD	03f756d97r			; 0.958703
	DD	03f758a1cr			; 0.959139
	DD	03f75a67br			; 0.959572
	DD	03f75c2b3r			; 0.960002
	DD	03f75dec6r			; 0.960431
	DD	03f75fab3r			; 0.960857
	DD	03f76167ar			; 0.96128
	DD	03f76321br			; 0.961702
	DD	03f764d97r			; 0.962121
	DD	03f7668ecr			; 0.962538
	DD	03f76841br			; 0.962953
	DD	03f769f24r			; 0.963366
	DD	03f76ba07r			; 0.963776
	DD	03f76d4c4r			; 0.964184
	DD	03f76ef5br			; 0.96459
	DD	03f7709ccr			; 0.964993
	DD	03f772417r			; 0.965394
	DD	03f773e3cr			; 0.965793
	DD	03f77583ar			; 0.96619
	DD	03f777213r			; 0.966584
	DD	03f778bc5r			; 0.966976
	DD	03f77a551r			; 0.967366
	DD	03f77beb7r			; 0.967754
	DD	03f77d7f7r			; 0.968139
	DD	03f77f110r			; 0.968522
	DD	03f780a04r			; 0.968903
	DD	03f7822d1r			; 0.969281
	DD	03f783b77r			; 0.969657
	DD	03f7853f8r			; 0.970031
	DD	03f786c52r			; 0.970403
	DD	03f788486r			; 0.970772
	DD	03f789c93r			; 0.971139
	DD	03f78b47br			; 0.971504
	DD	03f78cc3br			; 0.971866
	DD	03f78e3d6r			; 0.972227
	DD	03f78fb4ar			; 0.972584
	DD	03f791298r			; 0.97294
	DD	03f7929bfr			; 0.973293
	DD	03f7940c0r			; 0.973644
	DD	03f79579ar			; 0.973993
	DD	03f796e4er			; 0.974339
	DD	03f7984dcr			; 0.974684
	DD	03f799b43r			; 0.975025
	DD	03f79b183r			; 0.975365
	DD	03f79c79dr			; 0.975702
	DD	03f79dd91r			; 0.976037
	DD	03f79f35er			; 0.97637
	DD	03f7a0904r			; 0.9767
	DD	03f7a1e84r			; 0.977028
	DD	03f7a33ddr			; 0.977354
	DD	03f7a4910r			; 0.977677
	DD	03f7a5e1cr			; 0.977998
	DD	03f7a7302r			; 0.978317
	DD	03f7a87c1r			; 0.978634
	DD	03f7a9c59r			; 0.978948
	DD	03f7ab0cbr			; 0.97926
	DD	03f7ac516r			; 0.97957
	DD	03f7ad93ar			; 0.979877
	DD	03f7aed37r			; 0.980182
	DD	03f7b010er			; 0.980485
	DD	03f7b14ber			; 0.980785
	DD	03f7b2848r			; 0.981083
	DD	03f7b3babr			; 0.981379
	DD	03f7b4ee7r			; 0.981673
	DD	03f7b61fcr			; 0.981964
	DD	03f7b74ear			; 0.982253
	DD	03f7b87b2r			; 0.982539
	DD	03f7b9a53r			; 0.982824
	DD	03f7baccdr			; 0.983105
	DD	03f7bbf20r			; 0.983385
	DD	03f7bd14dr			; 0.983662
	DD	03f7be353r			; 0.983937
	DD	03f7bf531r			; 0.98421
	DD	03f7c06e9r			; 0.98448
	DD	03f7c187ar			; 0.984748
	DD	03f7c29e5r			; 0.985014
	DD	03f7c3b28r			; 0.985278
	DD	03f7c4c44r			; 0.985539
	DD	03f7c5d3ar			; 0.985798
	DD	03f7c6e08r			; 0.986054
	DD	03f7c7eb0r			; 0.986308
	DD	03f7c8f31r			; 0.98656
	DD	03f7c9f8ar			; 0.986809
	DD	03f7cafbdr			; 0.987057
	DD	03f7cbfc9r			; 0.987301
	DD	03f7ccfaer			; 0.987544
	DD	03f7cdf6cr			; 0.987784
	DD	03f7cef03r			; 0.988022
	DD	03f7cfe73r			; 0.988258
	DD	03f7d0dbcr			; 0.988491
	DD	03f7d1cddr			; 0.988722
	DD	03f7d2bd8r			; 0.98895
	DD	03f7d3aacr			; 0.989177
	DD	03f7d4959r			; 0.9894
	DD	03f7d57der			; 0.989622
	DD	03f7d663dr			; 0.989841
	DD	03f7d7474r			; 0.990058
	DD	03f7d8285r			; 0.990273
	DD	03f7d906er			; 0.990485
	DD	03f7d9e30r			; 0.990695
	DD	03f7dabccr			; 0.990903
	DD	03f7db940r			; 0.991108
	DD	03f7dc68cr			; 0.991311
	DD	03f7dd3b2r			; 0.991511
	DD	03f7de0b1r			; 0.99171
	DD	03f7ded88r			; 0.991906
	DD	03f7dfa38r			; 0.992099
	DD	03f7e06c2r			; 0.992291
	DD	03f7e1324r			; 0.99248
	DD	03f7e1f5er			; 0.992666
	DD	03f7e2b72r			; 0.99285
	DD	03f7e375er			; 0.993032
	DD	03f7e4323r			; 0.993212
	DD	03f7e4ec1r			; 0.993389
	DD	03f7e5a38r			; 0.993564
	DD	03f7e6588r			; 0.993737
	DD	03f7e70b0r			; 0.993907
	DD	03f7e7bb1r			; 0.994075
	DD	03f7e868br			; 0.99424
	DD	03f7e913dr			; 0.994404
	DD	03f7e9bc9r			; 0.994565
	DD	03f7ea62dr			; 0.994723
	DD	03f7eb069r			; 0.994879
	DD	03f7eba7fr			; 0.995033
	DD	03f7ec46dr			; 0.995185
	DD	03f7ece34r			; 0.995334
	DD	03f7ed7d4r			; 0.995481
	DD	03f7ee14cr			; 0.995625
	DD	03f7eea9dr			; 0.995767
	DD	03f7ef3c7r			; 0.995907
	DD	03f7efcc9r			; 0.996045
	DD	03f7f05a4r			; 0.99618
	DD	03f7f0e58r			; 0.996313
	DD	03f7f16e4r			; 0.996443
	DD	03f7f1f49r			; 0.996571
	DD	03f7f2787r			; 0.996697
	DD	03f7f2f9dr			; 0.99682
	DD	03f7f378cr			; 0.996941
	DD	03f7f3f54r			; 0.99706
	DD	03f7f46f4r			; 0.997176
	DD	03f7f4e6dr			; 0.99729
	DD	03f7f55bfr			; 0.997402
	DD	03f7f5ce9r			; 0.997511
	DD	03f7f63ecr			; 0.997618
	DD	03f7f6ac7r			; 0.997723
	DD	03f7f717br			; 0.997825
	DD	03f7f7808r			; 0.997925
	DD	03f7f7e6dr			; 0.998023
	DD	03f7f84abr			; 0.998118
	DD	03f7f8ac2r			; 0.998211
	DD	03f7f90b1r			; 0.998302
	DD	03f7f9678r			; 0.99839
	DD	03f7f9c18r			; 0.998476
	DD	03f7fa191r			; 0.998559
	DD	03f7fa6e3r			; 0.99864
	DD	03f7fac0dr			; 0.998719
	DD	03f7fb10fr			; 0.998795
	DD	03f7fb5ear			; 0.99887
	DD	03f7fba9er			; 0.998941
	DD	03f7fbf2ar			; 0.999011
	DD	03f7fc38fr			; 0.999078
	DD	03f7fc7ccr			; 0.999142
	DD	03f7fcbe2r			; 0.999205
	DD	03f7fcfd1r			; 0.999265
	DD	03f7fd397r			; 0.999322
	DD	03f7fd737r			; 0.999378
	DD	03f7fdaafr			; 0.999431
	DD	03f7fde00r			; 0.999481
	DD	03f7fe129r			; 0.999529
	DD	03f7fe42br			; 0.999575
	DD	03f7fe705r			; 0.999619
	DD	03f7fe9b8r			; 0.99966
	DD	03f7fec43r			; 0.999699
	DD	03f7feea7r			; 0.999735
	DD	03f7ff0e3r			; 0.999769
	DD	03f7ff2f8r			; 0.999801
	DD	03f7ff4e6r			; 0.999831
	DD	03f7ff6acr			; 0.999858
	DD	03f7ff84ar			; 0.999882
	DD	03f7ff9c1r			; 0.999905
	DD	03f7ffb11r			; 0.999925
	DD	03f7ffc39r			; 0.999942
	DD	03f7ffd39r			; 0.999958
	DD	03f7ffe13r			; 0.999971
	DD	03f7ffec4r			; 0.999981
	DD	03f7fff4er			; 0.999989
	DD	03f7fffb1r			; 0.999995
	DD	03f7fffecr			; 0.999999
?g_fIdvSinTable@@3QBMB DD 000000000r		; 0	; g_fIdvSinTable
	DD	03ac90fd5r			; 0.00153398
	DD	03b490fc6r			; 0.00306796
	DD	03b96cbc1r			; 0.00460193
	DD	03bc90f88r			; 0.00613588
	DD	03bfb5330r			; 0.00766983
	DD	03c16cb58r			; 0.00920375
	DD	03c2fed02r			; 0.0107377
	DD	03c490e90r			; 0.0122715
	DD	03c622fffr			; 0.0138054
	DD	03c7b514br			; 0.0153392
	DD	03c8a3938r			; 0.016873
	DD	03c96c9b6r			; 0.0184067
	DD	03ca35a1cr			; 0.0199404
	DD	03cafea69r			; 0.0214741
	DD	03cbc7a9br			; 0.0230077
	DD	03cc90ab0r			; 0.0245412
	DD	03cd59aa6r			; 0.0260747
	DD	03ce22a7ar			; 0.0276081
	DD	03ceeba2cr			; 0.0291415
	DD	03cfb49bar			; 0.0306748
	DD	03d03ec90r			; 0.032208
	DD	03d0a342fr			; 0.0337412
	DD	03d107bb8r			; 0.0352742
	DD	03d16c32cr			; 0.0368072
	DD	03d1d0a88r			; 0.0383401
	DD	03d2351cbr			; 0.0398729
	DD	03d2998f6r			; 0.0414056
	DD	03d2fe007r			; 0.0429383
	DD	03d3626fcr			; 0.0444708
	DD	03d3c6dd5r			; 0.0460032
	DD	03d42b491r			; 0.0475355
	DD	03d48fb30r			; 0.0490677
	DD	03d4f41afr			; 0.0505998
	DD	03d55880er			; 0.0521317
	DD	03d5bce4cr			; 0.0536635
	DD	03d621469r			; 0.0551952
	DD	03d685a62r			; 0.0567268
	DD	03d6ea038r			; 0.0582583
	DD	03d74e5e9r			; 0.0597896
	DD	03d7b2b74r			; 0.0613207
	DD	03d80b86cr			; 0.0628518
	DD	03d83db0ar			; 0.0643826
	DD	03d86fd94r			; 0.0659133
	DD	03d8a200ar			; 0.0674439
	DD	03d8d426ar			; 0.0689743
	DD	03d9064b4r			; 0.0705046
	DD	03d9386e7r			; 0.0720346
	DD	03d96a905r			; 0.0735646
	DD	03d99cb0ar			; 0.0750943
	DD	03d9cecf9r			; 0.0766239
	DD	03da00ecfr			; 0.0781532
	DD	03da3308cr			; 0.0796824
	DD	03da65230r			; 0.0812114
	DD	03da973bar			; 0.0827403
	DD	03dac952br			; 0.0842689
	DD	03dafb680r			; 0.0857973
	DD	03db2d7bbr			; 0.0873255
	DD	03db5f8dar			; 0.0888536
	DD	03db919ddr			; 0.0903814
	DD	03dbc3ac3r			; 0.091909
	DD	03dbf5b8dr			; 0.0934363
	DD	03dc27c39r			; 0.0949635
	DD	03dc59cc6r			; 0.0964904
	DD	03dc8bd36r			; 0.0980171
	DD	03dcbdd86r			; 0.0995436
	DD	03dcefdb7r			; 0.10107
	DD	03dd21dc8r			; 0.102596
	DD	03dd53db9r			; 0.104122
	DD	03dd85d89r			; 0.105647
	DD	03ddb7d37r			; 0.107172
	DD	03dde9cc4r			; 0.108697
	DD	03de1bc2er			; 0.110222
	DD	03de4db76r			; 0.111747
	DD	03de7fa9ar			; 0.113271
	DD	03deb199ar			; 0.114795
	DD	03dee3876r			; 0.116319
	DD	03df1572er			; 0.117842
	DD	03df475c0r			; 0.119365
	DD	03df7942cr			; 0.120888
	DD	03dfab273r			; 0.122411
	DD	03dfdd092r			; 0.123933
	DD	03e007745r			; 0.125455
	DD	03e02062er			; 0.126977
	DD	03e039502r			; 0.128498
	DD	03e0523c2r			; 0.130019
	DD	03e06b26er			; 0.13154
	DD	03e084105r			; 0.133061
	DD	03e09cf86r			; 0.134581
	DD	03e0b5df3r			; 0.136101
	DD	03e0cec4ar			; 0.13762
	DD	03e0e7a8br			; 0.139139
	DD	03e1008b7r			; 0.140658
	DD	03e1196ccr			; 0.142177
	DD	03e1324car			; 0.143695
	DD	03e14b2b2r			; 0.145213
	DD	03e164083r			; 0.14673
	DD	03e17ce3dr			; 0.148248
	DD	03e195be0r			; 0.149765
	DD	03e1ae96br			; 0.151281
	DD	03e1c76der			; 0.152797
	DD	03e1e0438r			; 0.154313
	DD	03e1f917br			; 0.155828
	DD	03e211ea5r			; 0.157343
	DD	03e22abb6r			; 0.158858
	DD	03e2438adr			; 0.160372
	DD	03e25c58cr			; 0.161886
	DD	03e275251r			; 0.1634
	DD	03e28defcr			; 0.164913
	DD	03e2a6b8dr			; 0.166426
	DD	03e2bf804r			; 0.167938
	DD	03e2d8461r			; 0.16945
	DD	03e2f10a2r			; 0.170962
	DD	03e309cc9r			; 0.172473
	DD	03e3228d4r			; 0.173984
	DD	03e33b4c4r			; 0.175494
	DD	03e354098r			; 0.177004
	DD	03e36cc50r			; 0.178514
	DD	03e3857ecr			; 0.180023
	DD	03e39e36cr			; 0.181532
	DD	03e3b6ecfr			; 0.18304
	DD	03e3cfa15r			; 0.184548
	DD	03e3e853er			; 0.186055
	DD	03e401049r			; 0.187562
	DD	03e419b37r			; 0.189069
	DD	03e432607r			; 0.190575
	DD	03e44b0b9r			; 0.19208
	DD	03e463b4dr			; 0.193586
	DD	03e47c5c2r			; 0.19509
	DD	03e495018r			; 0.196595
	DD	03e4ada4fr			; 0.198098
	DD	03e4c6467r			; 0.199602
	DD	03e4dee60r			; 0.201105
	DD	03e4f7838r			; 0.202607
	DD	03e5101f1r			; 0.204109
	DD	03e528b89r			; 0.20561
	DD	03e541501r			; 0.207111
	DD	03e559e58r			; 0.208612
	DD	03e57278fr			; 0.210112
	DD	03e58b0a4r			; 0.211611
	DD	03e5a3997r			; 0.21311
	DD	03e5bc26ar			; 0.214609
	DD	03e5d4b1ar			; 0.216107
	DD	03e5ed3a8r			; 0.217604
	DD	03e605c13r			; 0.219101
	DD	03e61e45cr			; 0.220598
	DD	03e636c83r			; 0.222094
	DD	03e64f486r			; 0.223589
	DD	03e667c66r			; 0.225084
	DD	03e680422r			; 0.226578
	DD	03e698bbar			; 0.228072
	DD	03e6b132fr			; 0.229565
	DD	03e6c9a7fr			; 0.231058
	DD	03e6e21abr			; 0.23255
	DD	03e6fa8b2r			; 0.234042
	DD	03e712f94r			; 0.235533
	DD	03e72b651r			; 0.237024
	DD	03e743ce8r			; 0.238514
	DD	03e75c35ar			; 0.240003
	DD	03e7749a6r			; 0.241492
	DD	03e78cfccr			; 0.24298
	DD	03e7a55cbr			; 0.244468
	DD	03e7bdba4r			; 0.245955
	DD	03e7d6156r			; 0.247442
	DD	03e7ee6e1r			; 0.248928
	DD	03e803622r			; 0.250413
	DD	03e80f8c0r			; 0.251898
	DD	03e81bb4ar			; 0.253382
	DD	03e827dc0r			; 0.254866
	DD	03e834022r			; 0.256349
	DD	03e840270r			; 0.257831
	DD	03e84c4aar			; 0.259313
	DD	03e8586cer			; 0.260794
	DD	03e8648dfr			; 0.262275
	DD	03e870adar			; 0.263755
	DD	03e87ccc1r			; 0.265234
	DD	03e888e93r			; 0.266713
	DD	03e895050r			; 0.268191
	DD	03e8a11f7r			; 0.269668
	DD	03e8ad38ar			; 0.271145
	DD	03e8b9507r			; 0.272621
	DD	03e8c566er			; 0.274097
	DD	03e8d17c0r			; 0.275572
	DD	03e8dd8fcr			; 0.277046
	DD	03e8e9a22r			; 0.27852
	DD	03e8f5b32r			; 0.279993
	DD	03e901c2cr			; 0.281465
	DD	03e90dd10r			; 0.282937
	DD	03e919dddr			; 0.284408
	DD	03e925e94r			; 0.285878
	DD	03e931f35r			; 0.287347
	DD	03e93dfbfr			; 0.288816
	DD	03e94a031r			; 0.290285
	DD	03e95608dr			; 0.291752
	DD	03e9620d2r			; 0.293219
	DD	03e96e100r			; 0.294685
	DD	03e97a117r			; 0.296151
	DD	03e986116r			; 0.297616
	DD	03e9920fer			; 0.29908
	DD	03e99e0cer			; 0.300543
	DD	03e9aa086r			; 0.302006
	DD	03e9b6027r			; 0.303468
	DD	03e9c1fafr			; 0.304929
	DD	03e9cdf20r			; 0.30639
	DD	03e9d9e78r			; 0.30785
	DD	03e9e5db8r			; 0.309309
	DD	03e9f1cdfr			; 0.310767
	DD	03e9fdbeer			; 0.312225
	DD	03ea09ae5r			; 0.313682
	DD	03ea159c2r			; 0.315138
	DD	03ea21887r			; 0.316593
	DD	03ea2d733r			; 0.318048
	DD	03ea395c5r			; 0.319502
	DD	03ea4543fr			; 0.320955
	DD	03ea5129fr			; 0.322408
	DD	03ea5d0e5r			; 0.323859
	DD	03ea68f12r			; 0.32531
	DD	03ea74d25r			; 0.32676
	DD	03ea80b1fr			; 0.32821
	DD	03ea8c8fer			; 0.329658
	DD	03ea986c4r			; 0.331106
	DD	03eaa446fr			; 0.332553
	DD	03eab0201r			; 0.334
	DD	03eabbf77r			; 0.335445
	DD	03eac7cd4r			; 0.33689
	DD	03ead3a15r			; 0.338334
	DD	03eadf73cr			; 0.339777
	DD	03eaeb449r			; 0.341219
	DD	03eaf713ar			; 0.342661
	DD	03eb02e10r			; 0.344101
	DD	03eb0eacbr			; 0.345541
	DD	03eb1a76br			; 0.34698
	DD	03eb263efr			; 0.348419
	DD	03eb32058r			; 0.349856
	DD	03eb3dca5r			; 0.351293
	DD	03eb498d6r			; 0.352729
	DD	03eb554ecr			; 0.354164
	DD	03eb610e6r			; 0.355598
	DD	03eb6ccc3r			; 0.357031
	DD	03eb78884r			; 0.358463
	DD	03eb8442ar			; 0.359895
	DD	03eb8ffb2r			; 0.361326
	DD	03eb9bb1er			; 0.362756
	DD	03eba766er			; 0.364185
	DD	03ebb31a0r			; 0.365613
	DD	03ebbecb6r			; 0.36704
	DD	03ebca7afr			; 0.368467
	DD	03ebd628br			; 0.369892
	DD	03ebe1d4ar			; 0.371317
	DD	03ebed7ebr			; 0.372741
	DD	03ebf926fr			; 0.374164
	DD	03ec04cd5r			; 0.375586
	DD	03ec1071er			; 0.377007
	DD	03ec1c148r			; 0.378428
	DD	03ec27b55r			; 0.379847
	DD	03ec33544r			; 0.381266
	DD	03ec3ef15r			; 0.382683
	DD	03ec4a8c8r			; 0.3841
	DD	03ec5625cr			; 0.385516
	DD	03ec61bd2r			; 0.386931
	DD	03ec6d529r			; 0.388345
	DD	03ec78e62r			; 0.389758
	DD	03ec8477cr			; 0.39117
	DD	03ec90077r			; 0.392582
	DD	03ec9b953r			; 0.393992
	DD	03eca7210r			; 0.395401
	DD	03ecb2aaer			; 0.39681
	DD	03ecbe32cr			; 0.398218
	DD	03ecc9b8br			; 0.399624
	DD	03ecd53car			; 0.40103
	DD	03ece0bear			; 0.402435
	DD	03ecec3ear			; 0.403838
	DD	03ecf7bcar			; 0.405241
	DD	03ed0338ar			; 0.406643
	DD	03ed0eb2ar			; 0.408044
	DD	03ed1a2aar			; 0.409444
	DD	03ed25a09r			; 0.410843
	DD	03ed31148r			; 0.412241
	DD	03ed3c867r			; 0.413638
	DD	03ed47f64r			; 0.415034
	DD	03ed53641r			; 0.41643
	DD	03ed5ecfdr			; 0.417824
	DD	03ed6a399r			; 0.419217
	DD	03ed75a13r			; 0.420609
	DD	03ed8106br			; 0.422
	DD	03ed8c6a3r			; 0.42339
	DD	03ed97cb9r			; 0.42478
	DD	03eda32adr			; 0.426168
	DD	03edae880r			; 0.427555
	DD	03edb9e31r			; 0.428941
	DD	03edc53c1r			; 0.430326
	DD	03edd092er			; 0.431711
	DD	03eddbe79r			; 0.433094
	DD	03ede73a2r			; 0.434476
	DD	03edf28a9r			; 0.435857
	DD	03edfdd8dr			; 0.437237
	DD	03ee0924fr			; 0.438616
	DD	03ee146eer			; 0.439994
	DD	03ee1fb6ar			; 0.441371
	DD	03ee2afc4r			; 0.442747
	DD	03ee363far			; 0.444122
	DD	03ee4180er			; 0.445496
	DD	03ee4cbfer			; 0.446869
	DD	03ee57fcbr			; 0.448241
	DD	03ee63375r			; 0.449611
	DD	03ee6e6fbr			; 0.450981
	DD	03ee79a5dr			; 0.45235
	DD	03ee84d9cr			; 0.453717
	DD	03ee900b7r			; 0.455084
	DD	03ee9b3aer			; 0.456449
	DD	03eea6681r			; 0.457813
	DD	03eeb1930r			; 0.459177
	DD	03eebcbbbr			; 0.460539
	DD	03eec7e21r			; 0.4619
	DD	03eed3063r			; 0.46326
	DD	03eede280r			; 0.464619
	DD	03eee9479r			; 0.465977
	DD	03eef464cr			; 0.467333
	DD	03eeff7fbr			; 0.468689
	DD	03ef0a985r			; 0.470043
	DD	03ef15aear			; 0.471397
	DD	03ef20c29r			; 0.472749
	DD	03ef2bd43r			; 0.4741
	DD	03ef36e38r			; 0.47545
	DD	03ef41f07r			; 0.476799
	DD	03ef4cfb1r			; 0.478147
	DD	03ef58035r			; 0.479494
	DD	03ef63093r			; 0.480839
	DD	03ef6e0cbr			; 0.482184
	DD	03ef790dcr			; 0.483527
	DD	03ef840c8r			; 0.484869
	DD	03ef8f08er			; 0.48621
	DD	03ef9a02dr			; 0.48755
	DD	03efa4fa5r			; 0.488889
	DD	03efafef7r			; 0.490226
	DD	03efbae22r			; 0.491563
	DD	03efc5d27r			; 0.492898
	DD	03efd0c04r			; 0.494232
	DD	03efdbabbr			; 0.495565
	DD	03efe694ar			; 0.496897
	DD	03eff17b2r			; 0.498228
	DD	03effc5f3r			; 0.499557
	DD	03f003a06r			; 0.500885
	DD	03f0090ffr			; 0.502212
	DD	03f00e7e4r			; 0.503538
	DD	03f013eb5r			; 0.504863
	DD	03f019573r			; 0.506187
	DD	03f01ec1cr			; 0.507509
	DD	03f0242b1r			; 0.50883
	DD	03f029932r			; 0.51015
	DD	03f02ef9fr			; 0.511469
	DD	03f0345f8r			; 0.512786
	DD	03f039c3dr			; 0.514103
	DD	03f03f26dr			; 0.515418
	DD	03f044889r			; 0.516732
	DD	03f049e91r			; 0.518045
	DD	03f04f484r			; 0.519356
	DD	03f054a62r			; 0.520666
	DD	03f05a02cr			; 0.521975
	DD	03f05f5e2r			; 0.523283
	DD	03f064b82r			; 0.52459
	DD	03f06a10er			; 0.525895
	DD	03f06f686r			; 0.527199
	DD	03f074be8r			; 0.528502
	DD	03f07a136r			; 0.529804
	DD	03f07f66fr			; 0.531104
	DD	03f084b92r			; 0.532403
	DD	03f08a0a1r			; 0.533701
	DD	03f08f59br			; 0.534998
	DD	03f094a7fr			; 0.536293
	DD	03f099f4er			; 0.537587
	DD	03f09f409r			; 0.53888
	DD	03f0a48adr			; 0.540171
	DD	03f0a9d3dr			; 0.541462
	DD	03f0af1b7r			; 0.542751
	DD	03f0b461cr			; 0.544039
	DD	03f0b9a6br			; 0.545325
	DD	03f0beea5r			; 0.54661
	DD	03f0c42c9r			; 0.547894
	DD	03f0c96d7r			; 0.549177
	DD	03f0cead0r			; 0.550458
	DD	03f0d3eb3r			; 0.551738
	DD	03f0d9281r			; 0.553017
	DD	03f0de638r			; 0.554294
	DD	03f0e39dar			; 0.55557
	DD	03f0e8d65r			; 0.556845
	DD	03f0ee0dbr			; 0.558119
	DD	03f0f343br			; 0.559391
	DD	03f0f8784r			; 0.560662
	DD	03f0fdab8r			; 0.561931
	DD	03f102dd5r			; 0.563199
	DD	03f1080dcr			; 0.564466
	DD	03f10d3cdr			; 0.565732
	DD	03f1126a7r			; 0.566996
	DD	03f11796br			; 0.568259
	DD	03f11cc19r			; 0.569521
	DD	03f121eb0r			; 0.570781
	DD	03f127130r			; 0.57204
	DD	03f12c39ar			; 0.573297
	DD	03f1315eer			; 0.574553
	DD	03f13682ar			; 0.575808
	DD	03f13ba50r			; 0.577062
	DD	03f140c5fr			; 0.578314
	DD	03f145e58r			; 0.579565
	DD	03f14b039r			; 0.580814
	DD	03f150204r			; 0.582062
	DD	03f1553b7r			; 0.583309
	DD	03f15a554r			; 0.584554
	DD	03f15f6d9r			; 0.585798
	DD	03f164847r			; 0.58704
	DD	03f16999fr			; 0.588282
	DD	03f16eader			; 0.589521
	DD	03f173c07r			; 0.59076
	DD	03f178d18r			; 0.591997
	DD	03f17de12r			; 0.593232
	DD	03f182ef5r			; 0.594467
	DD	03f187fc0r			; 0.595699
	DD	03f18d073r			; 0.596931
	DD	03f19210fr			; 0.598161
	DD	03f197194r			; 0.599389
	DD	03f19c200r			; 0.600616
	DD	03f1a1255r			; 0.601842
	DD	03f1a6293r			; 0.603067
	DD	03f1ab2b8r			; 0.60429
	DD	03f1b02c6r			; 0.605511
	DD	03f1b52bbr			; 0.606731
	DD	03f1ba299r			; 0.60795
	DD	03f1bf25fr			; 0.609167
	DD	03f1c420cr			; 0.610383
	DD	03f1c91a2r			; 0.611597
	DD	03f1ce11fr			; 0.61281
	DD	03f1d3084r			; 0.614022
	DD	03f1d7fd1r			; 0.615232
	DD	03f1dcf06r			; 0.61644
	DD	03f1e1e22r			; 0.617647
	DD	03f1e6d26r			; 0.618853
	DD	03f1ebc12r			; 0.620057
	DD	03f1f0ae5r			; 0.62126
	DD	03f1f599fr			; 0.622461
	DD	03f1fa841r			; 0.623661
	DD	03f1ff6cbr			; 0.62486
	DD	03f20453br			; 0.626056
	DD	03f209393r			; 0.627252
	DD	03f20e1d2r			; 0.628446
	DD	03f212ff9r			; 0.629638
	DD	03f217e06r			; 0.630829
	DD	03f21cbfbr			; 0.632019
	DD	03f2219d7r			; 0.633207
	DD	03f226799r			; 0.634393
	DD	03f22b543r			; 0.635578
	DD	03f2302d3r			; 0.636762
	DD	03f23504br			; 0.637944
	DD	03f239da9r			; 0.639124
	DD	03f23eaeer			; 0.640303
	DD	03f24381ar			; 0.641481
	DD	03f24852cr			; 0.642657
	DD	03f24d225r			; 0.643832
	DD	03f251f04r			; 0.645005
	DD	03f256bcbr			; 0.646176
	DD	03f25b877r			; 0.647346
	DD	03f26050ar			; 0.648514
	DD	03f265184r			; 0.649681
	DD	03f269de3r			; 0.650847
	DD	03f26ea2ar			; 0.652011
	DD	03f273656r			; 0.653173
	DD	03f278268r			; 0.654334
	DD	03f27ce61r			; 0.655493
	DD	03f281a40r			; 0.656651
	DD	03f286605r			; 0.657807
	DD	03f28b1b0r			; 0.658961
	DD	03f28fd41r			; 0.660114
	DD	03f2948b8r			; 0.661266
	DD	03f299415r			; 0.662416
	DD	03f29df57r			; 0.663564
	DD	03f2a2a80r			; 0.664711
	DD	03f2a758er			; 0.665856
	DD	03f2ac082r			; 0.667
	DD	03f2b0b5br			; 0.668142
	DD	03f2b561br			; 0.669283
	DD	03f2ba0bfr			; 0.670422
	DD	03f2beb4ar			; 0.671559
	DD	03f2c35b9r			; 0.672695
	DD	03f2c800fr			; 0.673829
	DD	03f2cca49r			; 0.674962
	DD	03f2d1469r			; 0.676093
	DD	03f2d5e6fr			; 0.677222
	DD	03f2da859r			; 0.67835
	DD	03f2df229r			; 0.679476
	DD	03f2e3bder			; 0.680601
	DD	03f2e8578r			; 0.681724
	DD	03f2ecef7r			; 0.682846
	DD	03f2f185br			; 0.683965
	DD	03f2f61a5r			; 0.685084
	DD	03f2faad3r			; 0.6862
	DD	03f2ff3e6r			; 0.687315
	DD	03f303cder			; 0.688429
	DD	03f3085bbr			; 0.689541
	DD	03f30ce7cr			; 0.690651
	DD	03f311722r			; 0.691759
	DD	03f315fadr			; 0.692866
	DD	03f31a81dr			; 0.693971
	DD	03f31f071r			; 0.695075
	DD	03f3238aar			; 0.696177
	DD	03f3280c7r			; 0.697277
	DD	03f32c8c9r			; 0.698376
	DD	03f3310afr			; 0.699473
	DD	03f33587ar			; 0.700569
	DD	03f33a029r			; 0.701663
	DD	03f33e7bcr			; 0.702755
	DD	03f342f34r			; 0.703845
	DD	03f34768fr			; 0.704934
	DD	03f34bdcfr			; 0.706021
	DD	03f3504f3r			; 0.707107
	DD	03f354bfbr			; 0.708191
	DD	03f3592e7r			; 0.709273
	DD	03f35d9b8r			; 0.710353
	DD	03f36206cr			; 0.711432
	DD	03f366704r			; 0.712509
	DD	03f36ad7fr			; 0.713585
	DD	03f36f3dfr			; 0.714659
	DD	03f373a23r			; 0.715731
	DD	03f37804ar			; 0.716801
	DD	03f37c655r			; 0.71787
	DD	03f380c43r			; 0.718937
	DD	03f385216r			; 0.720003
	DD	03f3897cbr			; 0.721066
	DD	03f38dd65r			; 0.722128
	DD	03f3922e1r			; 0.723188
	DD	03f396842r			; 0.724247
	DD	03f39ad85r			; 0.725304
	DD	03f39f2acr			; 0.726359
	DD	03f3a37b7r			; 0.727413
	DD	03f3a7ca4r			; 0.728464
	DD	03f3ac175r			; 0.729514
	DD	03f3b0629r			; 0.730563
	DD	03f3b4ac1r			; 0.731609
	DD	03f3b8f3br			; 0.732654
	DD	03f3bd398r			; 0.733697
	DD	03f3c17d9r			; 0.734739
	DD	03f3c5bfcr			; 0.735779
	DD	03f3ca003r			; 0.736817
	DD	03f3ce3ecr			; 0.737853
	DD	03f3d27b8r			; 0.738887
	DD	03f3d6b67r			; 0.73992
	DD	03f3daef9r			; 0.740951
	DD	03f3df26er			; 0.74198
	DD	03f3e35c5r			; 0.743008
	DD	03f3e78ffr			; 0.744034
	DD	03f3ebc1br			; 0.745058
	DD	03f3eff1br			; 0.74608
	DD	03f3f41fcr			; 0.747101
	DD	03f3f84c0r			; 0.748119
	DD	03f3fc767r			; 0.749136
	DD	03f4009f0r			; 0.750152
	DD	03f404c5cr			; 0.751165
	DD	03f408ea9r			; 0.752177
	DD	03f40d0dar			; 0.753187
	DD	03f4112ecr			; 0.754195
	DD	03f4154e1r			; 0.755201
	DD	03f4196b7r			; 0.756206
	DD	03f41d870r			; 0.757209
	DD	03f421a0br			; 0.75821
	DD	03f425b89r			; 0.759209
	DD	03f429ce8r			; 0.760207
	DD	03f42de29r			; 0.761202
	DD	03f431f4cr			; 0.762196
	DD	03f436051r			; 0.763188
	DD	03f43a138r			; 0.764179
	DD	03f43e200r			; 0.765167
	DD	03f4422abr			; 0.766154
	DD	03f446337r			; 0.767139
	DD	03f44a3a5r			; 0.768122
	DD	03f44e3f5r			; 0.769103
	DD	03f452426r			; 0.770083
	DD	03f456439r			; 0.771061
	DD	03f45a42dr			; 0.772036
	DD	03f45e403r			; 0.77301
	DD	03f4623bbr			; 0.773983
	DD	03f466354r			; 0.774953
	DD	03f46a2cer			; 0.775922
	DD	03f46e22ar			; 0.776888
	DD	03f472167r			; 0.777853
	DD	03f476085r			; 0.778817
	DD	03f479f84r			; 0.779778
	DD	03f47de65r			; 0.780737
	DD	03f481d27r			; 0.781695
	DD	03f485bcar			; 0.782651
	DD	03f489a4er			; 0.783605
	DD	03f48d8b3r			; 0.784557
	DD	03f4916far			; 0.785507
	DD	03f495521r			; 0.786455
	DD	03f499329r			; 0.787402
	DD	03f49d112r			; 0.788346
	DD	03f4a0edcr			; 0.789289
	DD	03f4a4c87r			; 0.79023
	DD	03f4a8a13r			; 0.791169
	DD	03f4ac77fr			; 0.792107
	DD	03f4b04ccr			; 0.793042
	DD	03f4b41far			; 0.793975
	DD	03f4b7f09r			; 0.794907
	DD	03f4bbbf8r			; 0.795837
	DD	03f4bf8c7r			; 0.796765
	DD	03f4c3578r			; 0.797691
	DD	03f4c7208r			; 0.798615
	DD	03f4cae79r			; 0.799537
	DD	03f4ceacbr			; 0.800458
	DD	03f4d26fdr			; 0.801376
	DD	03f4d6310r			; 0.802293
	DD	03f4d9f02r			; 0.803208
	DD	03f4ddad5r			; 0.80412
	DD	03f4e1689r			; 0.805031
	DD	03f4e521cr			; 0.80594
	DD	03f4e8d90r			; 0.806848
	DD	03f4ec8e4r			; 0.807753
	DD	03f4f0417r			; 0.808656
	DD	03f4f3f2br			; 0.809558
	DD	03f4f7a1fr			; 0.810457
	DD	03f4fb4f4r			; 0.811355
	DD	03f4fefa8r			; 0.812251
	DD	03f502a3br			; 0.813144
	DD	03f5064afr			; 0.814036
	DD	03f509f03r			; 0.814926
	DD	03f50d937r			; 0.815814
	DD	03f51134ar			; 0.816701
	DD	03f514d3dr			; 0.817585
	DD	03f518710r			; 0.818467
	DD	03f51c0c2r			; 0.819348
	DD	03f51fa54r			; 0.820226
	DD	03f5233c6r			; 0.821102
	DD	03f526d18r			; 0.821977
	DD	03f52a649r			; 0.82285
	DD	03f52df59r			; 0.823721
	DD	03f531849r			; 0.824589
	DD	03f535118r			; 0.825456
	DD	03f5389c7r			; 0.826321
	DD	03f53c255r			; 0.827184
	DD	03f53fac3r			; 0.828045
	DD	03f54330fr			; 0.828904
	DD	03f546b3br			; 0.829761
	DD	03f54a347r			; 0.830616
	DD	03f54db31r			; 0.83147
	DD	03f5512fbr			; 0.832321
	DD	03f554aa4r			; 0.83317
	DD	03f55822cr			; 0.834018
	DD	03f55b993r			; 0.834863
	DD	03f55f0d9r			; 0.835706
	DD	03f5627fer			; 0.836548
	DD	03f565f02r			; 0.837387
	DD	03f5695e5r			; 0.838225
	DD	03f56cca7r			; 0.83906
	DD	03f570348r			; 0.839894
	DD	03f5739c7r			; 0.840725
	DD	03f577026r			; 0.841555
	DD	03f57a663r			; 0.842383
	DD	03f57dc7fr			; 0.843208
	DD	03f581279r			; 0.844032
	DD	03f584853r			; 0.844854
	DD	03f587e0br			; 0.845673
	DD	03f58b3a1r			; 0.846491
	DD	03f58e916r			; 0.847307
	DD	03f591e6ar			; 0.84812
	DD	03f59539cr			; 0.848932
	DD	03f5988adr			; 0.849742
	DD	03f59bd9cr			; 0.850549
	DD	03f59f26ar			; 0.851355
	DD	03f5a2716r			; 0.852159
	DD	03f5a5ba0r			; 0.852961
	DD	03f5a9009r			; 0.85376
	DD	03f5ac450r			; 0.854558
	DD	03f5af875r			; 0.855354
	DD	03f5b2c79r			; 0.856147
	DD	03f5b605ar			; 0.856939
	DD	03f5b941ar			; 0.857729
	DD	03f5bc7b8r			; 0.858516
	DD	03f5bfb34r			; 0.859302
	DD	03f5c2e8er			; 0.860085
	DD	03f5c61c7r			; 0.860867
	DD	03f5c94ddr			; 0.861646
	DD	03f5cc7d1r			; 0.862424
	DD	03f5cfaa3r			; 0.863199
	DD	03f5d2d53r			; 0.863973
	DD	03f5d5fe1r			; 0.864744
	DD	03f5d924dr			; 0.865514
	DD	03f5dc497r			; 0.866281
	DD	03f5df6ber			; 0.867046
	DD	03f5e28c3r			; 0.867809
	DD	03f5e5aa6r			; 0.868571
	DD	03f5e8c67r			; 0.86933
	DD	03f5ebe05r			; 0.870087
	DD	03f5eef81r			; 0.870842
	DD	03f5f20dbr			; 0.871595
	DD	03f5f5212r			; 0.872346
	DD	03f5f8327r			; 0.873095
	DD	03f5fb419r			; 0.873842
	DD	03f5fe4e9r			; 0.874587
	DD	03f601596r			; 0.875329
	DD	03f604621r			; 0.87607
	DD	03f607689r			; 0.876809
	DD	03f60a6cfr			; 0.877545
	DD	03f60d6f2r			; 0.87828
	DD	03f6106f2r			; 0.879012
	DD	03f6136d0r			; 0.879743
	DD	03f61668ar			; 0.880471
	DD	03f619622r			; 0.881197
	DD	03f61c598r			; 0.881921
	DD	03f61f4ear			; 0.882643
	DD	03f62241ar			; 0.883363
	DD	03f625326r			; 0.884081
	DD	03f628210r			; 0.884797
	DD	03f62b0d7r			; 0.885511
	DD	03f62df7br			; 0.886223
	DD	03f630dfcr			; 0.886932
	DD	03f633c5ar			; 0.88764
	DD	03f636a95r			; 0.888345
	DD	03f6398acr			; 0.889048
	DD	03f63c6a1r			; 0.88975
	DD	03f63f473r			; 0.890449
	DD	03f642221r			; 0.891146
	DD	03f644facr			; 0.891841
	DD	03f647d14r			; 0.892534
	DD	03f64aa59r			; 0.893224
	DD	03f64d77br			; 0.893913
	DD	03f650479r			; 0.894599
	DD	03f653154r			; 0.895284
	DD	03f655e0br			; 0.895966
	DD	03f658aa0r			; 0.896646
	DD	03f65b710r			; 0.897325
	DD	03f65e35er			; 0.898001
	DD	03f660f88r			; 0.898674
	DD	03f663b8er			; 0.899346
	DD	03f666771r			; 0.900016
	DD	03f669330r			; 0.900683
	DD	03f66beccr			; 0.901349
	DD	03f66ea45r			; 0.902012
	DD	03f671599r			; 0.902673
	DD	03f6740car			; 0.903332
	DD	03f676bd8r			; 0.903989
	DD	03f6796c1r			; 0.904644
	DD	03f67c187r			; 0.905297
	DD	03f67ec29r			; 0.905947
	DD	03f6816a8r			; 0.906596
	DD	03f684103r			; 0.907242
	DD	03f686b39r			; 0.907886
	DD	03f68954cr			; 0.908528
	DD	03f68bf3cr			; 0.909168
	DD	03f68e907r			; 0.909806
	DD	03f6912aer			; 0.910441
	DD	03f693c32r			; 0.911075
	DD	03f696591r			; 0.911706
	DD	03f698eccr			; 0.912335
	DD	03f69b7e4r			; 0.912962
	DD	03f69e0d7r			; 0.913587
	DD	03f6a09a7r			; 0.91421
	DD	03f6a3252r			; 0.91483
	DD	03f6a5ad9r			; 0.915449
	DD	03f6a833cr			; 0.916065
	DD	03f6aab7br			; 0.916679
	DD	03f6ad395r			; 0.917291
	DD	03f6afb8cr			; 0.917901
	DD	03f6b235er			; 0.918508
	DD	03f6b4b0cr			; 0.919114
	DD	03f6b7295r			; 0.919717
	DD	03f6b99fbr			; 0.920318
	DD	03f6bc13br			; 0.920917
	DD	03f6be858r			; 0.921514
	DD	03f6c0f50r			; 0.922109
	DD	03f6c3624r			; 0.922701
	DD	03f6c5cd4r			; 0.923291
	DD	03f6c835er			; 0.92388
	DD	03f6ca9c5r			; 0.924465
	DD	03f6cd007r			; 0.925049
	DD	03f6cf624r			; 0.925631
	DD	03f6d1c1dr			; 0.92621
	DD	03f6d41f2r			; 0.926787
	DD	03f6d67a1r			; 0.927363
	DD	03f6d8d2dr			; 0.927935
	DD	03f6db293r			; 0.928506
	DD	03f6dd7d5r			; 0.929075
	DD	03f6dfcf2r			; 0.929641
	DD	03f6e21ebr			; 0.930205
	DD	03f6e46ber			; 0.930767
	DD	03f6e6b6dr			; 0.931327
	DD	03f6e8ff8r			; 0.931884
	DD	03f6eb45dr			; 0.93244
	DD	03f6ed89er			; 0.932993
	DD	03f6efcbar			; 0.933544
	DD	03f6f20b0r			; 0.934093
